 Diag

 Timestamp is 5ecf2155 (Thu May 28 11:26:29 2020)

 Preferred load address is 00010000

 Start         Length     Name                   Class
 0001:00000000 0008d268H .text                   CODE
 0001:0008d268 0000051cH .text$yc                CODE
 0001:0008d784 00000220H .text$yd                CODE
 0002:00000000 00000004H .CRT$XCA                DATA
 0002:00000004 00000008H .CRT$XCC                DATA
 0002:0000000c 00000010H .CRT$XCL                DATA
 0002:0000001c 0000004cH .CRT$XCU                DATA
 0002:00000068 00000004H .CRT$XCZ                DATA
 0002:0000006c 00000004H .CRT$XIA                DATA
 0002:00000070 00000004H .CRT$XIZ                DATA
 0002:00000074 00000004H .CRT$XPA                DATA
 0002:00000078 00000004H .CRT$XPZ                DATA
 0002:0000007c 00000004H .CRT$XTA                DATA
 0002:00000080 00000004H .CRT$XTZ                DATA
 0002:00000090 00039230H .rdata                  DATA
 0002:000392c0 00000077H .rdata$debug            DATA
 0002:00039338 00000d64H .rdata$r                DATA
 0002:0003a09c 000000a0H .xdata                  DATA
 0002:0003a13c 00000284H .xdata$x                DATA
 0002:0003a3c0 00000000H ATL$__a                 DATA
 0002:0003a3c0 00000000H ATL$__z                 DATA
 0002:0003a3c0 0000017cH .idata$2                DATA
 0002:0003a53c 00000014H .idata$3                DATA
 0002:0003a550 0000091cH .idata$4                DATA
 0002:0003ae6c 0000418eH .idata$6                DATA
 0002:0003effa 00000000H .edata                  DATA
 0003:00000000 0000091cH .idata$5                DATA
 0003:00000920 000019f0H .data                   DATA
 0003:00002320 0000303cH .bss                    DATA
 0004:00000000 000093a0H .pdata                  DATA
 0005:00000000 000020f4H .rsrc$01                DATA
 0005:00002100 000242c8H .rsrc$02                DATA

  Address         Publics by Value              Rva+Base       Lib:Object

 0000:00000000       ___safe_se_handler_count   00000000     <absolute>
 0000:00000000       ___safe_se_handler_table   00000000     <absolute>
 0001:00000000       ?ChangeState@DIAG_AppManager@@QAAXW4E_DIAG_APP_STATE@@@Z 00011000 f   DIAG_AppManager.obj
 0001:0000003c       ?HideWindow@DIAG_AppManager@@SAXPAU_DIAG_PARAM@@@Z 0001103c f   DIAG_AppManager.obj
 0001:00000074       ?PostMessageW@DIAG_AppManager@@SAJPAUHWND__@@HIJ@Z 00011074 f   DIAG_AppManager.obj
 0001:000001d4       ?AddCmdDevelopMode@DIAG_AppManager@@SAJPAU_DIAG_PARAM@@HHH@Z 000111d4 f   DIAG_AppManager.obj
 0001:000003b4       ??0DIAG_MemoryManager@@QAA@XZ 000113b4 f   DIAG_MemoryManager.obj
 0001:000006d8       ??_EDIAG_MemoryManager@@UAAPAXI@Z 000116d8 f i  CIL library: CIL module
 0001:000006d8       ??_GDIAG_MemoryManager@@UAAPAXI@Z 000116d8 f i DIAG_MemoryManager.obj
 0001:000006fc       ??_ECDiagnosticsBaseIF@MEMMANAGERBASEDLL@@UAAPAXI@Z 000116fc f i  CIL library: CIL module
 0001:000006fc       ??_GCDiagnosticsBaseIF@MEMMANAGERBASEDLL@@UAAPAXI@Z 000116fc f i DIAG_MemoryManager.obj
 0001:0000072c       ??_ECNaviKwpBaseIF@MEMMANAGERBASEDLL@@UAAPAXI@Z 0001172c f i  CIL library: CIL module
 0001:0000072c       ??_GCNaviKwpBaseIF@MEMMANAGERBASEDLL@@UAAPAXI@Z 0001172c f i DIAG_MemoryManager.obj
 0001:0000075c       ??_ECBluetoothBaseIF@MEMMANAGERBASEDLL@@UAAPAXI@Z 0001175c f i  CIL library: CIL module
 0001:0000075c       ??_GCBluetoothBaseIF@MEMMANAGERBASEDLL@@UAAPAXI@Z 0001175c f i DIAG_MemoryManager.obj
 0001:0000078c       ??_ECHmiCtrlDtvBaseIF@MEMMANAGERBASEDLL@@UAAPAXI@Z 0001178c f i  CIL library: CIL module
 0001:0000078c       ??_GCHmiCtrlDtvBaseIF@MEMMANAGERBASEDLL@@UAAPAXI@Z 0001178c f i DIAG_MemoryManager.obj
 0001:000007bc       ??_GCCanControlBaseIF@MEMMANAGERBASEDLL@@UAAPAXI@Z 000117bc f i DIAG_MemoryManager.obj
 0001:000007bc       ??_ECCanControlBaseIF@MEMMANAGERBASEDLL@@UAAPAXI@Z 000117bc f i  CIL library: CIL module
 0001:000007ec       ??_ECCommonEnvIF@MEMMANAGERENVDLL@@UAAPAXI@Z 000117ec f i  CIL library: CIL module
 0001:000007ec       ??_GCCommonEnvIF@MEMMANAGERENVDLL@@UAAPAXI@Z 000117ec f i DIAG_MemoryManager.obj
 0001:00000824       ??1DIAG_MemoryManager@@UAA@XZ 00011824 f   DIAG_MemoryManager.obj
 0001:00000954       ?GetDiagInformation@DIAG_MemoryManager@@QAAXPAUST_DIAG_INFORMATION@@@Z 00011954 f   DIAG_MemoryManager.obj
 0001:000009a0       ?GetVersion@DIAG_MemoryManager@@QAAXPAU_ST_VERSION_INFO@@@Z 000119a0 f   DIAG_MemoryManager.obj
 0001:00000bf4       ?SetConnectNumber@DIAG_MemoryManager@@QAAXPAD@Z 00011bf4 f   DIAG_MemoryManager.obj
 0001:00000c94       ?GetCameraInfo@DIAG_MemoryManager@@QAAXAAUST_CARDATA_DEFAULT_TBL@@@Z 00011c94 f   DIAG_MemoryManager.obj
 0001:00000d0c       ?SetDateTime@DIAG_MemoryManager@@QAAXAAUST_LOC_TIME@@@Z 00011d0c f   DIAG_MemoryManager.obj
 0001:00000dac       ?SetManufacturingData@DIAG_MemoryManager@@QAAJAAUST_KWP_MANUFACTURINGDATA@@@Z 00011dac f   DIAG_MemoryManager.obj
 0001:00000e34       ?SetMpuCoupon@DIAG_MemoryManager@@QAAXAAUT_MAPUPDATE_COUPON_INFO_TBL@@@Z 00011e34 f   DIAG_MemoryManager.obj
 0001:00000eb4       ?GetAvSourceMode@DIAG_MemoryManager@@QAA?AW4E_AV_SOURCE_MODE@@XZ 00011eb4 f   DIAG_MemoryManager.obj
 0001:00000f18       ?IsPeaksEnable@DIAG_MemoryManager@@QAA_NXZ 00011f18 f   DIAG_MemoryManager.obj
 0001:00000f5c       ?IsAvRecordEnable@DIAG_MemoryManager@@QAA_NXZ 00011f5c f   DIAG_MemoryManager.obj
 0001:00000fa0       ?IsAvCddbEnable@DIAG_MemoryManager@@QAA_NXZ 00011fa0 f   DIAG_MemoryManager.obj
 0001:00000fec       ?GetBK5CameraInfo@DIAG_MemoryManager@@QAAXAAUST_BK5_CAMERA_INFO@@@Z 00011fec f   DIAG_MemoryManager.obj
 0001:00001064       ?GetUseHiReso@DIAG_MemoryManager@@QAAHXZ 00012064 f   DIAG_MemoryManager.obj
 0001:000010c0       ?GetDiagButtonState@DIAG_MemoryManager@@QAAHAAUST_DIAG_BUTTON_STATE@@@Z 000120c0 f   DIAG_MemoryManager.obj
 0001:00001148       ?SetDiagButtonState@DIAG_MemoryManager@@QAAHAAUST_DIAG_BUTTON_STATE@@@Z 00012148 f   DIAG_MemoryManager.obj
 0001:000011d0       ?UpdadeCarPlayDiagEnable@DIAG_MemoryManager@@QAAH_N@Z 000121d0 f   DIAG_MemoryManager.obj
 0001:0000129c       ?UpdadeDemoModeInvalidState@DIAG_MemoryManager@@QAAH_N@Z 0001229c f   DIAG_MemoryManager.obj
 0001:00001360       ??_GDIAG_PageManager@@UAAPAXI@Z 00012360 f i DIAG_PageManager.obj
 0001:00001360       ??_EDIAG_PageManager@@UAAPAXI@Z 00012360 f i  CIL library: CIL module
 0001:0000138c       ??1DIAG_PageManager@@UAA@XZ 0001238c f   DIAG_PageManager.obj
 0001:0000144c       ?Initialize@DIAG_PageManager@@QAAJPAU_DIAG_PARAM@@@Z 0001244c f   DIAG_PageManager.obj
 0001:000016bc       ?UpdateMenu@DIAG_PageManager@@QAAJPAU_DIAG_PARAM@@H@Z 000126bc f   DIAG_PageManager.obj
 0001:00001884       ?ShowWinndow@DIAG_PageManager@@QAAJPAU_DIAG_PARAM@@H@Z 00012884 f   DIAG_PageManager.obj
 0001:00001a14       ?Next@DIAG_PageManager@@QAAJPAU_DIAG_PARAM@@@Z 00012a14 f   DIAG_PageManager.obj
 0001:00001b38       ?Prev@DIAG_PageManager@@QAAJPAU_DIAG_PARAM@@@Z 00012b38 f   DIAG_PageManager.obj
 0001:00001c8c       ?DoMenu@DIAG_PageManager@@QAAJPAU_DIAG_PARAM@@H@Z 00012c8c f   DIAG_PageManager.obj
 0001:0000202c       ?Finish@DIAG_PageManager@@QAAJPAU_DIAG_PARAM@@@Z 0001302c f   DIAG_PageManager.obj
 0001:000020cc       ?StartFinishMode@DIAG_PageManager@@QAAXPAU_DIAG_PARAM@@@Z 000130cc f   DIAG_PageManager.obj
 0001:00002158       ?EndFinishMode@DIAG_PageManager@@QAAXPAU_DIAG_PARAM@@H@Z 00013158 f   DIAG_PageManager.obj
 0001:00002210       ?ShowControl@DIAG_PageManager@@QAAXPAU_DIAG_PARAM@@HHH@Z 00013210 f   DIAG_PageManager.obj
 0001:00002310       ?GetActiveMenuIndex@DIAG_PageManager@@QAAHXZ 00013310 f   DIAG_PageManager.obj
 0001:0000235c       ?OnMessage@DIAG_PageManager@@QAAXPAU_DIAG_PARAM@@IIJ@Z 0001335c f   DIAG_PageManager.obj
 0001:000023a8       ?GetInstance@DIAG_PageManager@@SAPAVCDialogBase@@I@Z 000133a8 f   DIAG_PageManager.obj
 0001:0000424c       ?CreateFont@ATL@@YAPAUHFONT__@@HHHHHEEEEEEEEPB_W@Z 0001524c f i DIAG_PageManager.obj
 0001:00004300       ?CreateFont@CFont@@QAAHHHHHHEEEEEEEEPB_W@Z 00015300 f i DIAG_PageManager.obj
 0001:00004378       ??1CFont@@UAA@XZ           00015378 f i DIAG_PageManager.obj
 0001:0000438c       ??_GCFont@@UAAPAXI@Z       0001538c f i DIAG_PageManager.obj
 0001:0000438c       ??_ECFont@@UAAPAXI@Z       0001538c f i  CIL library: CIL module
 0001:000043bc       ??_ECGdiObject@@UAAPAXI@Z  000153bc f i  CIL library: CIL module
 0001:000043bc       ??_GCGdiObject@@UAAPAXI@Z  000153bc f i DIAG_PageManager.obj
 0001:000043e0       ??0?$CStringT@_WV?$StrTraitMFC@_WV?$ChTraitsOS@_W@ATL@@@@@ATL@@QAA@XZ 000153e0 f i DIAG_PageManager.obj
 0001:00004424       ?GetFormattedLength@?$ChTraitsOS@_W@ATL@@SAHPB_WPAD@Z 00015424 f i DIAG_PageManager.obj
 0001:00004478       ?Format@?$ChTraitsOS@_W@ATL@@SAHPA_WIPB_WPAD@Z 00015478 f i DIAG_PageManager.obj
 0001:0000452c       ??1CGdiObject@@UAA@XZ      0001552c f i DIAG_PageManager.obj
 0001:00004688       ??0?$CSimpleStringT@_W$0A@@ATL@@QAA@PAUIAtlStringMgr@1@@Z 00015688 f i DIAG_PageManager.obj
 0001:000046c4       ?AfxCrtErrorCheck@@YAHH@Z  000156c4 f i DIAG_PageManager.obj
 0001:00004700       ?Fork@?$CSimpleStringT@_W$0A@@ATL@@AAAXH@Z 00015700 f i DIAG_PageManager.obj
 0001:00004798       ?Reallocate@?$CSimpleStringT@_W$0A@@ATL@@AAAXH@Z 00015798 f i DIAG_PageManager.obj
 0001:000047f0       ?PrepareWrite2@?$CSimpleStringT@_W$0A@@ATL@@AAAXH@Z 000157f0 f i DIAG_PageManager.obj
 0001:00004854       ?AtlThrowImpl@ATL@@YAXJ@Z  00015854 f i DIAG_PageManager.obj
 0001:00004870       ?SetLength@?$CSimpleStringT@_W$0A@@ATL@@AAAXH@Z 00015870 f i DIAG_PageManager.obj
 0001:000048b0       ??_EDIAG_StateManager@@UAAPAXI@Z 000158b0 f i  CIL library: CIL module
 0001:000048b0       ??_GDIAG_StateManager@@UAAPAXI@Z 000158b0 f i DIAG_StateManager.obj
 0001:000048d4       ??1DIAG_StateManager@@UAA@XZ 000158d4 f   DIAG_StateManager.obj
 0001:000048e4       ?OnClose@DIAG_StateManager@@QAAXXZ 000158e4 f   DIAG_StateManager.obj
 0001:00004a80       ?GetState@DIAG_StateManager@@QAAPAVDIAG_State@@XZ 00015a80 f   DIAG_StateManager.obj
 0001:00004d98       ?OnBnClickedButtonBack@DIAG_StateManager@@UAAJXZ 00015d98 f   DIAG_StateManager.obj
 0001:00004db8       ?OnBnClickedButtonPrev@DIAG_StateManager@@UAAJXZ 00015db8 f   DIAG_StateManager.obj
 0001:00004dd8       ?OnBnClickedButtonNext@DIAG_StateManager@@UAAJXZ 00015dd8 f   DIAG_StateManager.obj
 0001:00004df8       ?OnBnClickedButton1@DIAG_StateManager@@UAAJXZ 00015df8 f   DIAG_StateManager.obj
 0001:00004e18       ?OnBnClickedButton2@DIAG_StateManager@@UAAJXZ 00015e18 f   DIAG_StateManager.obj
 0001:00004e38       ?OnBnClickedButton3@DIAG_StateManager@@UAAJXZ 00015e38 f   DIAG_StateManager.obj
 0001:00004e58       ?OnBnClickedButton4@DIAG_StateManager@@UAAJXZ 00015e58 f   DIAG_StateManager.obj
 0001:00004e78       ?OnBnClickedButton5@DIAG_StateManager@@UAAJXZ 00015e78 f   DIAG_StateManager.obj
 0001:00004e98       ?OnBnClickedButton6@DIAG_StateManager@@UAAJXZ 00015e98 f   DIAG_StateManager.obj
 0001:00004eb8       ?OnBnClickedButton7@DIAG_StateManager@@UAAJXZ 00015eb8 f   DIAG_StateManager.obj
 0001:00004ed8       ?OnReqDisplay@DIAG_StateManager@@UAAJIJ@Z 00015ed8 f   DIAG_StateManager.obj
 0001:00004f80       ?OnReqEndDemand@DIAG_StateManager@@UAAJIJ@Z 00015f80 f   DIAG_StateManager.obj
 0001:00004fb4       ?OnReqNonDisplay@DIAG_StateManager@@UAAJIJ@Z 00015fb4 f   DIAG_StateManager.obj
 0001:00004fe8       ?OnReqHeartbeat@DIAG_StateManager@@UAAJIJ@Z 00015fe8 f   DIAG_StateManager.obj
 0001:0000501c       ?OnSmButtonDown@DIAG_StateManager@@UAAJIJ@Z 0001601c f   DIAG_StateManager.obj
 0001:00005050       ?OnSmButtonUp@DIAG_StateManager@@UAAJIJ@Z 00016050 f   DIAG_StateManager.obj
 0001:00005084       ?OnSmNotifyInitializeEnd@DIAG_StateManager@@UAAJIJ@Z 00016084 f   DIAG_StateManager.obj
 0001:000050e0       ?OnHmiResAudioInitialize@DIAG_StateManager@@UAAJIJ@Z 000160e0 f   DIAG_StateManager.obj
 0001:0000513c       ?OnKWP2DIReqCommand@DIAG_StateManager@@UAAJIJ@Z 0001613c f   DIAG_StateManager.obj
 0001:00005170       ?OnMessage@DIAG_StateManager@@UAAJIIJ@Z 00016170 f   DIAG_StateManager.obj
 0001:000051b4       ?OnBnClickedButtonYes@DIAG_StateManager@@UAAJXZ 000161b4 f   DIAG_StateManager.obj
 0001:000051d4       ?OnBnClickedButtonNo@DIAG_StateManager@@UAAJXZ 000161d4 f   DIAG_StateManager.obj
 0001:000051f4       ?OnKWP2DIReqMemClearCheck@DIAG_StateManager@@UAAJIJ@Z 000161f4 f   DIAG_StateManager.obj
 0001:00005228       ?OnSmNotifyInitializeCheckEnd@DIAG_StateManager@@UAAJIJ@Z 00016228 f   DIAG_StateManager.obj
 0001:0000525c       ?OnSmResScalerSetting@DIAG_StateManager@@UAAJIJ@Z 0001625c f   DIAG_StateManager.obj
 0001:00005290       ?EMMCReadSectors@@YAJPAX0KK@Z 00016290 f i DIAG_Tool.obj
 0001:000053d8       ??1DriverHandle@DIAG@@UAA@XZ 000163d8 f i DIAG_Tool.obj
 0001:00005418       ?OpenDriver@DriverHandle@DIAG@@IAAJPB_WKK@Z 00016418 f i DIAG_Tool.obj
 0001:000054cc       ??_GDriverHandle@DIAG@@UAAPAXI@Z 000164cc f i DIAG_Tool.obj
 0001:000054cc       ??_EDriverHandle@DIAG@@UAAPAXI@Z 000164cc f i  CIL library: CIL module
 0001:000054f0       ?PortWrite@GpioDriverHandle@DIAG@@QAAJW4GpioPort@2@W4GpioValue@2@@Z 000164f0 f i DIAG_Tool.obj
 0001:00005668       ??1GpioDriverHandle@DIAG@@UAA@XZ 00016668 f i DIAG_Tool.obj
 0001:00005668       ??1I2CDriverHandle@DIAG@@UAA@XZ 00016668 f i DIAG_Tool.obj
 0001:0000567c       ?Disable@I2CDriverHandle@DIAG@@QAAJE@Z 0001667c f i DIAG_Tool.obj
 0001:00005718       ?ReadAckOfI2cMaster@ML86203Controller@DIAG@@QAA_NAAVI2CDriverHandle@2@H@Z 00016718 f i DIAG_Tool.obj
 0001:000058c0       ?ReadBank@ML86203Controller@DIAG@@AAAJAAVI2CDriverHandle@2@AAURegDataBuffer@12@K@Z 000168c0 f i DIAG_Tool.obj
 0001:00005a28       ?WriteLogInfo@@YAXPB_WZZ   00016a28 f   DIAG_Tool.obj
 0001:00005a88       ?WriteLogError@@YAXPB_WZZ  00016a88 f   DIAG_Tool.obj
 0001:00005ad8       ?EnumChildProc@@YAHPAUHWND__@@J@Z 00016ad8 f   DIAG_Tool.obj
 0001:00005b14       ?MMCWrite@@YAHKQAJ@Z       00016b14 f   DIAG_Tool.obj
 0001:00005d70       ?MMCWrite@@YAHW4MMCWRITE_MODE@@@Z 00016d70 f   DIAG_Tool.obj
 0001:00005e2c       ?DiagSendMainPcKwpCommand@@YAJPAUHWND__@@PBXI@Z 00016e2c f   DIAG_Tool.obj
 0001:00005ef4       ?ScalerReset@@YA_NXZ       00016ef4 f   DIAG_Tool.obj
 0001:00006040       ?EEPROMWrite@@YA_NXZ       00017040 f   DIAG_Tool.obj
 0001:00006304       ?AstLogShutdown@DIAG@@YAHXZ 00017304 f   DIAG_Tool.obj
 0001:00006388       ??1NandDevice@@QAA@XZ      00017388 f   NAND.obj
 0001:000063b0       ?Open@NandDevice@@QAAHXZ   000173b0 f   NAND.obj
 0001:00006424       ?Read@NandDevice@@QAAHKKP6AHPAXK0@Z0@Z 00017424 f   NAND.obj
 0001:000065b4       ?Write@NandDevice@@QAAHKKP6AHPAXK0@Z0@Z 000175b4 f   NAND.obj
 0001:00006734       ?SnapShotDumpMain@@YAHPA_WK@Z 00017734 f   SnapShotDump.obj
 0001:00006d2c       ?SnapShotInfoCallBack@@YAHPAXKPAUtagSnapShotInfoArgs@@@Z 00017d2c f   SnapShotDump.obj
 0001:00006e0c       ?SnapShotDumpCallBack@@YAHPAXKPAUtagSnapShotDumpArgs@@@Z 00017e0c f   SnapShotDump.obj
 0001:00006e70       ?SnapShotDump@@YAHPAX@Z    00017e70 f   SnapShotDump.obj
 0001:00006f90       ?NKInfoCallBack@@YAHPAXKPAUtagNKInfoArgs@@@Z 00017f90 f   SnapShotDump.obj
 0001:00007070       ?NKDumpCallBack@@YAHPAXKPAUtagNKDumpArgs@@@Z 00018070 f   SnapShotDump.obj
 0001:000070d4       ?NKDump@@YAHPAX@Z          000180d4 f   SnapShotDump.obj
 0001:000071f4       ?CDDBDumpCallBack@@YAHPAXKPAUtagCDDBDumpArgs@@@Z 000181f4 f   SnapShotDump.obj
 0001:00007258       ?CDDBDump@@YAHPAX@Z        00018258 f   SnapShotDump.obj
 0001:00007310       ?OpeningDumpCallBack@@YAHPAXKPAUtagOPENINGDumpArgs@@@Z 00018310 f   SnapShotDump.obj
 0001:00007374       ?OpeningDump@@YAHPAX@Z     00018374 f   SnapShotDump.obj
 0001:0000742c       ?OnKWP2DIReqCommand@KwpCommandStateSettingWait@KwpCommandState@@UBAJPAVDIAG_AppManager@@PAVDIAG_PageManager@@PAU_DIAG_PARAM@@IJ@Z 0001842c f i DIAG_State.obj
 0001:0000742c       ?OnKWP2DIReqCommand@KwpCommandStateInitializeWait@KwpCommandState@@UBAJPAVDIAG_AppManager@@PAVDIAG_PageManager@@PAU_DIAG_PARAM@@IJ@Z 0001842c f i DIAG_State.obj
 0001:0000744c       ?OnKWP2DIReqMemClearCheck@KwpCommandStateInitializeWait@KwpCommandState@@UBAJPAVDIAG_AppManager@@PAVDIAG_PageManager@@PAU_DIAG_PARAM@@IJ@Z 0001844c f i DIAG_State.obj
 0001:0000744c       ?OnKWP2DIReqMemClearCheck@KwpCommandStateSettingWait@KwpCommandState@@UBAJPAVDIAG_AppManager@@PAVDIAG_PageManager@@PAU_DIAG_PARAM@@IJ@Z 0001844c f i DIAG_State.obj
 0001:0000746c       ?OnSmResScalerSetting@KwpCommandStateInitializeWait@KwpCommandState@@UBAJPAVDIAG_PageManager@@PAU_DIAG_PARAM@@IJ@Z 0001846c f i DIAG_State.obj
 0001:0000748c       ?OnSmNotifyInitializeEnd@KwpCommandStateSettingWait@KwpCommandState@@UBAJPAVDIAG_PageManager@@PAU_DIAG_PARAM@@IJ@Z 0001848c f i DIAG_State.obj
 0001:000074ac       ?OnHmiResAudioInitialize@KwpCommandStateSettingWait@KwpCommandState@@UBAJPAVDIAG_PageManager@@PAU_DIAG_PARAM@@IJ@Z 000184ac f i DIAG_State.obj
 0001:000074cc       ?OnSmNotifyInitializeCheckEnd@KwpCommandStateSettingWait@KwpCommandState@@UBAJPAVDIAG_AppManager@@PAVDIAG_PageManager@@PAU_DIAG_PARAM@@IJ@Z 000184cc f i DIAG_State.obj
 0001:000074cc       ?OnSmNotifyInitializeCheckEnd@KwpCommandStateInitializeWait@KwpCommandState@@UBAJPAVDIAG_AppManager@@PAVDIAG_PageManager@@PAU_DIAG_PARAM@@IJ@Z 000184cc f i DIAG_State.obj
 0001:000074ec       ?GetState@KwpCommandState@@SAABVKwpCommandStateBase@1@XZ 000184ec f i DIAG_State.obj
 0001:00007530       ??_GKwpCommandStateBase@KwpCommandState@@UAAPAXI@Z 00018530 f i DIAG_State.obj
 0001:00007530       ??_GKwpCommandStateSettingWait@KwpCommandState@@UAAPAXI@Z 00018530 f i DIAG_State.obj
 0001:00007530       ??_EKwpCommandStateBase@KwpCommandState@@UAAPAXI@Z 00018530 f i  CIL library: CIL module
 0001:00007530       ??_GKwpCommandStateNormal@KwpCommandState@@UAAPAXI@Z 00018530 f i DIAG_State.obj
 0001:00007530       ??_EKwpCommandStateInitializeWait@KwpCommandState@@UAAPAXI@Z 00018530 f i  CIL library: CIL module
 0001:00007530       ??_EKwpCommandStateSettingWait@KwpCommandState@@UAAPAXI@Z 00018530 f i  CIL library: CIL module
 0001:00007530       ??_EKwpCommandStateNormal@KwpCommandState@@UAAPAXI@Z 00018530 f i  CIL library: CIL module
 0001:00007530       ??_GKwpCommandStateInitializeWait@KwpCommandState@@UAAPAXI@Z 00018530 f i DIAG_State.obj
 0001:00007554       ?OnBnClickedButtonBack@DIAG_State@@UAAJPAU_DIAG_PARAM@@@Z 00018554 f   DIAG_State.obj
 0001:00007578       ?OnBnClickedButtonPrev@DIAG_State@@UAAJPAU_DIAG_PARAM@@@Z 00018578 f   DIAG_State.obj
 0001:0000759c       ?OnBnClickedButtonNext@DIAG_State@@UAAJPAU_DIAG_PARAM@@@Z 0001859c f   DIAG_State.obj
 0001:000075c0       ?OnBnClickedButton1@DIAG_State@@UAAJPAU_DIAG_PARAM@@@Z 000185c0 f   DIAG_State.obj
 0001:000075e4       ?OnBnClickedButton2@DIAG_State@@UAAJPAU_DIAG_PARAM@@@Z 000185e4 f   DIAG_State.obj
 0001:00007608       ?OnBnClickedButton3@DIAG_State@@UAAJPAU_DIAG_PARAM@@@Z 00018608 f   DIAG_State.obj
 0001:0000762c       ?OnBnClickedButton4@DIAG_State@@UAAJPAU_DIAG_PARAM@@@Z 0001862c f   DIAG_State.obj
 0001:00007650       ?OnBnClickedButton5@DIAG_State@@UAAJPAU_DIAG_PARAM@@@Z 00018650 f   DIAG_State.obj
 0001:00007674       ?OnBnClickedButton6@DIAG_State@@UAAJPAU_DIAG_PARAM@@@Z 00018674 f   DIAG_State.obj
 0001:00007698       ?OnBnClickedButton7@DIAG_State@@UAAJPAU_DIAG_PARAM@@@Z 00018698 f   DIAG_State.obj
 0001:000076bc       ?OnReqDisplay@DIAG_State@@UAAJPAU_DIAG_PARAM@@IJ@Z 000186bc f   DIAG_State.obj
 0001:00007700       ?OnReqEndDemand@DIAG_State@@UAAJPAU_DIAG_PARAM@@IJ@Z 00018700 f   DIAG_State.obj
 0001:0000775c       ?OnReqNonDisplay@DIAG_State@@UAAJPAU_DIAG_PARAM@@IJ@Z 0001875c f   DIAG_State.obj
 0001:000077b4       ?OnReqHeartbeat@DIAG_State@@UAAJPAU_DIAG_PARAM@@IJ@Z 000187b4 f   DIAG_State.obj
 0001:000077d4       ?OnSmButtonDown@DIAG_State@@UAAJPAU_DIAG_PARAM@@IJ@Z 000187d4 f   DIAG_State.obj
 0001:00007824       ?OnSmButtonUp@DIAG_State@@UAAJPAU_DIAG_PARAM@@IJ@Z 00018824 f   DIAG_State.obj
 0001:00007874       ?OnKWP2DIReqCommand@DIAG_State@@UAAJPAU_DIAG_PARAM@@IJ@Z 00018874 f   DIAG_State.obj
 0001:000078d0       ?OnMessage@DIAG_State@@UAAJPAU_DIAG_PARAM@@IIJ@Z 000188d0 f   DIAG_State.obj
 0001:00007928       ?OnBnClickedButtonYes@DIAG_State@@UAAJPAU_DIAG_PARAM@@@Z 00018928 f   DIAG_State.obj
 0001:0000794c       ?OnBnClickedButtonNo@DIAG_State@@UAAJPAU_DIAG_PARAM@@@Z 0001894c f   DIAG_State.obj
 0001:00007970       ?OnSmResScalerSetting@DIAG_State@@UAAJPAU_DIAG_PARAM@@IJ@Z 00018970 f   DIAG_State.obj
 0001:000079d0       ?NotifyTouchKeyDisp@DIAG_State@@KAXPAU_DIAG_PARAM@@@Z 000189d0 f   DIAG_State.obj
 0001:00007a84       ?OnSmNotifyInitializeEnd@KwpCommandStateBase@KwpCommandState@@UBAJPAVDIAG_PageManager@@PAU_DIAG_PARAM@@IJ@Z 00018a84 f   DIAG_State.obj
 0001:00007ad8       ?OnHmiResAudioInitialize@KwpCommandStateBase@KwpCommandState@@UBAJPAVDIAG_PageManager@@PAU_DIAG_PARAM@@IJ@Z 00018ad8 f   DIAG_State.obj
 0001:00007b34       ?OnKWP2DIReqCommand@KwpCommandStateBase@KwpCommandState@@UBAJPAVDIAG_AppManager@@PAVDIAG_PageManager@@PAU_DIAG_PARAM@@IJ@Z 00018b34 f   DIAG_State.obj
 0001:00007ec4       ?OnSmResScalerSetting@KwpCommandStateBase@KwpCommandState@@UBAJPAVDIAG_PageManager@@PAU_DIAG_PARAM@@IJ@Z 00018ec4 f   DIAG_State.obj
 0001:00007f18       ?OnSmNotifyInitializeEnd@KwpCommandStateInitializeWait@KwpCommandState@@UBAJPAVDIAG_PageManager@@PAU_DIAG_PARAM@@IJ@Z 00018f18 f   DIAG_State.obj
 0001:00007fe0       ?OnHmiResAudioInitialize@KwpCommandStateInitializeWait@KwpCommandState@@UBAJPAVDIAG_PageManager@@PAU_DIAG_PARAM@@IJ@Z 00018fe0 f   DIAG_State.obj
 0001:000080a0       ?OnSmResScalerSetting@KwpCommandStateSettingWait@KwpCommandState@@UBAJPAVDIAG_PageManager@@PAU_DIAG_PARAM@@IJ@Z 000190a0 f   DIAG_State.obj
 0001:0000815c       ?OnKWP2DIReqMemClearCheck@DIAG_State@@UAAJPAU_DIAG_PARAM@@IJ@Z 0001915c f   DIAG_State.obj
 0001:000081b8       ?OnSmNotifyInitializeCheckEnd@DIAG_State@@UAAJPAU_DIAG_PARAM@@IJ@Z 000191b8 f   DIAG_State.obj
 0001:00008214       ?OnKWP2DIReqMemClearCheck@KwpCommandStateBase@KwpCommandState@@UBAJPAVDIAG_AppManager@@PAVDIAG_PageManager@@PAU_DIAG_PARAM@@IJ@Z 00019214 f   DIAG_State.obj
 0001:000082a0       ?OnSmNotifyInitializeCheckEnd@KwpCommandStateBase@KwpCommandState@@UBAJPAVDIAG_AppManager@@PAVDIAG_PageManager@@PAU_DIAG_PARAM@@IJ@Z 000192a0 f   DIAG_State.obj
 0001:0000831c       ??_EDIAG_State_Normal_Back@@UAAPAXI@Z 0001931c f i  CIL library: CIL module
 0001:0000831c       ??_EDIAG_State_Normal_Develop@@UAAPAXI@Z 0001931c f i  CIL library: CIL module
 0001:0000831c       ??_GDIAG_State_AllScreen_DevelopSingle@@UAAPAXI@Z 0001931c f i DIAG_State_AllScreen_DevelopSingle.obj
 0001:0000831c       ??_GDIAG_State_AllScreen_Develop@@UAAPAXI@Z 0001931c f i DIAG_State_AllScreen_Develop.obj
 0001:0000831c       ??_GDIAG_State_Normal_Back@@UAAPAXI@Z 0001931c f i DIAG_State_Normal_Back.obj
 0001:0000831c       ??_EDIAG_State_AllScreen_Dealer@@UAAPAXI@Z 0001931c f i  CIL library: CIL module
 0001:0000831c       ??_GDIAG_State_Finish_Conf@@UAAPAXI@Z 0001931c f i DIAG_State_Finish_Conf.obj
 0001:0000831c       ??_EDIAG_State_Finish_Conf@@UAAPAXI@Z 0001931c f i  CIL library: CIL module
 0001:0000831c       ??_GDIAG_State_Single@@UAAPAXI@Z 0001931c f i DIAG_State_Single.obj
 0001:0000831c       ??_GDIAG_State_Normal_DevelopSingle@@UAAPAXI@Z 0001931c f i DIAG_State_Normal_DevelopSingle.obj
 0001:0000831c       ??_EDIAG_State_AllScreen_Back@@UAAPAXI@Z 0001931c f i  CIL library: CIL module
 0001:0000831c       ??_GDIAG_State_Normal_Develop@@UAAPAXI@Z 0001931c f i DIAG_State_Normal_Develop.obj
 0001:0000831c       ??_EDIAG_State@@UAAPAXI@Z  0001931c f i  CIL library: CIL module
 0001:0000831c       ??_EDIAG_State_Single@@UAAPAXI@Z 0001931c f i  CIL library: CIL module
 0001:0000831c       ??_EDIAG_State_Normal_Hide@@UAAPAXI@Z 0001931c f i  CIL library: CIL module
 0001:0000831c       ??_GDIAG_State@@UAAPAXI@Z  0001931c f i DIAG_State.obj
 0001:0000831c       ??_GDIAG_State_AllScreen_Dealer@@UAAPAXI@Z 0001931c f i DIAG_State_AllScreen_Dealer.obj
 0001:0000831c       ??_EDIAG_State_Normal_DevelopSingle@@UAAPAXI@Z 0001931c f i  CIL library: CIL module
 0001:0000831c       ??_GDIAG_State_Normal_Dealer@@UAAPAXI@Z 0001931c f i DIAG_State_Normal_Dealer.obj
 0001:0000831c       ??_GDIAG_State_Normal_Hide@@UAAPAXI@Z 0001931c f i DIAG_State_Normal_Hide.obj
 0001:0000831c       ??_EDIAG_State_Normal_Dealer@@UAAPAXI@Z 0001931c f i  CIL library: CIL module
 0001:0000831c       ??_EDIAG_State_AllScreen_DevelopSingle@@UAAPAXI@Z 0001931c f i  CIL library: CIL module
 0001:0000831c       ??_GDIAG_State_AllScreen_Back@@UAAPAXI@Z 0001931c f i DIAG_State_AllScreen_Back.obj
 0001:0000831c       ??_EDIAG_State_AllScreen_Develop@@UAAPAXI@Z 0001931c f i  CIL library: CIL module
 0001:00008340       ?OnBnClickedButtonBack@DIAG_State_AllScreen_Back@@UAAJPAU_DIAG_PARAM@@@Z 00019340 f   DIAG_State_AllScreen_Back.obj
 0001:00008384       ?OnReqDisplay@DIAG_State_AllScreen_Back@@UAAJPAU_DIAG_PARAM@@IJ@Z 00019384 f   DIAG_State_AllScreen_Back.obj
 0001:000083c8       ?OnReqNonDisplay@DIAG_State_AllScreen_Back@@UAAJPAU_DIAG_PARAM@@IJ@Z 000193c8 f   DIAG_State_AllScreen_Back.obj
 0001:00008458       ?OnBnClickedButtonBack@DIAG_State_AllScreen_Dealer@@UAAJPAU_DIAG_PARAM@@@Z 00019458 f   DIAG_State_AllScreen_Dealer.obj
 0001:0000849c       ?OnReqDisplay@DIAG_State_AllScreen_Dealer@@UAAJPAU_DIAG_PARAM@@IJ@Z 0001949c f   DIAG_State_AllScreen_Dealer.obj
 0001:000084e0       ?OnReqNonDisplay@DIAG_State_AllScreen_Dealer@@UAAJPAU_DIAG_PARAM@@IJ@Z 000194e0 f   DIAG_State_AllScreen_Dealer.obj
 0001:00008570       ?OnBnClickedButtonBack@DIAG_State_AllScreen_Develop@@UAAJPAU_DIAG_PARAM@@@Z 00019570 f   DIAG_State_AllScreen_Develop.obj
 0001:000085b4       ?OnReqDisplay@DIAG_State_AllScreen_Develop@@UAAJPAU_DIAG_PARAM@@IJ@Z 000195b4 f   DIAG_State_AllScreen_Develop.obj
 0001:000085f8       ?OnReqNonDisplay@DIAG_State_AllScreen_Develop@@UAAJPAU_DIAG_PARAM@@IJ@Z 000195f8 f   DIAG_State_AllScreen_Develop.obj
 0001:00008688       ?OnBnClickedButtonBack@DIAG_State_AllScreen_DevelopSingle@@UAAJPAU_DIAG_PARAM@@@Z 00019688 f   DIAG_State_AllScreen_DevelopSingle.obj
 0001:000086cc       ?OnReqDisplay@DIAG_State_AllScreen_DevelopSingle@@UAAJPAU_DIAG_PARAM@@IJ@Z 000196cc f   DIAG_State_AllScreen_DevelopSingle.obj
 0001:00008710       ?OnReqNonDisplay@DIAG_State_AllScreen_DevelopSingle@@UAAJPAU_DIAG_PARAM@@IJ@Z 00019710 f   DIAG_State_AllScreen_DevelopSingle.obj
 0001:000087a0       ?OnBnClickedButtonYes@DIAG_State_Finish_Conf@@UAAJPAU_DIAG_PARAM@@@Z 000197a0 f   DIAG_State_Finish_Conf.obj
 0001:000087e0       ?OnBnClickedButtonNo@DIAG_State_Finish_Conf@@UAAJPAU_DIAG_PARAM@@@Z 000197e0 f   DIAG_State_Finish_Conf.obj
 0001:00008838       ?OnReqDisplay@DIAG_State_Finish_Conf@@UAAJPAU_DIAG_PARAM@@IJ@Z 00019838 f   DIAG_State_Finish_Conf.obj
 0001:0000887c       ?OnReqNonDisplay@DIAG_State_Finish_Conf@@UAAJPAU_DIAG_PARAM@@IJ@Z 0001987c f   DIAG_State_Finish_Conf.obj
 0001:00008904       ?OnBnClickedButtonBack@DIAG_State_Normal_Back@@UAAJPAU_DIAG_PARAM@@@Z 00019904 f   DIAG_State_Normal_Back.obj
 0001:000089a4       ?OnBnClickedButtonPrev@DIAG_State_Normal_Back@@UAAJPAU_DIAG_PARAM@@@Z 000199a4 f   DIAG_State_Normal_Back.obj
 0001:00008a20       ?OnBnClickedButtonNext@DIAG_State_Normal_Back@@UAAJPAU_DIAG_PARAM@@@Z 00019a20 f   DIAG_State_Normal_Back.obj
 0001:00008a9c       ?OnBnClickedButton1@DIAG_State_Normal_Back@@UAAJPAU_DIAG_PARAM@@@Z 00019a9c f   DIAG_State_Normal_Back.obj
 0001:00008b50       ?OnBnClickedButton2@DIAG_State_Normal_Back@@UAAJPAU_DIAG_PARAM@@@Z 00019b50 f   DIAG_State_Normal_Back.obj
 0001:00008c04       ?OnBnClickedButton3@DIAG_State_Normal_Back@@UAAJPAU_DIAG_PARAM@@@Z 00019c04 f   DIAG_State_Normal_Back.obj
 0001:00008cb8       ?OnBnClickedButton4@DIAG_State_Normal_Back@@UAAJPAU_DIAG_PARAM@@@Z 00019cb8 f   DIAG_State_Normal_Back.obj
 0001:00008d6c       ?OnBnClickedButton5@DIAG_State_Normal_Back@@UAAJPAU_DIAG_PARAM@@@Z 00019d6c f   DIAG_State_Normal_Back.obj
 0001:00008e20       ?OnBnClickedButton6@DIAG_State_Normal_Back@@UAAJPAU_DIAG_PARAM@@@Z 00019e20 f   DIAG_State_Normal_Back.obj
 0001:00008ed4       ?OnBnClickedButton7@DIAG_State_Normal_Back@@UAAJPAU_DIAG_PARAM@@@Z 00019ed4 f   DIAG_State_Normal_Back.obj
 0001:00008f88       ?OnReqDisplay@DIAG_State_Normal_Back@@UAAJPAU_DIAG_PARAM@@IJ@Z 00019f88 f   DIAG_State_Normal_Back.obj
 0001:00008fcc       ?OnReqNonDisplay@DIAG_State_Normal_Back@@UAAJPAU_DIAG_PARAM@@IJ@Z 00019fcc f   DIAG_State_Normal_Back.obj
 0001:00009050       ?OnBnClickedButtonBack@DIAG_State_Normal_Dealer@@UAAJPAU_DIAG_PARAM@@@Z 0001a050 f   DIAG_State_Normal_Dealer.obj
 0001:00009094       ?OnBnClickedButtonPrev@DIAG_State_Normal_Dealer@@UAAJPAU_DIAG_PARAM@@@Z 0001a094 f   DIAG_State_Normal_Dealer.obj
 0001:00009110       ?OnBnClickedButtonNext@DIAG_State_Normal_Dealer@@UAAJPAU_DIAG_PARAM@@@Z 0001a110 f   DIAG_State_Normal_Dealer.obj
 0001:0000918c       ?OnBnClickedButton1@DIAG_State_Normal_Dealer@@UAAJPAU_DIAG_PARAM@@@Z 0001a18c f   DIAG_State_Normal_Dealer.obj
 0001:000091f4       ?OnBnClickedButton2@DIAG_State_Normal_Dealer@@UAAJPAU_DIAG_PARAM@@@Z 0001a1f4 f   DIAG_State_Normal_Dealer.obj
 0001:0000925c       ?OnBnClickedButton3@DIAG_State_Normal_Dealer@@UAAJPAU_DIAG_PARAM@@@Z 0001a25c f   DIAG_State_Normal_Dealer.obj
 0001:000092c4       ?OnBnClickedButton4@DIAG_State_Normal_Dealer@@UAAJPAU_DIAG_PARAM@@@Z 0001a2c4 f   DIAG_State_Normal_Dealer.obj
 0001:0000932c       ?OnBnClickedButton5@DIAG_State_Normal_Dealer@@UAAJPAU_DIAG_PARAM@@@Z 0001a32c f   DIAG_State_Normal_Dealer.obj
 0001:00009394       ?OnBnClickedButton6@DIAG_State_Normal_Dealer@@UAAJPAU_DIAG_PARAM@@@Z 0001a394 f   DIAG_State_Normal_Dealer.obj
 0001:000093fc       ?OnBnClickedButton7@DIAG_State_Normal_Dealer@@UAAJPAU_DIAG_PARAM@@@Z 0001a3fc f   DIAG_State_Normal_Dealer.obj
 0001:00009464       ?OnReqDisplay@DIAG_State_Normal_Dealer@@UAAJPAU_DIAG_PARAM@@IJ@Z 0001a464 f   DIAG_State_Normal_Dealer.obj
 0001:000094a8       ?OnReqNonDisplay@DIAG_State_Normal_Dealer@@UAAJPAU_DIAG_PARAM@@IJ@Z 0001a4a8 f   DIAG_State_Normal_Dealer.obj
 0001:0000952c       ?OnBnClickedButtonBack@DIAG_State_Normal_Develop@@UAAJPAU_DIAG_PARAM@@@Z 0001a52c f   DIAG_State_Normal_Develop.obj
 0001:00009574       ?OnBnClickedButtonPrev@DIAG_State_Normal_Develop@@UAAJPAU_DIAG_PARAM@@@Z 0001a574 f   DIAG_State_Normal_Develop.obj
 0001:000095ac       ?OnBnClickedButtonNext@DIAG_State_Normal_Develop@@UAAJPAU_DIAG_PARAM@@@Z 0001a5ac f   DIAG_State_Normal_Develop.obj
 0001:000095e4       ?OnBnClickedButton1@DIAG_State_Normal_Develop@@UAAJPAU_DIAG_PARAM@@@Z 0001a5e4 f   DIAG_State_Normal_Develop.obj
 0001:0000964c       ?OnBnClickedButton2@DIAG_State_Normal_Develop@@UAAJPAU_DIAG_PARAM@@@Z 0001a64c f   DIAG_State_Normal_Develop.obj
 0001:000096b4       ?OnBnClickedButton3@DIAG_State_Normal_Develop@@UAAJPAU_DIAG_PARAM@@@Z 0001a6b4 f   DIAG_State_Normal_Develop.obj
 0001:0000971c       ?OnBnClickedButton4@DIAG_State_Normal_Develop@@UAAJPAU_DIAG_PARAM@@@Z 0001a71c f   DIAG_State_Normal_Develop.obj
 0001:00009784       ?OnBnClickedButton5@DIAG_State_Normal_Develop@@UAAJPAU_DIAG_PARAM@@@Z 0001a784 f   DIAG_State_Normal_Develop.obj
 0001:000097ec       ?OnBnClickedButton6@DIAG_State_Normal_Develop@@UAAJPAU_DIAG_PARAM@@@Z 0001a7ec f   DIAG_State_Normal_Develop.obj
 0001:00009854       ?OnBnClickedButton7@DIAG_State_Normal_Develop@@UAAJPAU_DIAG_PARAM@@@Z 0001a854 f   DIAG_State_Normal_Develop.obj
 0001:000098bc       ?OnReqDisplay@DIAG_State_Normal_Develop@@UAAJPAU_DIAG_PARAM@@IJ@Z 0001a8bc f   DIAG_State_Normal_Develop.obj
 0001:00009900       ?OnReqNonDisplay@DIAG_State_Normal_Develop@@UAAJPAU_DIAG_PARAM@@IJ@Z 0001a900 f   DIAG_State_Normal_Develop.obj
 0001:00009984       ?OnBnClickedButtonBack@DIAG_State_Normal_DevelopSingle@@UAAJPAU_DIAG_PARAM@@@Z 0001a984 f   DIAG_State_Normal_DevelopSingle.obj
 0001:000099c8       ?OnBnClickedButtonPrev@DIAG_State_Normal_DevelopSingle@@UAAJPAU_DIAG_PARAM@@@Z 0001a9c8 f   DIAG_State_Normal_DevelopSingle.obj
 0001:00009a00       ?OnBnClickedButtonNext@DIAG_State_Normal_DevelopSingle@@UAAJPAU_DIAG_PARAM@@@Z 0001aa00 f   DIAG_State_Normal_DevelopSingle.obj
 0001:00009a38       ?OnBnClickedButton1@DIAG_State_Normal_DevelopSingle@@UAAJPAU_DIAG_PARAM@@@Z 0001aa38 f   DIAG_State_Normal_DevelopSingle.obj
 0001:00009aa0       ?OnBnClickedButton2@DIAG_State_Normal_DevelopSingle@@UAAJPAU_DIAG_PARAM@@@Z 0001aaa0 f   DIAG_State_Normal_DevelopSingle.obj
 0001:00009b08       ?OnBnClickedButton3@DIAG_State_Normal_DevelopSingle@@UAAJPAU_DIAG_PARAM@@@Z 0001ab08 f   DIAG_State_Normal_DevelopSingle.obj
 0001:00009b70       ?OnBnClickedButton4@DIAG_State_Normal_DevelopSingle@@UAAJPAU_DIAG_PARAM@@@Z 0001ab70 f   DIAG_State_Normal_DevelopSingle.obj
 0001:00009bd8       ?OnBnClickedButton5@DIAG_State_Normal_DevelopSingle@@UAAJPAU_DIAG_PARAM@@@Z 0001abd8 f   DIAG_State_Normal_DevelopSingle.obj
 0001:00009c40       ?OnBnClickedButton6@DIAG_State_Normal_DevelopSingle@@UAAJPAU_DIAG_PARAM@@@Z 0001ac40 f   DIAG_State_Normal_DevelopSingle.obj
 0001:00009ca8       ?OnBnClickedButton7@DIAG_State_Normal_DevelopSingle@@UAAJPAU_DIAG_PARAM@@@Z 0001aca8 f   DIAG_State_Normal_DevelopSingle.obj
 0001:00009d10       ?OnReqDisplay@DIAG_State_Normal_DevelopSingle@@UAAJPAU_DIAG_PARAM@@IJ@Z 0001ad10 f   DIAG_State_Normal_DevelopSingle.obj
 0001:00009d54       ?OnReqNonDisplay@DIAG_State_Normal_DevelopSingle@@UAAJPAU_DIAG_PARAM@@IJ@Z 0001ad54 f   DIAG_State_Normal_DevelopSingle.obj
 0001:00009dd8       ?OnReqDisplay@DIAG_State_Normal_Hide@@UAAJPAU_DIAG_PARAM@@IJ@Z 0001add8 f   DIAG_State_Normal_Hide.obj
 0001:00009f00       ?OnBnClickedButtonBack@DIAG_State_Single@@UAAJPAU_DIAG_PARAM@@@Z 0001af00 f   DIAG_State_Single.obj
 0001:00009f88       ?OnReqDisplay@DIAG_State_Single@@UAAJPAU_DIAG_PARAM@@IJ@Z 0001af88 f   DIAG_State_Single.obj
 0001:0000a0d0       ?OnReqNonDisplay@DIAG_State_Single@@UAAJPAU_DIAG_PARAM@@IJ@Z 0001b0d0 f   DIAG_State_Single.obj
 0001:0000a160       ?GetRuntimeClass@CPlugininSystemInitConfDlg@@UBAPAUCRuntimeClass@@XZ 0001b160 f   PlugininSystemInitConfDlg.obj
 0001:0000a174       ??0CPlugininSystemInitConfDlg@@QAA@PB_WPAVCWnd@@I@Z 0001b174 f   PlugininSystemInitConfDlg.obj
 0001:0000a2d8       ??_ECPlugininSystemInitConfDlg@@UAAPAXI@Z 0001b2d8 f i  CIL library: CIL module
 0001:0000a2d8       ??_GCPlugininSystemInitConfDlg@@UAAPAXI@Z 0001b2d8 f i PlugininSystemInitConfDlg.obj
 0001:0000a304       ??1CPlugininSystemInitConfDlg@@UAA@XZ 0001b304 f   PlugininSystemInitConfDlg.obj
 0001:0000a430       ?GetMessageMap@CPlugininSystemInitConfDlg@@MBAPBUAFX_MSGMAP@@XZ 0001b430 f   PlugininSystemInitConfDlg.obj
 0001:0000a43c       ?OnInitDialog@CPlugininSystemInitConfDlg@@MAAHXZ 0001b43c f   PlugininSystemInitConfDlg.obj
 0001:0000a800       ?OnBnClickedButton1@CPlugininSystemInitConfDlg@@QAAXXZ 0001b800 f   PlugininSystemInitConfDlg.obj
 0001:0000a820       ?OnBnClickedButton2@CPlugininSystemInitConfDlg@@QAAXXZ 0001b820 f   PlugininSystemInitConfDlg.obj
 0001:0000a840       ?OnBnClickedButton1Ok@CPlugininSystemInitConfDlg@@QAAXXZ 0001b840 f   PlugininSystemInitConfDlg.obj
 0001:0000a860       ?OnCtlColor@CPlugininSystemInitConfDlg@@QAAPAUHBRUSH__@@PAVCDC@@PAVCWnd@@I@Z 0001b860 f   PlugininSystemInitConfDlg.obj
 0001:0000a88c       ?PostNcDestroy@CPlugininSystemInitConfDlg@@MAAXXZ 0001b88c f   PlugininSystemInitConfDlg.obj
 0001:0000a8e8       ?OnPaint@CPlugininSystemInitConfDlg@@QAAXXZ 0001b8e8 f   PlugininSystemInitConfDlg.obj
 0001:0000b4b0       ?OnTimer@CPlugininSystemInitConfDlg@@QAAXI@Z 0001c4b0 f   PlugininSystemInitConfDlg.obj
 0001:0000b4f0       ?EndModalState@CWnd@@UAAXXZ 0001c4f0 f i PlugininSystemInitConfDlg.obj
 0001:0000b4fc       ?BeginModalState@CWnd@@UAAXXZ 0001c4fc f i PlugininSystemInitConfDlg.obj
 0001:0000b508       ??1CPen@@UAA@XZ            0001c508 f i PlugininSystemInitConfDlg.obj
 0001:0000b51c       ??_GCPen@@UAAPAXI@Z        0001c51c f i PlugininSystemInitConfDlg.obj
 0001:0000b51c       ??_ECPen@@UAAPAXI@Z        0001c51c f i  CIL library: CIL module
 0001:0000b54c       ??1CBitmap@@UAA@XZ         0001c54c f i PlugininSystemInitConfDlg.obj
 0001:0000b560       ??_GCBitmap@@UAAPAXI@Z     0001c560 f i PlugininSystemInitConfDlg.obj
 0001:0000b560       ??_ECBitmap@@UAAPAXI@Z     0001c560 f i  CIL library: CIL module
 0001:0000b590       ?Create@CDialog@@UAAHIPAVCWnd@@@Z 0001c590 f i PlugininSystemInitConfDlg.obj
 0001:0000b59c       ??1CBrush@@UAA@XZ          0001c59c f i PlugininSystemInitConfDlg.obj
 0001:0000b5b0       ??_GCBrush@@UAAPAXI@Z      0001c5b0 f i PlugininSystemInitConfDlg.obj
 0001:0000b5b0       ??_ECBrush@@UAAPAXI@Z      0001c5b0 f i  CIL library: CIL module
 0001:0000b5e0       ?GetRuntimeClass@CPlugininSdInfodlg@@UBAPAUCRuntimeClass@@XZ 0001c5e0 f   PlugininSdInfodlg.obj
 0001:0000b5ec       ??_ECPlugininSdInfodlg@@UAAPAXI@Z 0001c5ec f i  CIL library: CIL module
 0001:0000b5ec       ??_GCPlugininSdInfodlg@@UAAPAXI@Z 0001c5ec f i PlugininSdInfodlg.obj
 0001:0000b618       ??1CPlugininSdInfodlg@@UAA@XZ 0001c618 f   PlugininSdInfodlg.obj
 0001:0000b6ac       ?DoDataExchange@CPlugininMemmanagerMypcDlg@@MAAXPAVCDataExchange@@@Z 0001c6ac f   PlugininMemmanagerMypcDlg.obj
 0001:0000b6ac       ?OnBnClickedButton2@CPlugininCamCameraPosDlg@@QAAXXZ 0001c6ac f   PlugininCamCameraPosDlg.obj
 0001:0000b6ac       ??1SYS_Struct@@QAA@XZ      0001c6ac f   syslibrary:SYS_Struct.obj
 0001:0000b6ac       ?OnSmResMainData@CDialogBase@@MAAXPBEK@Z 0001c6ac f   PlugininSdInfodlg.obj
 0001:0000b6ac       ?OnNaviPathfindNotifyRouteStatus@CDialogBase@@MAAXIJ@Z 0001c6ac f   PlugininSdInfodlg.obj
 0001:0000b6ac       ?OnNaviPathfindResStopRoute@CDialogBase@@MAAXIJ@Z 0001c6ac f   PlugininSdInfodlg.obj
 0001:0000b6ac       ?DoDataExchange@CPlugininTouchPanelTestDlg@@MAAXPAVCDataExchange@@@Z 0001c6ac f   PlugininTouchPanelTestDlg.obj
 0001:0000b6ac       ?DoDataExchange@CPlugininSramSaveDlg@@MAAXPAVCDataExchange@@@Z 0001c6ac f   PlugininSramSaveDlg.obj
 0001:0000b6ac       ?DoDataExchange@CPlugininMainMicomDlg@@MAAXPAVCDataExchange@@@Z 0001c6ac f   PlugininMainMicomDlg.obj
 0001:0000b6ac       ?DoDataExchange@CPlugininLogSwitchDlg@@MAAXPAVCDataExchange@@@Z 0001c6ac f   PlugininLogSwitchDlg.obj
 0001:0000b6ac       ?OnReqNonDisplay@CDialogBase@@MAAXIJ@Z 0001c6ac f   PlugininSdInfodlg.obj
 0001:0000b6ac       ?DoDataExchange@CPlugininTouchPanelConfDlg@@MAAXPAVCDataExchange@@@Z 0001c6ac f   PlugininTouchPanelConfDlg.obj
 0001:0000b6ac       ?DoDataExchange@CPlugininA1ScalerDlg@@MAAXPAVCDataExchange@@@Z 0001c6ac f   PlugininA1ScalerDlg.obj
 0001:0000b6ac       ?OnTelopClose_@CDialogBase@@MAAXI@Z 0001c6ac f   PlugininSdInfodlg.obj
 0001:0000b6ac       ?OnDvrNotifyOutputLogChanged@CDialogBase@@MAAXIJ@Z 0001c6ac f   PlugininSdInfodlg.obj
 0001:0000b6ac       ?DoDataExchange@CPlugininFileSystemDlg@@MAAXPAVCDataExchange@@@Z 0001c6ac f   PlugininFileSystemDlg.obj
 0001:0000b6ac       ?DoDataExchange@CPlugininSdInfodlg@@MAAXPAVCDataExchange@@@Z 0001c6ac f   PlugininSdInfodlg.obj
 0001:0000b6ac       ?DoDataExchange@CPlugininUSBSignalDlg@@MAAXPAVCDataExchange@@@Z 0001c6ac f   PlugininUSBSignalDlg.obj
 0001:0000b6ac       ?DoDataExchange@CPlugininMemmanagerCouponInfoDlg@@MAAXPAVCDataExchange@@@Z 0001c6ac f   PlugininMemmanagerCouponInfoDlg.obj
 0001:0000b6ac       ?DoDataExchange@CPlugininLevelMeterDlg@@MAAXPAVCDataExchange@@@Z 0001c6ac f   PlugininLevelMeterDlg.obj
 0001:0000b6ac       ?OnResMasterImageWrite@CDialogBase@@MAAXIJ@Z 0001c6ac f   PlugininSdInfodlg.obj
 0001:0000b6ac       ?DoDataExchange@CPlugininDemoModeDlg@@MAAXPAVCDataExchange@@@Z 0001c6ac f   PlugininDemoModeDlg.obj
 0001:0000b6ac       ?DoDataExchange@CPlugininLocationInfoDlg@@MAAXPAVCDataExchange@@@Z 0001c6ac f   PlugininLocationInfoDlg.obj
 0001:0000b6ac       ?DoDataExchange@CPlugininFramConfDlg@@MAAXPAVCDataExchange@@@Z 0001c6ac f   PlugininFramConfDlg.obj
 0001:0000b6ac       ?DoDataExchange@CWnd@@MAAXPAVCDataExchange@@@Z 0001c6ac f   PlugininSystemInitConfDlg.obj
 0001:0000b6ac       ?DoDataExchange@CPlugininDriveRecordingDlg@@MAAXPAVCDataExchange@@@Z 0001c6ac f   PlugininDriveRecordingDlg.obj
 0001:0000b6ac       ?DoDataExchange@CPlugininAudioDlg@@MAAXPAVCDataExchange@@@Z 0001c6ac f   PlugininAudioDlg.obj
 0001:0000b6ac       ?DoDataExchange@CPlugininEtcDlg@@MAAXPAVCDataExchange@@@Z 0001c6ac f   PlugininEtcDlg.obj
 0001:0000b6ac       ?DoDataExchange@CPlugininRegistrationPointDlg@@MAAXPAVCDataExchange@@@Z 0001c6ac f   PlugininRegistrationPointDlg.obj
 0001:0000b6ac       ?OnBnClickedButtonPrev@CPlugininCanDtcDlg@@QAAXXZ 0001c6ac f   PlugininCanDtcDlg.obj
 0001:0000b6ac       ?DoDataExchange@CPlugininSystemDlg@@MAAXPAVCDataExchange@@@Z 0001c6ac f   PlugininSystemDlg.obj
 0001:0000b6ac       ?DoDataExchange@CPlugininSdHiddenInfoDlg@@MAAXPAVCDataExchange@@@Z 0001c6ac f   PlugininSdHiddenInfoDlg.obj
 0001:0000b6ac       ?DoDataExchange@CPlugininCamCameraPosDlg@@MAAXPAVCDataExchange@@@Z 0001c6ac f   PlugininCamCameraPosDlg.obj
 0001:0000b6ac       ?DoDataExchange@CPlugininMemmanagerCommon@@MAAXPAVCDataExchange@@@Z 0001c6ac f   PlugininMemmanagerCommon.obj
 0001:0000b6ac       ?OnNaviPathfindResExecuteRoute@CDialogBase@@MAAXIJ@Z 0001c6ac f   PlugininSdInfodlg.obj
 0001:0000b6ac       ?DoDataExchange@CPlugininCamCameraDataInfoDlg@@MAAXPAVCDataExchange@@@Z 0001c6ac f   PlugininCamCameraDataInfoDlg.obj
 0001:0000b6ac       ?DoDataExchange@CPlugininGyroDlg@@MAAXPAVCDataExchange@@@Z 0001c6ac f   PlugininGyroDlg.obj
 0001:0000b6ac       ?OnDvrResAcquireSettingValue@CDialogBase@@MAAXIJ@Z 0001c6ac f   PlugininSdInfodlg.obj
 0001:0000b6ac       ?DoDataExchange@CPlugininMemmanagerAadDlg@@MAAXPAVCDataExchange@@@Z 0001c6ac f   PlugininMemmanagerAadDlg.obj
 0001:0000b6ac       ?DoDataExchange@CPlugininNaviPathfindDlg@@MAAXPAVCDataExchange@@@Z 0001c6ac f   PlugininNaviPathfindDlg.obj
 0001:0000b6ac       ?DoDataExchange@CPlugininMasterImageWritingDlg@@MAAXPAVCDataExchange@@@Z 0001c6ac f   PlugininMasterImageWritingDlg.obj
 0001:0000b6ac       ?DoDataExchange@CPlugininMemmanagerMapInfoDlg@@MAAXPAVCDataExchange@@@Z 0001c6ac f   PlugininMemmanagerMapInfoDlg.obj
 0001:0000b6ac       ?DoDataExchange@CPlugininWarnigSoundDlg@@MAAXPAVCDataExchange@@@Z 0001c6ac f   PlugininWarnigSoundDlg.obj
 0001:0000b6ac       ?DoDataExchange@CPlugininGPSRecvState@@MAAXPAVCDataExchange@@@Z 0001c6ac f   PlugininGPSRecvState.obj
 0001:0000b6ac       ?OnBnClicked@CPlugininAudioRecPowerFlickerHistoryDlg@@MAAXI@Z 0001c6ac f   PlugininAudioRecPowerFlickerHistoryDlg.obj
 0001:0000b6ac       ?DoDataExchange@CPlugininCarPlaySwitchDlg@@MAAXPAVCDataExchange@@@Z 0001c6ac f   PlugininCarPlaySwitchDlg.obj
 0001:0000b6ac       ?DoDataExchange@CPlugininInternaviDlg@@MAAXPAVCDataExchange@@@Z 0001c6ac f   PlugininInternaviDlg.obj
 0001:0000b6ac       ?DoDataExchange@CPlugininManagementMainDlg@@MAAXPAVCDataExchange@@@Z 0001c6ac f   PlugininManagementMainDlg.obj
 0001:0000b6ac       ?OnTelopClose_@CPlugininMemmanagerMypcDlg@@MAAXI@Z 0001c6ac f   PlugininMemmanagerMypcDlg.obj
 0001:0000b6ac       ?DoDataExchange@CPlugininSteeringSwCheckDlg@@MAAXPAVCDataExchange@@@Z 0001c6ac f   PlugininSteeringSwCheckDlg.obj
 0001:0000b6ac       ?DoDataExchange@CPlugininVupHistdlg@@MAAXPAVCDataExchange@@@Z 0001c6ac f   PlugininVupHistdlg.obj
 0001:0000b6ac       ?DoDataExchange@CPlugininMonitorEnduranceTestDlg@@MAAXPAVCDataExchange@@@Z 0001c6ac f   PlugininMonitorEnduranceTestDlg.obj
 0001:0000b6ac       ?DoDataExchange@CPlugininA1RecordingDlg@@MAAXPAVCDataExchange@@@Z 0001c6ac f   PlugininA1RecordingDlg.obj
 0001:0000b6ac       ?DoDataExchange@CPlugininSystemInitDlg@@MAAXPAVCDataExchange@@@Z 0001c6ac f   PlugininSystemInitDlg.obj
 0001:0000b6ac       ?DoDataExchange@CPlugininAudioRecHistoryDlg@@MAAXPAVCDataExchange@@@Z 0001c6ac f   PlugininAudioRecHistoryDlg.obj
 0001:0000b6ac       ?DoDataExchange@CPlugininExBoxTestDlg@@MAAXPAVCDataExchange@@@Z 0001c6ac f   PlugininExBoxTestDlg.obj
 0001:0000b6ac       ?DoDataExchange@CPlugininCamDataIndSetDlg@@MAAXPAVCDataExchange@@@Z 0001c6ac f   PlugininCamDataIndSetDlg.obj
 0001:0000b6ac       ?DoDataExchange@CPlugininHMILogCfgDlg@@MAAXPAVCDataExchange@@@Z 0001c6ac f   PlugininHMILogCfgDlg.obj
 0001:0000b6ac       ?DoDataExchange@CPlugininCanSettingDlg@@MAAXPAVCDataExchange@@@Z 0001c6ac f   PlugininCanSettingDlg.obj
 0001:0000b6ac       ?DoDataExchange@CPlugininLocationDiagDlg@@MAAXPAVCDataExchange@@@Z 0001c6ac f   PlugininLocationDiagDlg.obj
 0001:0000b6ac       ?DoDataExchange@CPlugininAudioCddbHistoryDlg@@MAAXPAVCDataExchange@@@Z 0001c6ac f   PlugininAudioCddbHistoryDlg.obj
 0001:0000b6ac       ?DoDataExchange@CPlugininMemManagerDlg@@MAAXPAVCDataExchange@@@Z 0001c6ac f   PlugininMemManagerDlg.obj
 0001:0000b6ac       ?DoDataExchange@CPlugininNandTestStatDlg@@MAAXPAVCDataExchange@@@Z 0001c6ac f   PlugininNandTestStatDlg.obj
 0001:0000b6ac       ?OnBnClickedButtonNext@CPlugininCanDtcDlg@@QAAXXZ 0001c6ac f   PlugininCanDtcDlg.obj
 0001:0000b6ac       ?DoDataExchange@CPlugininIPerfDlg@@MAAXPAVCDataExchange@@@Z 0001c6ac f   PlugininIPerfDlg.obj
 0001:0000b6ac       ?DoDataExchange@CPlugininCanDtcDlg@@MAAXPAVCDataExchange@@@Z 0001c6ac f   PlugininCanDtcDlg.obj
 0001:0000b6ac       ?DoDataExchange@CPlugininCameraSettingDlg@@MAAXPAVCDataExchange@@@Z 0001c6ac f   PlugininCameraSettingDlg.obj
 0001:0000b6ac       ?DoDataExchange@CPlugininDebugDispDlg@@MAAXPAVCDataExchange@@@Z 0001c6ac f   PlugininDebugDispDlg.obj
 0001:0000b6ac       ?DoDataExchange@CPlugininSystemManagerDlg@@MAAXPAVCDataExchange@@@Z 0001c6ac f   PlugininSystemManagerDlg.obj
 0001:0000b6ac       ??0SYS_Struct@@QAA@XZ      0001c6ac f   syslibrary:SYS_Struct.obj
 0001:0000b6ac       ?DoDataExchange@CPlugininMapDataCheckDlg@@MAAXPAVCDataExchange@@@Z 0001c6ac f   PlugininMapDataCheckDlg.obj
 0001:0000b6ac       ?DoDataExchange@CPlugininDealerModeErrorLogDlg@@MAAXPAVCDataExchange@@@Z 0001c6ac f   PlugininDealerModeErrorLogDlg.obj
 0001:0000b6ac       ?OnSysCommand@CDiagDlg@@QAAXIJ@Z 0001c6ac f   DiagDlg.obj
 0001:0000b6ac       ?DoDataExchange@CPlugininMapUpdateReminderDlg@@MAAXPAVCDataExchange@@@Z 0001c6ac f   PlugininMapUpdateRemDlg.obj
 0001:0000b6ac       ?OnBnClicked@CPlugininAudioCddbHistoryDlg@@MAAXI@Z 0001c6ac f   PlugininAudioCddbHistoryDlg.obj
 0001:0000b6ac       ?DoDataExchange@CPlugininEMMCErrorLogDlg@@MAAXPAVCDataExchange@@@Z 0001c6ac f   PlugininEMMCErrorLogDlg.obj
 0001:0000b6ac       ?DoDataExchange@CPlugininAccelerometerCalibrationDlg@@MAAXPAVCDataExchange@@@Z 0001c6ac f   PlugininAccelerometerCalibrationDlg.obj
 0001:0000b6ac       ?DoDataExchange@CPlugininCanCameraParamaterDlg@@MAAXPAVCDataExchange@@@Z 0001c6ac f   PlugininCanCameraParamaterDlg.obj
 0001:0000b6ac       ?DoDataExchange@CPlugininCameraPosDlg@@MAAXPAVCDataExchange@@@Z 0001c6ac f   PlugininCameraPosDlg.obj
 0001:0000b6ac       ?DoDataExchange@CPlugininMemmanagerMapDlg@@MAAXPAVCDataExchange@@@Z 0001c6ac f   PlugininMemmanagerMapDlg.obj
 0001:0000b6ac       ?DoDataExchange@CPlugininBtTestDlg@@MAAXPAVCDataExchange@@@Z 0001c6ac f   PlugininBtTestDlg.obj
 0001:0000b6ac       ?DoDataExchange@CPlugininTouchPanelAdjustDlg@@MAAXPAVCDataExchange@@@Z 0001c6ac f   PlugininTouchPanelAdjustDlg.obj
 0001:0000b6ac       ?OnMuNotifyDispStop@CDialogBase@@MAAXIJ@Z 0001c6ac f   DialogEx.obj
 0001:0000b6ac       ?OnDvrResSwitchRearCameraDisp@CDialogBase@@MAAXIJ@Z 0001c6ac f   PlugininSdInfodlg.obj
 0001:0000b6ac       ?DoDataExchange@CPlugininMapIndDlg@@MAAXPAVCDataExchange@@@Z 0001c6ac f   PlugininMapIndDlg.obj
 0001:0000b6ac       ?DoDataExchange@CPlugininAudioCddbManagerDlg@@MAAXPAVCDataExchange@@@Z 0001c6ac f   PlugininAudioCddbManagerDlg.obj
 0001:0000b6ac       ?OnResSystemEnd@CDialogBase@@MAAXIJ@Z 0001c6ac f   PlugininSdInfodlg.obj
 0001:0000b6ac       ?DoDataExchange@CPlugininCameraDataInfoDlg@@MAAXPAVCDataExchange@@@Z 0001c6ac f   PlugininCameraDataInfoDlg.obj
 0001:0000b6ac       ?DoDataExchange@CPlugininVicsLv3Dlg@@MAAXPAVCDataExchange@@@Z 0001c6ac f   PlugininVicsLv3Dlg.obj
 0001:0000b6ac       ?DoDataExchange@CPlugininFactoryWriteDataListDlg@@MAAXPAVCDataExchange@@@Z 0001c6ac f   PlugininFactoryWriteDataListDlg.obj
 0001:0000b6ac       ?DoDataExchange@CPlugininEtcLogDlg@@MAAXPAVCDataExchange@@@Z 0001c6ac f   PlugininEtcLogDlg.obj
 0001:0000b6ac       ?DoDataExchange@CPlugininMemmanagerMapUpdatePartsDlg@@MAAXPAVCDataExchange@@@Z 0001c6ac f   PlugininMemmanagerMapUpdatePartsDlg.obj
 0001:0000b6ac       ?Serialize@CObject@@UAAXAAVCArchive@@@Z 0001c6ac f   DIAG_PageManager.obj
 0001:0000b6ac       ?OnBnClickedButton2@CPlugininCameraPosDlg@@QAAXXZ 0001c6ac f   PlugininCameraPosDlg.obj
 0001:0000b6ac       ?DoDataExchange@CPlugininDateTimeDlg@@MAAXPAVCDataExchange@@@Z 0001c6ac f   PlugininDateTimeDlg.obj
 0001:0000b6ac       ?DoDataExchange@CPlugininCameraDCompanySettingDlg@@MAAXPAVCDataExchange@@@Z 0001c6ac f   PlugininCameraDCompanySettingDlg.obj
 0001:0000b6ac       ?DoDataExchange@CPlugininGPSSatelliteState@@MAAXPAVCDataExchange@@@Z 0001c6ac f   PlugininGPSSatelliteState.obj
 0001:0000b6ac       ?DoDataExchange@CPlugininMapUpdateDlg@@MAAXPAVCDataExchange@@@Z 0001c6ac f   PlugininMapUpdateDlg.obj
 0001:0000b6ac       ?OnBnClicked@CPlugininAudioRecHistoryDlg@@MAAXI@Z 0001c6ac f   PlugininAudioRecHistoryDlg.obj
 0001:0000b6ac       ?DoDataExchange@CPlugininConeectNoSettingDlg@@MAAXPAVCDataExchange@@@Z 0001c6ac f   PlugininConeectNoSettingDlg.obj
 0001:0000b6ac       ?DoDataExchange@CPlugininOpeningImageWriteDlg@@MAAXPAVCDataExchange@@@Z 0001c6ac f   PlugininOpeningImageWriteDlg.obj
 0001:0000b6ac       ?DoDataExchange@CDiagDlg@@MAAXPAVCDataExchange@@@Z 0001c6ac f   DiagDlg.obj
 0001:0000b6ac       ?DoDataExchange@CPlugininBuyUpdateDayUpdateDlg@@MAAXPAVCDataExchange@@@Z 0001c6ac f   PlugininBuyUpdateDayUpdateDlg.obj
 0001:0000b6ac       ?DoDataExchange@CPlugininMovingRecordDlg@@MAAXPAVCDataExchange@@@Z 0001c6ac f   PlugininMovingRecordDlg.obj
 0001:0000b6ac       ?OnHmiResAudioInitalize@CDialogBase@@MAAXIJ@Z 0001c6ac f   DialogEx.obj
 0001:0000b6ac       ?DoDataExchange@CPlugininMemmanagerMapUpdateFreeDlg@@MAAXPAVCDataExchange@@@Z 0001c6ac f   PlugininMemmanagerMapUpdateFreeDlg.obj
 0001:0000b6ac       ?DoDataExchange@CPlugininMemmanagerCameraDlg@@MAAXPAVCDataExchange@@@Z 0001c6ac f   PlugininMemmanagerCameraDlg.obj
 0001:0000b6ac       ?DoDataExchange@CPlugininSdCaptureDlg@@MAAXPAVCDataExchange@@@Z 0001c6ac f   PlugininSdCaptureDlg.obj
 0001:0000b6ac       ?OnResMapCouponInfo@CDialogBase@@UAAXIJ@Z 0001c6ac f   PlugininSdInfodlg.obj
 0001:0000b6ac       ?DoDataExchange@CPlugininTemperatureDlg@@MAAXPAVCDataExchange@@@Z 0001c6ac f   PlugininTemperatureDlg.obj
 0001:0000b6ac       ?DoDataExchange@CPlugininFactoryDataWriteDlg@@MAAXPAVCDataExchange@@@Z 0001c6ac f   PlugininFactoryDataWriteDlg.obj
 0001:0000b6ac       ?OnNotifyMasterImageWriteStatus@CDialogBase@@MAAXIJ@Z 0001c6ac f   PlugininSdInfodlg.obj
 0001:0000b6ac       ?DoDataExchange@CPlugininCameraDataWriteDlg@@MAAXPAVCDataExchange@@@Z 0001c6ac f   PlugininCameraDataWriteDlg.obj
 0001:0000b6ac       ?DoDataExchange@CPlugininSimulationDlg@@MAAXPAVCDataExchange@@@Z 0001c6ac f   PlugininSimulationDlg.obj
 0001:0000b6ac       ?OnNaviPathfindResReadRouteFile@CDialogBase@@MAAXIJ@Z 0001c6ac f   PlugininSdInfodlg.obj
 0001:0000b6ac       ?DoDataExchange@CPlugininAutoMapScreenDlg@@MAAXPAVCDataExchange@@@Z 0001c6ac f   PlugininAutoMapScreenDlg.obj
 0001:0000b6ac       ?DoDataExchange@CPlugininMemoryClearDlg@@MAAXPAVCDataExchange@@@Z 0001c6ac f   PlugininMemoryClearDlg.obj
 0001:0000b6ac       ?DoDataExchange@CPlugininAudioRecPowerFlickerHistoryDlg@@MAAXPAVCDataExchange@@@Z 0001c6ac f   PlugininAudioRecPowerFlickerHistoryDlg.obj
 0001:0000b6ac       ?DoDataExchange@CPlugininSpkParamWriteDlg@@MAAXPAVCDataExchange@@@Z 0001c6ac f   PlugininSpkParamWriteDlg.obj
 0001:0000b6ac       ?DoDataExchange@CPlugininCameraDCompanyVersionDlg@@MAAXPAVCDataExchange@@@Z 0001c6ac f   PlugininCameraDCompanyVersionDlg.obj
 0001:0000b6ac       ?DoDataExchange@CPlugininVersionDlg@@MAAXPAVCDataExchange@@@Z 0001c6ac f   PlugininVersionDlg.obj
 0001:0000b6ac       ?DoDataExchange@CPlugininDriveRecording17Dlg@@MAAXPAVCDataExchange@@@Z 0001c6ac f   PlugininDriveRecording17Dlg.obj
 0001:0000b6ac       ?DoDataExchange@CPlugininCameraDCompanyHoseiDlg@@MAAXPAVCDataExchange@@@Z 0001c6ac f   PlugininCameraDCompanyHoseiDlg.obj
 0001:0000b6ac       ?DoDataExchange@CPlugininOperationLogDlg@@MAAXPAVCDataExchange@@@Z 0001c6ac f   PlugininOperationLogDlg.obj
 0001:0000b6ac       ?DoDataExchange@CPlugininHmiDlg@@MAAXPAVCDataExchange@@@Z 0001c6ac f   PlugininHmiDlg.obj
 0001:0000b6ac       ?OnLocResSetCsvNoreverse@CDialogBase@@MAAXIJ@Z 0001c6ac f   PlugininSdInfodlg.obj
 0001:0000b6ac       ?DoDataExchange@CPlugininLogDlg@@MAAXPAVCDataExchange@@@Z 0001c6ac f   PlugininLogDlg.obj
 0001:0000b6ac       ?DoDataExchange@CDialogBase@@MAAXPAVCDataExchange@@@Z 0001c6ac f   DialogEx.obj
 0001:0000b6ac       ?DoDataExchange@CPlugininUSBDeviceCheckDlg@@MAAXPAVCDataExchange@@@Z 0001c6ac f   PlugininUSBDeviceCheckDlg.obj
 0001:0000b6ac       ?DoDataExchange@CPlugininVoiceGuidanceTestDlg@@MAAXPAVCDataExchange@@@Z 0001c6ac f   PlugininVoiceGuidanceTestDlg.obj
 0001:0000b6ac       ?DoDataExchange@CPlugininFlicAdjustDlg@@MAAXPAVCDataExchange@@@Z 0001c6ac f   PlugininFlicAdjustDlg.obj
 0001:0000b6ac       ?DoDataExchange@CPlugininInstallKeyDlg@@MAAXPAVCDataExchange@@@Z 0001c6ac f   PlugininInstallKeyDlg.obj
 0001:0000b6ac       ?OnNaviPathfindResRouteStudyInfo@CDialogBase@@MAAXIJ@Z 0001c6ac f   PlugininSdInfodlg.obj
 0001:0000b6ac       ?DoDataExchange@CPlugininAudioHistoryBaseDlg@@MAAXPAVCDataExchange@@@Z 0001c6ac f   PlugininAudioHistoryBaseDlg.obj
 0001:0000b6ac       ?DoDataExchange@CPlugininSecurityOffDlg@@MAAXPAVCDataExchange@@@Z 0001c6ac f   PlugininSecurityOffDlg.obj
 0001:0000b6ac       ?DoDataExchange@CPlugininVupVersionInfo@@MAAXPAVCDataExchange@@@Z 0001c6ac f   PlugininVupVersionInfo.obj
 0001:0000b6ac       ?OnBnClicked@CPlugininAudioHistoryBaseDlg@@MAAXI@Z 0001c6ac f   PlugininAudioHistoryBaseDlg.obj
 0001:0000b6ac       ?DoDataExchange@CPlugininDtvEdIdDlg@@MAAXPAVCDataExchange@@@Z 0001c6ac f   PlugininDtvEdIdDlg.obj
 0001:0000b6ac       ?DoDataExchange@CPlugininGradationDlg@@MAAXPAVCDataExchange@@@Z 0001c6ac f   PlugininGradationDlg.obj
 0001:0000b6ac       ?DoDataExchange@CPlugininSystemInitConfDlg@@MAAXPAVCDataExchange@@@Z 0001c6ac f   PlugininSystemInitConfDlg.obj
 0001:0000b6ac       ?DoDataExchange@CPlugininMemmanagerDriveDlg@@MAAXPAVCDataExchange@@@Z 0001c6ac f   PlugininMemmanagerDriveDlg.obj
 0001:0000b6ac       ?DoDataExchange@CPlugininVersionUpDlg@@MAAXPAVCDataExchange@@@Z 0001c6ac f   PlugininVersionUpDlg.obj
 0001:0000b6ac       ?OnDvrResVoltageSetting@CDialogBase@@MAAXIJ@Z 0001c6ac f   PlugininSdInfodlg.obj
 0001:0000b6b0       ?GetMessageMap@CPlugininSdInfodlg@@MBAPBUAFX_MSGMAP@@XZ 0001c6b0 f   PlugininSdInfodlg.obj
 0001:0000b6c4       ?UpdateSdInfo@CPlugininSdInfodlg@@IAAXXZ 0001c6c4 f   PlugininSdInfodlg.obj
 0001:0000bc0c       ?OnInitDialog@CPlugininSdInfodlg@@MAAHXZ 0001cc0c f   PlugininSdInfodlg.obj
 0001:0000c25c       ?OnCtlColor@CPlugininSdInfodlg@@QAAPAUHBRUSH__@@PAVCDC@@PAVCWnd@@I@Z 0001d25c f   PlugininSdInfodlg.obj
 0001:0000c2ec       ?Append@?$CSimpleStringT@_W$0A@@ATL@@QAAXPB_WH@Z 0001d2ec f i PlugininSdInfodlg.obj
 0001:0000c384       ?HoldLastDialog@CDialogBase@@UAA_NXZ 0001d384 f i PlugininSdInfodlg.obj
 0001:0000c38c       ?GetRuntimeClass@CPlugininVupHistdlg@@UBAPAUCRuntimeClass@@XZ 0001d38c f   PlugininVupHistdlg.obj
 0001:0000c398       ??_ECPlugininVupHistdlg@@UAAPAXI@Z 0001d398 f i  CIL library: CIL module
 0001:0000c398       ??_GCPlugininVupHistdlg@@UAAPAXI@Z 0001d398 f i PlugininVupHistdlg.obj
 0001:0000c3c4       ??1CPlugininVupHistdlg@@UAA@XZ 0001d3c4 f   PlugininVupHistdlg.obj
 0001:0000c428       ?GetMessageMap@CPlugininVupHistdlg@@MBAPBUAFX_MSGMAP@@XZ 0001d428 f   PlugininVupHistdlg.obj
 0001:0000c43c       ?OnInitDialog@CPlugininVupHistdlg@@MAAHXZ 0001d43c f   PlugininVupHistdlg.obj
 0001:0000c604       ?EMMCIsSimulatedSLC@@YAJPAX_N@Z 0001d604 f i PlugininNandTestStatDlg.obj
 0001:0000c7f8       ?GetRuntimeClass@CPlugininNandTestStatDlg@@UBAPAUCRuntimeClass@@XZ 0001d7f8 f   PlugininNandTestStatDlg.obj
 0001:0000c80c       ??0CPlugininNandTestStatDlg@@QAA@PAKPAVCWnd@@@Z 0001d80c f   PlugininNandTestStatDlg.obj
 0001:0000ca14       ??_ECPlugininNandTestStatDlg@@UAAPAXI@Z 0001da14 f i  CIL library: CIL module
 0001:0000ca14       ??_GCPlugininNandTestStatDlg@@UAAPAXI@Z 0001da14 f i PlugininNandTestStatDlg.obj
 0001:0000ca40       ??1CPlugininNandTestStatDlg@@UAA@XZ 0001da40 f   PlugininNandTestStatDlg.obj
 0001:0000cc2c       ?GetMessageMap@CPlugininNandTestStatDlg@@MBAPBUAFX_MSGMAP@@XZ 0001dc2c f   PlugininNandTestStatDlg.obj
 0001:0000cd4c       ?InitSdInfo@CPlugininNandTestStatDlg@@IAAXXZ 0001dd4c f   PlugininNandTestStatDlg.obj
 0001:0000cebc       ?UpdateSdInfo@CPlugininNandTestStatDlg@@IAAXXZ 0001debc f   PlugininNandTestStatDlg.obj
 0001:0000d194       ?UpdateVerify@CPlugininNandTestStatDlg@@IAAXXZ 0001e194 f   PlugininNandTestStatDlg.obj
 0001:0000d268       ?OnInitDialog@CPlugininNandTestStatDlg@@MAAHXZ 0001e268 f   PlugininNandTestStatDlg.obj
 0001:0000dbb8       ?OnBnClickedButtonStop@CPlugininNandTestStatDlg@@QAAXXZ 0001ebb8 f   PlugininNandTestStatDlg.obj
 0001:0000dbd0       ?OnBnClickedOk@CPlugininNandTestStatDlg@@QAAXXZ 0001ebd0 f   PlugininNandTestStatDlg.obj
 0001:0000dbf0       ?OnBnClickedButtonSingleR@CPlugininNandTestStatDlg@@QAAXXZ 0001ebf0 f   PlugininNandTestStatDlg.obj
 0001:0000dc24       ?OnBnClickedButtonMultiR@CPlugininNandTestStatDlg@@QAAXXZ 0001ec24 f   PlugininNandTestStatDlg.obj
 0001:0000dc58       ?OnTimer@CPlugininNandTestStatDlg@@QAAXI@Z 0001ec58 f   PlugininNandTestStatDlg.obj
 0001:0000dd18       ?OpenDevice@CPlugininNandTestStatDlg@@IAAJXZ 0001ed18 f   PlugininNandTestStatDlg.obj
 0001:0000de48       ?StartTest@CPlugininNandTestStatDlg@@IAAXXZ 0001ee48 f   PlugininNandTestStatDlg.obj
 0001:0000dfa0       ?StopTest@CPlugininNandTestStatDlg@@IAAXXZ 0001efa0 f   PlugininNandTestStatDlg.obj
 0001:0000e0b0       ?OnDestroy@CPlugininNandTestStatDlg@@QAAXXZ 0001f0b0 f   PlugininNandTestStatDlg.obj
 0001:0000e0dc       ?OnBnClickedButton1SingleR2@CPlugininNandTestStatDlg@@QAAXXZ 0001f0dc f   PlugininNandTestStatDlg.obj
 0001:0000e200       ?OnBnClickedButtonMultiR2@CPlugininNandTestStatDlg@@QAAXXZ 0001f200 f   PlugininNandTestStatDlg.obj
 0001:0000e324       ?PreTranslateMessage@CPlugininNandTestStatDlg@@MAAHPAUtagMSG@@@Z 0001f324 f   PlugininNandTestStatDlg.obj
 0001:0000e408       ?Empty@?$CSimpleStringT@_W$0A@@ATL@@QAAXXZ 0001f408 f i PlugininNandTestStatDlg.obj
 0001:0000e4a8       ?SetString@?$CSimpleStringT@_W$0A@@ATL@@QAAXPB_WH@Z 0001f4a8 f i PlugininNandTestStatDlg.obj
 0001:0000e544       ?AppendFormat@?$CStringT@_WV?$StrTraitMFC@_WV?$ChTraitsOS@_W@ATL@@@@@ATL@@QAAXPB_WZZ 0001f544 f i PlugininNandTestStatDlg.obj
 0001:0000e5c8       ?GetRuntimeClass@CPlugininFramConfDlg@@UBAPAUCRuntimeClass@@XZ 0001f5c8 f   PlugininFramConfDlg.obj
 0001:0000e5dc       ??0CPlugininFramConfDlg@@QAA@PAVCWnd@@@Z 0001f5dc f   PlugininFramConfDlg.obj
 0001:0000e6a0       ??_ECPlugininFramConfDlg@@UAAPAXI@Z 0001f6a0 f i  CIL library: CIL module
 0001:0000e6a0       ??_GCPlugininFramConfDlg@@UAAPAXI@Z 0001f6a0 f i PlugininFramConfDlg.obj
 0001:0000e6cc       ??1CPlugininFramConfDlg@@UAA@XZ 0001f6cc f   PlugininFramConfDlg.obj
 0001:0000e7a0       ?GetMessageMap@CPlugininFramConfDlg@@MBAPBUAFX_MSGMAP@@XZ 0001f7a0 f   PlugininFramConfDlg.obj
 0001:0000e7ac       ?OnInitDialog@CPlugininFramConfDlg@@MAAHXZ 0001f7ac f   PlugininFramConfDlg.obj
 0001:0000e954       ?OnBnClickedButton1@CPlugininFramConfDlg@@QAAXXZ 0001f954 f   PlugininFramConfDlg.obj
 0001:0000e980       ?OnBnClickedButton12@CPlugininFramConfDlg@@QAAXXZ 0001f980 f   PlugininFramConfDlg.obj
 0001:0000e9bc       ?OnPaint@CPlugininFramConfDlg@@QAAXXZ 0001f9bc f   PlugininFramConfDlg.obj
 0001:0000f0a4       ?OnBlockChanged@CPlugininFramConfDlg@@AAAXXZ 000200a4 f   PlugininFramConfDlg.obj
 0001:0000f154       ?OnTimer@CPlugininFramConfDlg@@QAAXI@Z 00020154 f   PlugininFramConfDlg.obj
 0001:0000f1a4       ?DrawTextW@CDC@@UAAHPB_WHPAUtagRECT@@I@Z 000201a4 f i PlugininFramConfDlg.obj
 0001:0000f1c4       ?GetRuntimeClass@CPlugininGradationDlg@@UBAPAUCRuntimeClass@@XZ 000201c4 f   PlugininGradationDlg.obj
 0001:0000f1d0       ??_ECPlugininGradationDlg@@UAAPAXI@Z 000201d0 f i  CIL library: CIL module
 0001:0000f1d0       ??_GCPlugininGradationDlg@@UAAPAXI@Z 000201d0 f i PlugininGradationDlg.obj
 0001:0000f200       ?GetMessageMap@CPlugininGradationDlg@@MBAPBUAFX_MSGMAP@@XZ 00020200 f   PlugininGradationDlg.obj
 0001:0000f20c       ?OnInitDialog@CPlugininGradationDlg@@MAAHXZ 0002020c f   PlugininGradationDlg.obj
 0001:0000f2a4       ?OnPaint@CPlugininGradationDlg@@QAAXXZ 000202a4 f   PlugininGradationDlg.obj
 0001:0000f7e8       ?OnLButtonDown@CPlugininGradationDlg@@UAAXIVCPoint@@@Z 000207e8 f   PlugininGradationDlg.obj
 0001:0000f8c4       ?OnTimer@CPlugininGradationDlg@@QAAXI@Z 000208c4 f   PlugininGradationDlg.obj
 0001:0000f904       ?GetRuntimeClass@CPlugininLevelMeterDlg@@UBAPAUCRuntimeClass@@XZ 00020904 f   PlugininLevelMeterDlg.obj
 0001:0000f910       ??_GCPlugininLevelMeterDlg@@UAAPAXI@Z 00020910 f i PlugininLevelMeterDlg.obj
 0001:0000f910       ??_ECPlugininLevelMeterDlg@@UAAPAXI@Z 00020910 f i  CIL library: CIL module
 0001:0000f93c       ??1CPlugininLevelMeterDlg@@UAA@XZ 0002093c f   PlugininLevelMeterDlg.obj
 0001:0000f9b8       ?GetMessageMap@CPlugininLevelMeterDlg@@MBAPBUAFX_MSGMAP@@XZ 000209b8 f   PlugininLevelMeterDlg.obj
 0001:0000f9c4       ?OnInitDialog@CPlugininLevelMeterDlg@@MAAHXZ 000209c4 f   PlugininLevelMeterDlg.obj
 0001:0000fcc4       ?OnCtlColor@CPlugininLevelMeterDlg@@QAAPAUHBRUSH__@@PAVCDC@@PAVCWnd@@I@Z 00020cc4 f   PlugininLevelMeterDlg.obj
 0001:0000fef0       ?OnBnClickedOk@CPlugininLevelMeterDlg@@QAAXXZ 00020ef0 f   PlugininLevelMeterDlg.obj
 0001:0000ff20       ?OnTimer@CPlugininLevelMeterDlg@@QAAXI@Z 00020f20 f   PlugininLevelMeterDlg.obj
 0001:0000ff4c       ?OnPaint@CPlugininLevelMeterDlg@@QAAXXZ 00020f4c f   PlugininLevelMeterDlg.obj
 0001:00010b54       ?OnBnClickedFreqUp@CPlugininLevelMeterDlg@@QAAXXZ 00021b54 f   PlugininLevelMeterDlg.obj
 0001:00010b88       ?OnBnClickedFreqDown@CPlugininLevelMeterDlg@@QAAXXZ 00021b88 f   PlugininLevelMeterDlg.obj
 0001:00010bc4       ?SetDispFmFreq@CPlugininLevelMeterDlg@@AAAXE@Z 00021bc4 f   PlugininLevelMeterDlg.obj
 0001:00010cd4       ?OnBnClickedFreqChange@CPlugininLevelMeterDlg@@QAAXXZ 00021cd4 f   PlugininLevelMeterDlg.obj
 0001:00010d40       ?PreTranslateMessage@CPlugininLevelMeterDlg@@MAAHPAUtagMSG@@@Z 00021d40 f   PlugininLevelMeterDlg.obj
 0001:00010dcc       ?FrameRect@CDC@@QAAXPBUtagRECT@@PAVCBrush@@@Z 00021dcc f i PlugininLevelMeterDlg.obj
 0001:00010edc       ?GetRuntimeClass@CPlugininGPSSatelliteState@@UBAPAUCRuntimeClass@@XZ 00021edc f   PlugininGPSSatelliteState.obj
 0001:00010ee8       ??_GCPlugininGPSSatelliteState@@UAAPAXI@Z 00021ee8 f i PlugininGPSSatelliteState.obj
 0001:00010ee8       ??_ECPlugininGPSSatelliteState@@UAAPAXI@Z 00021ee8 f i  CIL library: CIL module
 0001:00010f0c       ??1CPlugininGPSSatelliteState@@UAA@XZ 00021f0c f   PlugininGPSSatelliteState.obj
 0001:00010f3c       ?GetMessageMap@CPlugininGPSSatelliteState@@MBAPBUAFX_MSGMAP@@XZ 00021f3c f   PlugininGPSSatelliteState.obj
 0001:00010f48       ?OnInitDialog@CPlugininGPSSatelliteState@@MAAHXZ 00021f48 f   PlugininGPSSatelliteState.obj
 0001:00010f48       ?OnInitDialog@CPlugininGyroDlg@@MAAHXZ 00021f48 f   PlugininGyroDlg.obj
 0001:00010f7c       ?OnBnClickedOk@CPlugininGPSSatelliteState@@QAAXXZ 00021f7c f   PlugininGPSSatelliteState.obj
 0001:00010fac       ?OnPaint@CPlugininGPSSatelliteState@@QAAXXZ 00021fac f   PlugininGPSSatelliteState.obj
 0001:00011600       ?GetRuntimeClass@CPlugininVicsLv3Dlg@@UBAPAUCRuntimeClass@@XZ 00022600 f   PlugininVicsLv3Dlg.obj
 0001:00011614       ??0CPlugininVicsLv3Dlg@@QAA@PAVCWnd@@@Z 00022614 f   PlugininVicsLv3Dlg.obj
 0001:00011894       ??_GCPlugininVicsLv3Dlg@@UAAPAXI@Z 00022894 f i PlugininVicsLv3Dlg.obj
 0001:00011894       ??_ECPlugininVicsLv3Dlg@@UAAPAXI@Z 00022894 f i  CIL library: CIL module
 0001:000118c0       ??1CPlugininVicsLv3Dlg@@UAA@XZ 000228c0 f   PlugininVicsLv3Dlg.obj
 0001:00011b4c       ?GetMessageMap@CPlugininVicsLv3Dlg@@MBAPBUAFX_MSGMAP@@XZ 00022b4c f   PlugininVicsLv3Dlg.obj
 0001:00011b58       ?OnInitDialog@CPlugininVicsLv3Dlg@@MAAHXZ 00022b58 f   PlugininVicsLv3Dlg.obj
 0001:000120b0       ?OnBnClickedButton11@CPlugininVicsLv3Dlg@@QAAXXZ 000230b0 f   PlugininVicsLv3Dlg.obj
 0001:000120c0       ?OnBnClickedButton12@CPlugininVicsLv3Dlg@@QAAXXZ 000230c0 f   PlugininVicsLv3Dlg.obj
 0001:000120d0       ?OnBnClickedButton13@CPlugininVicsLv3Dlg@@QAAXXZ 000230d0 f   PlugininVicsLv3Dlg.obj
 0001:000120e0       ?OnBnClickedButton14@CPlugininVicsLv3Dlg@@QAAXXZ 000230e0 f   PlugininVicsLv3Dlg.obj
 0001:000120f0       ?OnBnClickedButton15@CPlugininVicsLv3Dlg@@QAAXXZ 000230f0 f   PlugininVicsLv3Dlg.obj
 0001:00012100       ?OnBnClickedButton16@CPlugininVicsLv3Dlg@@QAAXXZ 00023100 f   PlugininVicsLv3Dlg.obj
 0001:00012110       ?OnBnClickedButton17@CPlugininVicsLv3Dlg@@QAAXXZ 00023110 f   PlugininVicsLv3Dlg.obj
 0001:00012120       ?OnBnClickedButton18@CPlugininVicsLv3Dlg@@QAAXXZ 00023120 f   PlugininVicsLv3Dlg.obj
 0001:00012130       ?OnBnClickedButtonVicsDebug@CPlugininVicsLv3Dlg@@QAAXXZ 00023130 f   PlugininVicsLv3Dlg.obj
 0001:000121a8       ?OnBnClickedButton19@CPlugininVicsLv3Dlg@@QAAXXZ 000231a8 f   PlugininVicsLv3Dlg.obj
 0001:000121b8       ?OnBnClickedButton21@CPlugininVicsLv3Dlg@@QAAXXZ 000231b8 f   PlugininVicsLv3Dlg.obj
 0001:000121c8       ?OnBnClickedButton22@CPlugininVicsLv3Dlg@@QAAXXZ 000231c8 f   PlugininVicsLv3Dlg.obj
 0001:000121d8       ?GetRuntimeClass@CPlugininConeectNoSettingDlg@@UBAPAUCRuntimeClass@@XZ 000231d8 f   PlugininConeectNoSettingDlg.obj
 0001:000121ec       ??0CPlugininConeectNoSettingDlg@@QAA@PAVCWnd@@@Z 000231ec f   PlugininConeectNoSettingDlg.obj
 0001:00012548       ??_ECPlugininConeectNoSettingDlg@@UAAPAXI@Z 00023548 f i  CIL library: CIL module
 0001:00012548       ??_GCPlugininConeectNoSettingDlg@@UAAPAXI@Z 00023548 f i PlugininConeectNoSettingDlg.obj
 0001:00012574       ??1CPlugininConeectNoSettingDlg@@UAA@XZ 00023574 f   PlugininConeectNoSettingDlg.obj
 0001:000128d0       ?GetMessageMap@CPlugininConeectNoSettingDlg@@MBAPBUAFX_MSGMAP@@XZ 000238d0 f   PlugininConeectNoSettingDlg.obj
 0001:000128dc       ?ShowControl@CPlugininConeectNoSettingDlg@@IAAXXZ 000238dc f   PlugininConeectNoSettingDlg.obj
 0001:00012c98       ?SetStatic@CPlugininConeectNoSettingDlg@@IAAXPAD@Z 00023c98 f   PlugininConeectNoSettingDlg.obj
 0001:00012d5c       ?UpdateInputStatic@CPlugininConeectNoSettingDlg@@IAAXXZ 00023d5c f   PlugininConeectNoSettingDlg.obj
 0001:0001306c       ?OnInitDialog@CPlugininConeectNoSettingDlg@@MAAHXZ 0002406c f   PlugininConeectNoSettingDlg.obj
 0001:000138d0       ?OnBnClickedOk@CPlugininConeectNoSettingDlg@@QAAXXZ 000248d0 f   PlugininConeectNoSettingDlg.obj
 0001:00013904       ?OnBnClickedButtonOk@CPlugininConeectNoSettingDlg@@QAAXXZ 00024904 f   PlugininConeectNoSettingDlg.obj
 0001:00013a2c       ?OnBnClickedButton1@CPlugininConeectNoSettingDlg@@QAAXXZ 00024a2c f   PlugininConeectNoSettingDlg.obj
 0001:00013a7c       ?OnBnClickedButton2@CPlugininConeectNoSettingDlg@@QAAXXZ 00024a7c f   PlugininConeectNoSettingDlg.obj
 0001:00013acc       ?OnBnClickedButton3@CPlugininConeectNoSettingDlg@@QAAXXZ 00024acc f   PlugininConeectNoSettingDlg.obj
 0001:00013b1c       ?OnBnClickedButton4@CPlugininConeectNoSettingDlg@@QAAXXZ 00024b1c f   PlugininConeectNoSettingDlg.obj
 0001:00013b6c       ?OnBnClickedButton5@CPlugininConeectNoSettingDlg@@QAAXXZ 00024b6c f   PlugininConeectNoSettingDlg.obj
 0001:00013bbc       ?OnBnClickedButton6@CPlugininConeectNoSettingDlg@@QAAXXZ 00024bbc f   PlugininConeectNoSettingDlg.obj
 0001:00013c0c       ?OnBnClickedButton7@CPlugininConeectNoSettingDlg@@QAAXXZ 00024c0c f   PlugininConeectNoSettingDlg.obj
 0001:00013c5c       ?OnBnClickedButton8@CPlugininConeectNoSettingDlg@@QAAXXZ 00024c5c f   PlugininConeectNoSettingDlg.obj
 0001:00013cac       ?OnBnClickedButton9@CPlugininConeectNoSettingDlg@@QAAXXZ 00024cac f   PlugininConeectNoSettingDlg.obj
 0001:00013cfc       ?OnBnClickedButton0@CPlugininConeectNoSettingDlg@@QAAXXZ 00024cfc f   PlugininConeectNoSettingDlg.obj
 0001:00013d4c       ?OnBnClickedButtonEtc1@CPlugininConeectNoSettingDlg@@QAAXXZ 00024d4c f   PlugininConeectNoSettingDlg.obj
 0001:00013d9c       ?OnBnClickedButtonEtc2@CPlugininConeectNoSettingDlg@@QAAXXZ 00024d9c f   PlugininConeectNoSettingDlg.obj
 0001:00013dec       ?OnBnClickedButtonDelete@CPlugininConeectNoSettingDlg@@QAAXXZ 00024dec f   PlugininConeectNoSettingDlg.obj
 0001:00013e38       ?OnBnClickedButtonDtfOn@CPlugininConeectNoSettingDlg@@QAAXXZ 00024e38 f   PlugininConeectNoSettingDlg.obj
 0001:00013e84       ?OnBnClickedButtonDtfOff@CPlugininConeectNoSettingDlg@@QAAXXZ 00024e84 f   PlugininConeectNoSettingDlg.obj
 0001:00013ed0       ?OnBnClickedButtonMulticall@CPlugininConeectNoSettingDlg@@QAAXXZ 00024ed0 f   PlugininConeectNoSettingDlg.obj
 0001:00013f1c       ?GetRuntimeClass@CPlugininTouchPanelAdjustDlg@@UBAPAUCRuntimeClass@@XZ 00024f1c f   PlugininTouchPanelAdjustDlg.obj
 0001:00013f28       ??_ECPlugininTouchPanelAdjustDlg@@UAAPAXI@Z 00024f28 f i  CIL library: CIL module
 0001:00013f28       ??_GCPlugininTouchPanelAdjustDlg@@UAAPAXI@Z 00024f28 f i PlugininTouchPanelAdjustDlg.obj
 0001:00013f4c       ??1CPlugininTouchPanelAdjustDlg@@UAA@XZ 00024f4c f   PlugininTouchPanelAdjustDlg.obj
 0001:00013f88       ?GetMessageMap@CPlugininTouchPanelAdjustDlg@@MBAPBUAFX_MSGMAP@@XZ 00024f88 f   PlugininTouchPanelAdjustDlg.obj
 0001:00013f94       ?PreTranslateMessage@CPlugininTouchPanelAdjustDlg@@MAAHPAUtagMSG@@@Z 00024f94 f   PlugininTouchPanelAdjustDlg.obj
 0001:00013f94       ?PreTranslateMessage@CPlugininTouchPanelConfDlg@@MAAHPAUtagMSG@@@Z 00024f94 f   PlugininTouchPanelConfDlg.obj
 0001:00013ff8       ?OnPaint@CPlugininTouchPanelAdjustDlg@@QAAXXZ 00024ff8 f   PlugininTouchPanelAdjustDlg.obj
 0001:00014af0       ?OnLButtonDown@CPlugininTouchPanelAdjustDlg@@UAAXIVCPoint@@@Z 00025af0 f   PlugininTouchPanelAdjustDlg.obj
 0001:00014b40       ?GetRuntimeClass@CPlugininTouchPanelConfDlg@@UBAPAUCRuntimeClass@@XZ 00025b40 f   PlugininTouchPanelConfDlg.obj
 0001:00014b4c       ??_GCPlugininTouchPanelConfDlg@@UAAPAXI@Z 00025b4c f i PlugininTouchPanelConfDlg.obj
 0001:00014b4c       ??_ECPlugininTouchPanelConfDlg@@UAAPAXI@Z 00025b4c f i  CIL library: CIL module
 0001:00014b70       ??1CPlugininTouchPanelConfDlg@@UAA@XZ 00025b70 f   PlugininTouchPanelConfDlg.obj
 0001:00014bac       ?GetMessageMap@CPlugininTouchPanelConfDlg@@MBAPBUAFX_MSGMAP@@XZ 00025bac f   PlugininTouchPanelConfDlg.obj
 0001:00014bb8       ?OnInitDialog@CPlugininMemmanagerMapInfoDlg@@MAAHXZ 00025bb8 f   PlugininMemmanagerMapInfoDlg.obj
 0001:00014bb8       ?OnInitDialog@CPlugininTouchPanelConfDlg@@MAAHXZ 00025bb8 f   PlugininTouchPanelConfDlg.obj
 0001:00014bb8       ?OnInitDialog@CPlugininTouchPanelAdjustDlg@@MAAHXZ 00025bb8 f   PlugininTouchPanelAdjustDlg.obj
 0001:00014bb8       ?OnInitDialog@CPlugininMemmanagerDriveDlg@@MAAHXZ 00025bb8 f   PlugininMemmanagerDriveDlg.obj
 0001:00014bb8       ?OnInitDialog@CPlugininDebugDispDlg@@MAAHXZ 00025bb8 f   PlugininDebugDispDlg.obj
 0001:00014bd0       ?OnPaint@CPlugininTouchPanelConfDlg@@QAAXXZ 00025bd0 f   PlugininTouchPanelConfDlg.obj
 0001:0001583c       ?OnLButtonDown@CPlugininTouchPanelConfDlg@@UAAXIVCPoint@@@Z 0002683c f   PlugininTouchPanelConfDlg.obj
 0001:00015894       ?OnSmResMainData@CPlugininTouchPanelConfDlg@@MAAXPBEK@Z 00026894 f   PlugininTouchPanelConfDlg.obj
 0001:000159b4       ?GetRuntimeClass@CPlugininSystemManagerDlg@@UBAPAUCRuntimeClass@@XZ 000269b4 f   PlugininSystemManagerDlg.obj
 0001:000159c8       ??0CPlugininSystemManagerDlg@@QAA@PAVCWnd@@@Z 000269c8 f   PlugininSystemManagerDlg.obj
 0001:00015a78       ??_ECPlugininSystemManagerDlg@@UAAPAXI@Z 00026a78 f i  CIL library: CIL module
 0001:00015a78       ??_GCPlugininSystemManagerDlg@@UAAPAXI@Z 00026a78 f i PlugininSystemManagerDlg.obj
 0001:00015aa4       ??1CPlugininSystemManagerDlg@@UAA@XZ 00026aa4 f   PlugininSystemManagerDlg.obj
 0001:00015b60       ?GetMessageMap@CPlugininSystemManagerDlg@@MBAPBUAFX_MSGMAP@@XZ 00026b60 f   PlugininSystemManagerDlg.obj
 0001:00015b6c       ?OnInitDialog@CPlugininSystemManagerDlg@@MAAHXZ 00026b6c f   PlugininSystemManagerDlg.obj
 0001:00015ee0       ?OnCtlColor@CPlugininSystemManagerDlg@@QAAPAUHBRUSH__@@PAVCDC@@PAVCWnd@@I@Z 00026ee0 f   PlugininSystemManagerDlg.obj
 0001:00015ff8       ?OnBnClickedCheck1@CPlugininSystemManagerDlg@@QAAXXZ 00026ff8 f   PlugininSystemManagerDlg.obj
 0001:00016060       ?OnBnClickedCheck2@CPlugininSystemManagerDlg@@QAAXXZ 00027060 f   PlugininSystemManagerDlg.obj
 0001:000160c8       ?OnBnClickedCheck3@CPlugininSystemManagerDlg@@QAAXXZ 000270c8 f   PlugininSystemManagerDlg.obj
 0001:00016138       ?OnPaint@CDiagDlg@@QAAXXZ  00027138 f   DiagDlg.obj
 0001:00016138       ?OnPaint@CPlugininSramSaveDlg@@QAAXXZ 00027138 f   PlugininSramSaveDlg.obj
 0001:00016138       ?OnPaint@CPlugininSystemManagerDlg@@QAAXXZ 00027138 f   PlugininSystemManagerDlg.obj
 0001:00016174       ?OnBnClickedButtonStatupOs@CPlugininSystemManagerDlg@@QAAXXZ 00027174 f   PlugininSystemManagerDlg.obj
 0001:000161c4       ?OnBnClickedCheckHeartbeatReset@CPlugininSystemManagerDlg@@QAAXXZ 000271c4 f   PlugininSystemManagerDlg.obj
 0001:0001620c       ?OnBnClickedCheckExceptionReset@CPlugininSystemManagerDlg@@QAAXXZ 0002720c f   PlugininSystemManagerDlg.obj
 0001:00016258       ?GetRuntimeClass@CPlugininSdCaptureDlg@@UBAPAUCRuntimeClass@@XZ 00027258 f   PlugininSdCaptureDlg.obj
 0001:0001626c       ??0CPlugininSdCaptureDlg@@QAA@PAVCWnd@@@Z 0002726c f   PlugininSdCaptureDlg.obj
 0001:000163b0       ??_GCPlugininSdCaptureDlg@@UAAPAXI@Z 000273b0 f i PlugininSdCaptureDlg.obj
 0001:000163b0       ??_ECPlugininSdCaptureDlg@@UAAPAXI@Z 000273b0 f i  CIL library: CIL module
 0001:000163dc       ??1CPlugininSdCaptureDlg@@UAA@XZ 000273dc f   PlugininSdCaptureDlg.obj
 0001:00016530       ?GetMessageMap@CPlugininSdCaptureDlg@@MBAPBUAFX_MSGMAP@@XZ 00027530 f   PlugininSdCaptureDlg.obj
 0001:0001653c       ?OnInitDialog@CPlugininSdCaptureDlg@@MAAHXZ 0002753c f   PlugininSdCaptureDlg.obj
 0001:000169dc       ?OnCtlColor@CPlugininSdCaptureDlg@@QAAPAUHBRUSH__@@PAVCDC@@PAVCWnd@@I@Z 000279dc f   PlugininSdCaptureDlg.obj
 0001:00016a9c       ?OnBnClickedButton1@CPlugininSdCaptureDlg@@QAAXXZ 00027a9c f   PlugininSdCaptureDlg.obj
 0001:00016b40       ?OnBnClickedButton2@CPlugininSdCaptureDlg@@QAAXXZ 00027b40 f   PlugininSdCaptureDlg.obj
 0001:00016c38       ?OnBnClickedButton3@CPlugininSdCaptureDlg@@QAAXXZ 00027c38 f   PlugininSdCaptureDlg.obj
 0001:00016cdc       ?OnBnClickedBtnSD@CPlugininSdCaptureDlg@@QAAXXZ 00027cdc f   PlugininSdCaptureDlg.obj
 0001:00016d6c       ?OnBnClickedBtnUSB@CPlugininSdCaptureDlg@@QAAXXZ 00027d6c f   PlugininSdCaptureDlg.obj
 0001:00016dfc       ?GetRuntimeClass@CPlugininDateTimeDlg@@UBAPAUCRuntimeClass@@XZ 00027dfc f   PlugininDateTimeDlg.obj
 0001:00016e10       ??0CPlugininDateTimeDlg@@QAA@PAVCWnd@@@Z 00027e10 f   PlugininDateTimeDlg.obj
 0001:00017098       ??_GCPlugininDateTimeDlg@@UAAPAXI@Z 00028098 f i PlugininDateTimeDlg.obj
 0001:00017098       ??_ECPlugininDateTimeDlg@@UAAPAXI@Z 00028098 f i  CIL library: CIL module
 0001:000170c4       ??1CPlugininDateTimeDlg@@UAA@XZ 000280c4 f   PlugininDateTimeDlg.obj
 0001:00017328       ?GetMessageMap@CPlugininDateTimeDlg@@MBAPBUAFX_MSGMAP@@XZ 00028328 f   PlugininDateTimeDlg.obj
 0001:00017334       ?SetEnableWindow@CPlugininDateTimeDlg@@IAAXPBU_BUTTON_STATE_TABLE@@@Z 00028334 f   PlugininDateTimeDlg.obj
 0001:00017478       ?SetDateTimeCaption@CPlugininDateTimeDlg@@IAAXXZ 00028478 f   PlugininDateTimeDlg.obj
 0001:000176e0       ?OnInitDialog@CPlugininDateTimeDlg@@MAAHXZ 000286e0 f   PlugininDateTimeDlg.obj
 0001:00017e08       ?OnBnClickedButton1@CPlugininDateTimeDlg@@QAAXXZ 00028e08 f   PlugininDateTimeDlg.obj
 0001:00017e7c       ?OnBnClickedButton2@CPlugininDateTimeDlg@@QAAXXZ 00028e7c f   PlugininDateTimeDlg.obj
 0001:00017ef0       ?OnBnClickedButton3@CPlugininDateTimeDlg@@QAAXXZ 00028ef0 f   PlugininDateTimeDlg.obj
 0001:00017f64       ?OnBnClickedButton4@CPlugininDateTimeDlg@@QAAXXZ 00028f64 f   PlugininDateTimeDlg.obj
 0001:00017fd8       ?OnBnClickedButton5@CPlugininDateTimeDlg@@QAAXXZ 00028fd8 f   PlugininDateTimeDlg.obj
 0001:0001804c       ?OnBnClickedButton6@CPlugininDateTimeDlg@@QAAXXZ 0002904c f   PlugininDateTimeDlg.obj
 0001:000180c0       ?OnBnClickedButton7@CPlugininDateTimeDlg@@QAAXXZ 000290c0 f   PlugininDateTimeDlg.obj
 0001:00018134       ?OnBnClickedButton8@CPlugininDateTimeDlg@@QAAXXZ 00029134 f   PlugininDateTimeDlg.obj
 0001:000181a8       ?OnBnClickedButton9@CPlugininDateTimeDlg@@QAAXXZ 000291a8 f   PlugininDateTimeDlg.obj
 0001:0001821c       ?OnBnClickedButton0@CPlugininDateTimeDlg@@QAAXXZ 0002921c f   PlugininDateTimeDlg.obj
 0001:00018290       ?OnBnClickedButtonDelete@CPlugininDateTimeDlg@@QAAXXZ 00029290 f   PlugininDateTimeDlg.obj
 0001:000182ec       ?OnBnClickedButtonOk@CPlugininDateTimeDlg@@QAAXXZ 000292ec f   PlugininDateTimeDlg.obj
 0001:000184b4       ?GetRuntimeClass@CPlugininVersionUpDlg@@UBAPAUCRuntimeClass@@XZ 000294b4 f   PlugininVersionUpDlg.obj
 0001:000184c8       ??0CPlugininVersionUpDlg@@QAA@PAVCWnd@@@Z 000294c8 f   PlugininVersionUpDlg.obj
 0001:000187dc       ??_ECPlugininVersionUpDlg@@UAAPAXI@Z 000297dc f i  CIL library: CIL module
 0001:000187dc       ??_GCPlugininVersionUpDlg@@UAAPAXI@Z 000297dc f i PlugininVersionUpDlg.obj
 0001:00018808       ??1CPlugininVersionUpDlg@@UAA@XZ 00029808 f   PlugininVersionUpDlg.obj
 0001:00018b00       ?GetMessageMap@CPlugininVersionUpDlg@@MBAPBUAFX_MSGMAP@@XZ 00029b00 f   PlugininVersionUpDlg.obj
 0001:00018b0c       ?AllCtrlEnableWindow@CPlugininVersionUpDlg@@IAAHH@Z 00029b0c f   PlugininVersionUpDlg.obj
 0001:00018c98       ?OnInitDialog@CPlugininVersionUpDlg@@MAAHXZ 00029c98 f   PlugininVersionUpDlg.obj
 0001:000193a0       ?OnTimer@CPlugininVersionUpDlg@@QAAXI@Z 0002a3a0 f   PlugininVersionUpDlg.obj
 0001:000193bc       ?PreTranslateMessage@CPlugininVersionUpDlg@@MAAHPAUtagMSG@@@Z 0002a3bc f   PlugininVersionUpDlg.obj
 0001:000195a4       ?OnPaint@CPlugininVersionUpDlg@@QAAXXZ 0002a5a4 f   PlugininVersionUpDlg.obj
 0001:00019b2c       ?OnBnClickedButtonSd@CPlugininVersionUpDlg@@QAAXXZ 0002ab2c f   PlugininVersionUpDlg.obj
 0001:00019bbc       ?OnBnClickedButtonUsb@CPlugininVersionUpDlg@@QAAXXZ 0002abbc f   PlugininVersionUpDlg.obj
 0001:00019c4c       ?OnBnClickedButton1@CPlugininVersionUpDlg@@QAAXXZ 0002ac4c f   PlugininVersionUpDlg.obj
 0001:00019c74       ?OnBnClickedButton2@CPlugininVersionUpDlg@@QAAXXZ 0002ac74 f   PlugininVersionUpDlg.obj
 0001:00019c9c       ?OnBnClickedButton3@CPlugininVersionUpDlg@@QAAXXZ 0002ac9c f   PlugininVersionUpDlg.obj
 0001:00019cc4       ?OnBnClickedButton4@CPlugininVersionUpDlg@@QAAXXZ 0002acc4 f   PlugininVersionUpDlg.obj
 0001:00019cec       ?OnBnClickedButton5@CPlugininVersionUpDlg@@QAAXXZ 0002acec f   PlugininVersionUpDlg.obj
 0001:00019d14       ?OnBnClickedButton6@CPlugininVersionUpDlg@@QAAXXZ 0002ad14 f   PlugininVersionUpDlg.obj
 0001:00019d3c       ?OnBnClickedButton7@CPlugininVersionUpDlg@@QAAXXZ 0002ad3c f   PlugininVersionUpDlg.obj
 0001:00019d64       ?OnBnClickedButton8@CPlugininVersionUpDlg@@QAAXXZ 0002ad64 f   PlugininVersionUpDlg.obj
 0001:00019d8c       ?OnBnClickedButton9@CPlugininVersionUpDlg@@QAAXXZ 0002ad8c f   PlugininVersionUpDlg.obj
 0001:00019db4       ?OnBnClickedButton10@CPlugininVersionUpDlg@@QAAXXZ 0002adb4 f   PlugininVersionUpDlg.obj
 0001:00019ddc       ?StartVersionUp@CPlugininVersionUpDlg@@IAAHXZ 0002addc f   PlugininVersionUpDlg.obj
 0001:00019ec4       ?Confirm@CPlugininVersionUpDlg@@IAAXW4VERSIONUP_MODE@1@@Z 0002aec4 f   PlugininVersionUpDlg.obj
 0001:00019ef8       ?OnTelopClose_@CPlugininVersionUpDlg@@MAAXI@Z 0002aef8 f   PlugininVersionUpDlg.obj
 0001:00019f48       ?GetRuntimeClass@CPlugininMovingRecordDlg@@UBAPAUCRuntimeClass@@XZ 0002af48 f   PlugininMovingRecordDlg.obj
 0001:00019f54       ??_GCPlugininMovingRecordDlg@@UAAPAXI@Z 0002af54 f i PlugininMovingRecordDlg.obj
 0001:00019f54       ??_ECPlugininMovingRecordDlg@@UAAPAXI@Z 0002af54 f i  CIL library: CIL module
 0001:00019f80       ??1CPlugininMovingRecordDlg@@UAA@XZ 0002af80 f   PlugininMovingRecordDlg.obj
 0001:0001a014       ?GetMessageMap@CPlugininMovingRecordDlg@@MBAPBUAFX_MSGMAP@@XZ 0002b014 f   PlugininMovingRecordDlg.obj
 0001:0001a020       ?OnInitDialog@CPlugininMovingRecordDlg@@MAAHXZ 0002b020 f   PlugininMovingRecordDlg.obj
 0001:0001a1bc       ?OnBnClickedButton2@CPlugininMovingRecordDlg@@QAAXXZ 0002b1bc f   PlugininMovingRecordDlg.obj
 0001:0001a268       ?OnTimer@CPlugininMovingRecordDlg@@QAAXI@Z 0002b268 f   PlugininMovingRecordDlg.obj
 0001:0001a320       ?GetRuntimeClass@CPlugininMemManagerDlg@@UBAPAUCRuntimeClass@@XZ 0002b320 f   PlugininMemManagerDlg.obj
 0001:0001a32c       ??_GCPlugininMemManagerDlg@@UAAPAXI@Z 0002b32c f i PlugininMemManagerDlg.obj
 0001:0001a32c       ??_ECPlugininMemManagerDlg@@UAAPAXI@Z 0002b32c f i  CIL library: CIL module
 0001:0001a358       ??1CPlugininMemManagerDlg@@UAA@XZ 0002b358 f   PlugininMemManagerDlg.obj
 0001:0001a3ec       ?GetMessageMap@CPlugininMemManagerDlg@@MBAPBUAFX_MSGMAP@@XZ 0002b3ec f   PlugininMemManagerDlg.obj
 0001:0001a3f8       ?OnInitDialog@CPlugininMemManagerDlg@@MAAHXZ 0002b3f8 f   PlugininMemManagerDlg.obj
 0001:0001a900       ?OnCtlColor@CPlugininMemManagerDlg@@QAAPAUHBRUSH__@@PAVCDC@@PAVCWnd@@I@Z 0002b900 f   PlugininMemManagerDlg.obj
 0001:0001ab68       ?OnBnClickedCheck1@CPlugininMemManagerDlg@@QAAXXZ 0002bb68 f   PlugininMemManagerDlg.obj
 0001:0001abd0       ?OnBnClickedCheck2@CPlugininMemManagerDlg@@QAAXXZ 0002bbd0 f   PlugininMemManagerDlg.obj
 0001:0001ac38       ?OnBnClickedCheck3@CPlugininMemManagerDlg@@QAAXXZ 0002bc38 f   PlugininMemManagerDlg.obj
 0001:0001aca0       ?OnBnClickedCheck4@CPlugininMemManagerDlg@@QAAXXZ 0002bca0 f   PlugininMemManagerDlg.obj
 0001:0001ad08       ?OnBnClickedCheck5@CPlugininMemManagerDlg@@QAAXXZ 0002bd08 f   PlugininMemManagerDlg.obj
 0001:0001ad70       ?OnBnClickedCheck6@CPlugininMemManagerDlg@@QAAXXZ 0002bd70 f   PlugininMemManagerDlg.obj
 0001:0001add8       ?OnBnClickedCheck7@CPlugininMemManagerDlg@@QAAXXZ 0002bdd8 f   PlugininMemManagerDlg.obj
 0001:0001ae40       ?OnBnClickedCheck8@CPlugininMemManagerDlg@@QAAXXZ 0002be40 f   PlugininMemManagerDlg.obj
 0001:0001aea8       ?OnBnClickedButton1@CPlugininMemManagerDlg@@QAAXXZ 0002bea8 f   PlugininMemManagerDlg.obj
 0001:0001aee0       ?GetRuntimeClass@CPlugininGPSRecvState@@UBAPAUCRuntimeClass@@XZ 0002bee0 f   PlugininGPSRecvState.obj
 0001:0001aef4       ??0CPlugininGPSRecvState@@QAA@PAVCWnd@@@Z 0002bef4 f   PlugininGPSRecvState.obj
 0001:0001b130       ??_GCPlugininGPSRecvState@@UAAPAXI@Z 0002c130 f i PlugininGPSRecvState.obj
 0001:0001b130       ??_ECPlugininGPSRecvState@@UAAPAXI@Z 0002c130 f i  CIL library: CIL module
 0001:0001b15c       ??1CPlugininGPSRecvState@@UAA@XZ 0002c15c f   PlugininGPSRecvState.obj
 0001:0001b2cc       ?GetMessageMap@CPlugininGPSRecvState@@MBAPBUAFX_MSGMAP@@XZ 0002c2cc f   PlugininGPSRecvState.obj
 0001:0001b2d8       ?SatelliteIcon@CPlugininGPSRecvState@@IAAXPAVCDC@@HAAUST_LOC_GPS_INFO@@@Z 0002c2d8 f   PlugininGPSRecvState.obj
 0001:0001b530       ?OnInitDialog@CPlugininGPSRecvState@@MAAHXZ 0002c530 f   PlugininGPSRecvState.obj
 0001:0001b6b8       ?OnPaint@CPlugininGPSRecvState@@QAAXXZ 0002c6b8 f   PlugininGPSRecvState.obj
 0001:0001c3e8       ?OnBnClickedOk@CPlugininGPSRecvState@@QAAXXZ 0002d3e8 f   PlugininGPSRecvState.obj
 0001:0001c3e8       ?OnBnClickedOk@CPlugininGyroDlg@@QAAXXZ 0002d3e8 f   PlugininGyroDlg.obj
 0001:0001c40c       ?OnTimer@CPlugininGyroDlg@@QAAXI@Z 0002d40c f   PlugininGyroDlg.obj
 0001:0001c40c       ?OnTimer@CPlugininGPSRecvState@@QAAXI@Z 0002d40c f   PlugininGPSRecvState.obj
 0001:0001c40c       ?OnTimer@CPlugininGPSSatelliteState@@QAAXI@Z 0002d40c f   PlugininGPSSatelliteState.obj
 0001:0001c434       ?GetRuntimeClass@CPlugininFlicAdjustDlg@@UBAPAUCRuntimeClass@@XZ 0002d434 f   PlugininFlicAdjustDlg.obj
 0001:0001c440       ??_ECPlugininFlicAdjustDlg@@UAAPAXI@Z 0002d440 f i  CIL library: CIL module
 0001:0001c440       ??_GCPlugininFlicAdjustDlg@@UAAPAXI@Z 0002d440 f i PlugininFlicAdjustDlg.obj
 0001:0001c464       ??1CPlugininFlicAdjustDlg@@UAA@XZ 0002d464 f   PlugininFlicAdjustDlg.obj
 0001:0001c494       ?GetMessageMap@CPlugininFlicAdjustDlg@@MBAPBUAFX_MSGMAP@@XZ 0002d494 f   PlugininFlicAdjustDlg.obj
 0001:0001c4a0       ?SetPixel@CPlugininFlicAdjustDlg@@IAAHEEEEEE@Z 0002d4a0 f   PlugininFlicAdjustDlg.obj
 0001:0001c528       ?PreTranslateMessage@CPlugininFlicAdjustDlg@@MAAHPAUtagMSG@@@Z 0002d528 f   PlugininFlicAdjustDlg.obj
 0001:0001c5b0       ?OnInitDialog@CPlugininFlicAdjustDlg@@MAAHXZ 0002d5b0 f   PlugininFlicAdjustDlg.obj
 0001:0001c698       ?OnPaint@CPlugininFlicAdjustDlg@@QAAXXZ 0002d698 f   PlugininFlicAdjustDlg.obj
 0001:0001ca10       ?OnLButtonDown@CPlugininFlicAdjustDlg@@UAAXIVCPoint@@@Z 0002da10 f   PlugininFlicAdjustDlg.obj
 0001:0001cab8       ?GetRuntimeClass@CPlugininGyroDlg@@UBAPAUCRuntimeClass@@XZ 0002dab8 f   PlugininGyroDlg.obj
 0001:0001cac4       ??_GCPlugininGyroDlg@@UAAPAXI@Z 0002dac4 f i PlugininGyroDlg.obj
 0001:0001cac4       ??_ECPlugininGyroDlg@@UAAPAXI@Z 0002dac4 f i  CIL library: CIL module
 0001:0001cae8       ??1CPlugininGyroDlg@@UAA@XZ 0002dae8 f   PlugininGyroDlg.obj
 0001:0001cb24       ?GetMessageMap@CPlugininGyroDlg@@MBAPBUAFX_MSGMAP@@XZ 0002db24 f   PlugininGyroDlg.obj
 0001:0001cb38       ?OnPaint@CPlugininGyroDlg@@QAAXXZ 0002db38 f   PlugininGyroDlg.obj
 0001:0001d18c       ?GetRuntimeClass@CPlugininCameraPosDlg@@UBAPAUCRuntimeClass@@XZ 0002e18c f   PlugininCameraPosDlg.obj
 0001:0001d1a0       ??0CPlugininCameraPosDlg@@QAA@PAVCWnd@@@Z 0002e1a0 f   PlugininCameraPosDlg.obj
 0001:0001d61c       ??_GCPlugininCameraPosDlg@@UAAPAXI@Z 0002e61c f i PlugininCameraPosDlg.obj
 0001:0001d61c       ??_ECPlugininCameraPosDlg@@UAAPAXI@Z 0002e61c f i  CIL library: CIL module
 0001:0001d648       ??1CPlugininCameraPosDlg@@UAA@XZ 0002e648 f   PlugininCameraPosDlg.obj
 0001:0001daf4       ?GetMessageMap@CPlugininCameraPosDlg@@MBAPBUAFX_MSGMAP@@XZ 0002eaf4 f   PlugininCameraPosDlg.obj
 0001:0001db08       ?OnInitDialog@CPlugininCameraPosDlg@@MAAHXZ 0002eb08 f   PlugininCameraPosDlg.obj
 0001:0001e110       ?OnPaint@CPlugininCameraPosDlg@@QAAXXZ 0002f110 f   PlugininCameraPosDlg.obj
 0001:0001e110       ?OnPaint@CPlugininCamCameraPosDlg@@QAAXXZ 0002f110 f   PlugininCamCameraPosDlg.obj
 0001:0001e6e0       ?OnBnClickedOk@CPlugininCameraDCompanyHoseiDlg@@QAAXXZ 0002f6e0 f   PlugininCameraDCompanyHoseiDlg.obj
 0001:0001e6e0       ?OnBnClickedBtnBack@CPlugininCanCameraParamaterDlg@@QAAXXZ 0002f6e0 f   PlugininCanCameraParamaterDlg.obj
 0001:0001e6e0       ?OnBnClickedOk@CPlugininFactoryWriteDataListDlg@@QAAXXZ 0002f6e0 f   PlugininFactoryWriteDataListDlg.obj
 0001:0001e6e0       ?OnBnClickedOk@CPlugininInstallKeyDlg@@QAAXXZ 0002f6e0 f   PlugininInstallKeyDlg.obj
 0001:0001e6e0       ?OnBnClickedOk@CPlugininFramConfDlg@@QAAXXZ 0002f6e0 f   PlugininFramConfDlg.obj
 0001:0001e6e0       ?OnBnClickedOk@CPlugininAudioDlg@@QAAXXZ 0002f6e0 f   PlugininAudioDlg.obj
 0001:0001e6e0       ?OnBnClickedOk@CPlugininVersionUpDlg@@QAAXXZ 0002f6e0 f   PlugininVersionUpDlg.obj
 0001:0001e6e0       ?OnBnClickedBack@CPlugininAudioHistoryBaseDlg@@IAAXXZ 0002f6e0 f   PlugininAudioHistoryBaseDlg.obj
 0001:0001e6e0       ?OnBnClickedOk@CPlugininEMMCErrorLogDlg@@QAAXXZ 0002f6e0 f   PlugininEMMCErrorLogDlg.obj
 0001:0001e6e0       ?OnBnClickedOk@CPlugininSdInfodlg@@QAAXXZ 0002f6e0 f   PlugininSdInfodlg.obj
 0001:0001e6e0       ?OnBnClickedOk@CPlugininBuyUpdateDayUpdateDlg@@QAAXXZ 0002f6e0 f   PlugininBuyUpdateDayUpdateDlg.obj
 0001:0001e6e0       ?OnBnClickedButtonBack@CPlugininManagementMainDlg@@QAAXXZ 0002f6e0 f   PlugininManagementMainDlg.obj
 0001:0001e6e0       ?OnBnClickedBtnBack@CPlugininCamDataIndSetDlg@@QAAXXZ 0002f6e0 f   PlugininCamDataIndSetDlg.obj
 0001:0001e6e0       ?OnBnClickedOk@CPlugininCameraPosDlg@@QAAXXZ 0002f6e0 f   PlugininCameraPosDlg.obj
 0001:0001e6e0       ?OnBnClickedBack@CPlugininAudioCddbManagerDlg@@QAAXXZ 0002f6e0 f   PlugininAudioCddbManagerDlg.obj
 0001:0001e6e0       ?OnBnClickedOk@CPlugininCameraSettingDlg@@QAAXXZ 0002f6e0 f   PlugininCameraSettingDlg.obj
 0001:0001e6e0       ?OnBnClickedBack@CPlugininCanDtcDlg@@QAAXXZ 0002f6e0 f   PlugininCanDtcDlg.obj
 0001:0001e6e0       ?OnBnClickedOk@CPlugininFileviewDlg@@QAAXXZ 0002f6e0 f   PlugininFileviewDlg.obj
 0001:0001e6e0       ?OnBnClickedBack@CPlugininDealerModeErrorLogDlg@@QAAXXZ 0002f6e0 f   PlugininDealerModeErrorLogDlg.obj
 0001:0001e6e0       ?OnBnClickedOk@CPlugininCamCameraPosDlg@@QAAXXZ 0002f6e0 f   PlugininCamCameraPosDlg.obj
 0001:0001e6e0       ?OnBnClickedBack@CPlugininCamCameraDataInfoDlg@@QAAXXZ 0002f6e0 f   PlugininCamCameraDataInfoDlg.obj
 0001:0001e6e0       ?OnBnClickedOk@CPlugininDateTimeDlg@@QAAXXZ 0002f6e0 f   PlugininDateTimeDlg.obj
 0001:0001e6e0       ?OnBnClickedOk@CPlugininCameraDCompanyVersionDlg@@QAAXXZ 0002f6e0 f   PlugininCameraDCompanyVersionDlg.obj
 0001:0001e6f8       ?OnBnClickedButtonSide@CPlugininCamCameraPosDlg@@QAAXXZ 0002f6f8 f   PlugininCamCameraPosDlg.obj
 0001:0001e6f8       ?OnBnClickedButtonSide@CPlugininCameraPosDlg@@QAAXXZ 0002f6f8 f   PlugininCameraPosDlg.obj
 0001:0001e900       ?OnBnClickedButton1Enter@CPlugininCameraPosDlg@@QAAXXZ 0002f900 f   PlugininCameraPosDlg.obj
 0001:0001e9a0       ?OnBnClickedButtonLuXPlus@CPlugininCameraPosDlg@@QAAXXZ 0002f9a0 f   PlugininCameraPosDlg.obj
 0001:0001e9d4       ?OnBnClickedButtonLuXMinus@CPlugininCameraPosDlg@@QAAXXZ 0002f9d4 f   PlugininCameraPosDlg.obj
 0001:0001ea10       ?OnBnClickedButtonLuYPlus@CPlugininCameraPosDlg@@QAAXXZ 0002fa10 f   PlugininCameraPosDlg.obj
 0001:0001ea44       ?OnBnClickedButtonLuYMinus@CPlugininCameraPosDlg@@QAAXXZ 0002fa44 f   PlugininCameraPosDlg.obj
 0001:0001ea80       ?OnBnClickedButtonRuXPlus@CPlugininCameraPosDlg@@QAAXXZ 0002fa80 f   PlugininCameraPosDlg.obj
 0001:0001eab4       ?OnBnClickedButtonRuXMinus@CPlugininCameraPosDlg@@QAAXXZ 0002fab4 f   PlugininCameraPosDlg.obj
 0001:0001eadc       ?OnBnClickedButtonRuYPlus@CPlugininCameraPosDlg@@QAAXXZ 0002fadc f   PlugininCameraPosDlg.obj
 0001:0001eb10       ?OnBnClickedButtonRuYMinus@CPlugininCameraPosDlg@@QAAXXZ 0002fb10 f   PlugininCameraPosDlg.obj
 0001:0001eb4c       ?OnBnClickedButtonLlXPlus@CPlugininCameraPosDlg@@QAAXXZ 0002fb4c f   PlugininCameraPosDlg.obj
 0001:0001eb80       ?OnBnClickedButtonLlXMinus@CPlugininCameraPosDlg@@QAAXXZ 0002fb80 f   PlugininCameraPosDlg.obj
 0001:0001ebbc       ?OnBnClickedButtonLlYPlus@CPlugininCameraPosDlg@@QAAXXZ 0002fbbc f   PlugininCameraPosDlg.obj
 0001:0001ebf0       ?OnBnClickedButtonLlYMinus@CPlugininCameraPosDlg@@QAAXXZ 0002fbf0 f   PlugininCameraPosDlg.obj
 0001:0001ec2c       ?OnBnClickedButtonRlXPlus@CPlugininCameraPosDlg@@QAAXXZ 0002fc2c f   PlugininCameraPosDlg.obj
 0001:0001ec60       ?OnBnClickedButtonRlXMinus@CPlugininCameraPosDlg@@QAAXXZ 0002fc60 f   PlugininCameraPosDlg.obj
 0001:0001ec9c       ?OnBnClickedButtonRlYPlus@CPlugininCameraPosDlg@@QAAXXZ 0002fc9c f   PlugininCameraPosDlg.obj
 0001:0001ecd0       ?OnBnClickedButtonRlYMinus@CPlugininCameraPosDlg@@QAAXXZ 0002fcd0 f   PlugininCameraPosDlg.obj
 0001:0001ed0c       ?OnBnClickedButtonBlXPlus@CPlugininCameraPosDlg@@QAAXXZ 0002fd0c f   PlugininCameraPosDlg.obj
 0001:0001ed40       ?OnBnClickedButtonBlXMinus@CPlugininCameraPosDlg@@QAAXXZ 0002fd40 f   PlugininCameraPosDlg.obj
 0001:0001ed7c       ?OnBnClickedButtonBlYPlus@CPlugininCameraPosDlg@@QAAXXZ 0002fd7c f   PlugininCameraPosDlg.obj
 0001:0001edb0       ?OnBnClickedButtonBlYMinus@CPlugininCameraPosDlg@@QAAXXZ 0002fdb0 f   PlugininCameraPosDlg.obj
 0001:0001edec       ?OnBnClickedButtonBrXPlus@CPlugininCameraPosDlg@@QAAXXZ 0002fdec f   PlugininCameraPosDlg.obj
 0001:0001ee20       ?OnBnClickedButtonBrXMinus@CPlugininCameraPosDlg@@QAAXXZ 0002fe20 f   PlugininCameraPosDlg.obj
 0001:0001ee5c       ?OnBnClickedButtonBrYPlus@CPlugininCameraPosDlg@@QAAXXZ 0002fe5c f   PlugininCameraPosDlg.obj
 0001:0001ee90       ?OnBnClickedButtonBrYMinus@CPlugininCameraPosDlg@@QAAXXZ 0002fe90 f   PlugininCameraPosDlg.obj
 0001:0001eecc       ?GetRuntimeClass@CPlugininTouchPanelTestDlg@@UBAPAUCRuntimeClass@@XZ 0002fecc f   PlugininTouchPanelTestDlg.obj
 0001:0001eee0       ??0CPlugininTouchPanelTestDlg@@QAA@PAVCWnd@@@Z 0002fee0 f   PlugininTouchPanelTestDlg.obj
 0001:0001f05c       ??_ECPlugininTouchPanelTestDlg@@UAAPAXI@Z 0003005c f i  CIL library: CIL module
 0001:0001f05c       ??_GCPlugininTouchPanelTestDlg@@UAAPAXI@Z 0003005c f i PlugininTouchPanelTestDlg.obj
 0001:0001f088       ??1CPlugininTouchPanelTestDlg@@UAA@XZ 00030088 f   PlugininTouchPanelTestDlg.obj
 0001:0001f20c       ?GetMessageMap@CPlugininTouchPanelTestDlg@@MBAPBUAFX_MSGMAP@@XZ 0003020c f   PlugininTouchPanelTestDlg.obj
 0001:0001f218       ?OnInitDialog@CPlugininTouchPanelTestDlg@@MAAHXZ 00030218 f   PlugininTouchPanelTestDlg.obj
 0001:0001f67c       ?OnBnClickedButton1@CPlugininTouchPanelTestDlg@@QAAXXZ 0003067c f   PlugininTouchPanelTestDlg.obj
 0001:0001f6d4       ?OnBnClickedButton2@CPlugininTouchPanelTestDlg@@QAAXXZ 000306d4 f   PlugininTouchPanelTestDlg.obj
 0001:0001f740       ?OnBnClickedButton3@CPlugininTouchPanelTestDlg@@QAAXXZ 00030740 f   PlugininTouchPanelTestDlg.obj
 0001:0001f76c       ?OnBnClickedButton4@CPlugininTouchPanelTestDlg@@QAAXXZ 0003076c f   PlugininTouchPanelTestDlg.obj
 0001:0001f7d8       ?OnBnClickedButton5@CPlugininTouchPanelTestDlg@@QAAXXZ 000307d8 f   PlugininTouchPanelTestDlg.obj
 0001:0001f844       ?OnBnClickedButton6@CPlugininTouchPanelTestDlg@@QAAXXZ 00030844 f   PlugininTouchPanelTestDlg.obj
 0001:0001f8b0       ?OnBnClickedButton7@CPlugininTouchPanelTestDlg@@QAAXXZ 000308b0 f   PlugininTouchPanelTestDlg.obj
 0001:0001f924       ?OnSmResMainData@CPlugininTouchPanelTestDlg@@MAAXPBEK_N@Z 00030924 f   PlugininTouchPanelTestDlg.obj
 0001:0001fd34       ?OnTelopClose_@CPlugininTouchPanelTestDlg@@MAAXI@Z 00030d34 f   PlugininTouchPanelTestDlg.obj
 0001:0001fdc0       ?GetRuntimeClass@CPlugininSimulationDlg@@UBAPAUCRuntimeClass@@XZ 00030dc0 f   PlugininSimulationDlg.obj
 0001:0001fdd4       ??0CPlugininSimulationDlg@@QAA@PAVCWnd@@@Z 00030dd4 f   PlugininSimulationDlg.obj
 0001:0001feec       ??_GCPlugininSimulationDlg@@UAAPAXI@Z 00030eec f i PlugininSimulationDlg.obj
 0001:0001feec       ??_ECPlugininSimulationDlg@@UAAPAXI@Z 00030eec f i  CIL library: CIL module
 0001:0001ff18       ??1CPlugininSimulationDlg@@UAA@XZ 00030f18 f   PlugininSimulationDlg.obj
 0001:00020024       ?GetMessageMap@CPlugininSimulationDlg@@MBAPBUAFX_MSGMAP@@XZ 00031024 f   PlugininSimulationDlg.obj
 0001:00020030       ?OnInitDialog@CPlugininSimulationDlg@@MAAHXZ 00031030 f   PlugininSimulationDlg.obj
 0001:0002036c       ?OnBnClickedButton1@CPlugininSimulationDlg@@QAAXXZ 0003136c f   PlugininSimulationDlg.obj
 0001:000203c0       ?OnBnClickedButton2@CPlugininSimulationDlg@@QAAXXZ 000313c0 f   PlugininSimulationDlg.obj
 0001:0002046c       ?OnBnClickedButton3@CPlugininSimulationDlg@@QAAXXZ 0003146c f   PlugininSimulationDlg.obj
 0001:00020508       ?OnBnClickedButton4@CPlugininSimulationDlg@@QAAXXZ 00031508 f   PlugininSimulationDlg.obj
 0001:000205a8       ?SetDispRunningSpeed@CPlugininSimulationDlg@@AAAXE@Z 000315a8 f   PlugininSimulationDlg.obj
 0001:00020690       ?GetRuntimeClass@CPlugininMemoryClearDlg@@UBAPAUCRuntimeClass@@XZ 00031690 f   PlugininMemoryClearDlg.obj
 0001:000206a4       ??0CPlugininMemoryClearDlg@@QAA@PAVCWnd@@@Z 000316a4 f   PlugininMemoryClearDlg.obj
 0001:000207c4       ??_GCPlugininMemoryClearDlg@@UAAPAXI@Z 000317c4 f i PlugininMemoryClearDlg.obj
 0001:000207c4       ??_ECPlugininMemoryClearDlg@@UAAPAXI@Z 000317c4 f i  CIL library: CIL module
 0001:000207f0       ??1CPlugininMemoryClearDlg@@UAA@XZ 000317f0 f   PlugininMemoryClearDlg.obj
 0001:0002091c       ?GetMessageMap@CPlugininMemoryClearDlg@@MBAPBUAFX_MSGMAP@@XZ 0003191c f   PlugininMemoryClearDlg.obj
 0001:00020928       ?EnableMenuCtrl@CPlugininMemoryClearDlg@@IAAXH@Z 00031928 f   PlugininMemoryClearDlg.obj
 0001:00020a54       ?ShowTelop@CPlugininMemoryClearDlg@@IAAXPB_WI@Z 00031a54 f   PlugininMemoryClearDlg.obj
 0001:00020abc       ?OnInitDialog@CPlugininMemoryClearDlg@@MAAHXZ 00031abc f   PlugininMemoryClearDlg.obj
 0001:00020d64       ?PreTranslateMessage@CPlugininMemoryClearDlg@@MAAHPAUtagMSG@@@Z 00031d64 f   PlugininMemoryClearDlg.obj
 0001:00020f08       ?OnTelopClose@CPlugininMemoryClearDlg@@IAAXI@Z 00031f08 f   PlugininMemoryClearDlg.obj
 0001:00021164       ?OnBnClickedButtonGpsClear@CPlugininMemoryClearDlg@@QAAXXZ 00032164 f   PlugininMemoryClearDlg.obj
 0001:000211a0       ?OnBnClickedButtonExec@CPlugininMemoryClearDlg@@QAAXXZ 000321a0 f   PlugininMemoryClearDlg.obj
 0001:000211e0       ?OnBnClickedButtonAudioClear@CPlugininMemoryClearDlg@@QAAXXZ 000321e0 f   PlugininMemoryClearDlg.obj
 0001:00021220       ?OnBnClickedButtonCddbClear@CPlugininMemoryClearDlg@@QAAXXZ 00032220 f   PlugininMemoryClearDlg.obj
 0001:00021260       ?OnBnClickedButtonPeaksClear@CPlugininMemoryClearDlg@@QAAXXZ 00032260 f   PlugininMemoryClearDlg.obj
 0001:000212a0       ?_AtlGetStringResourceImage@ATL@@YAPBUATLSTRINGRESOURCEIMAGE@1@PAUHINSTANCE__@@PAUHRSRC__@@I@Z 000322a0 f i PlugininMemoryClearDlg.obj
 0001:00021310       ?AtlGetStringResourceImage@ATL@@YAPBUATLSTRINGRESOURCEIMAGE@1@PAUHINSTANCE__@@I@Z 00032310 f i PlugininMemoryClearDlg.obj
 0001:00021354       ?ConvertToBaseType@?$ChTraitsOS@_W@ATL@@SAXPA_WHPB_WH@Z 00032354 f i PlugininMemoryClearDlg.obj
 0001:000213a4       ?LoadStringW@?$CStringT@_WV?$StrTraitMFC@_WV?$ChTraitsOS@_W@ATL@@@@@ATL@@QAAHPAUHINSTANCE__@@I@Z 000323a4 f i PlugininMemoryClearDlg.obj
 0001:0002141c       ?CheckImplicitLoad@?$CStringT@_WV?$StrTraitMFC@_WV?$ChTraitsOS@_W@ATL@@@@@ATL@@AAA_NPBX@Z 0003241c f i PlugininMemoryClearDlg.obj
 0001:00021474       ??0?$CStringT@_WV?$StrTraitMFC@_WV?$ChTraitsOS@_W@ATL@@@@@ATL@@QAA@PB_W@Z 00032474 f i PlugininMemoryClearDlg.obj
 0001:00021514       ?GetRuntimeClass@CPlugininManagementMainDlg@@UBAPAUCRuntimeClass@@XZ 00032514 f   PlugininManagementMainDlg.obj
 0001:00021528       ??0CPlugininManagementMainDlg@@QAA@PAVCWnd@@@Z 00032528 f   PlugininManagementMainDlg.obj
 0001:0002175c       ??_GCPlugininManagementMainDlg@@UAAPAXI@Z 0003275c f i PlugininManagementMainDlg.obj
 0001:0002175c       ??_ECPlugininManagementMainDlg@@UAAPAXI@Z 0003275c f i  CIL library: CIL module
 0001:00021788       ??1CPlugininManagementMainDlg@@UAA@XZ 00032788 f   PlugininManagementMainDlg.obj
 0001:00021990       ?GetMessageMap@CPlugininManagementMainDlg@@MBAPBUAFX_MSGMAP@@XZ 00032990 f   PlugininManagementMainDlg.obj
 0001:000219a4       ?GetInstance@CPlugininManagementMainDlg@@IAAPAVCDialogBase@@I@Z 000329a4 f   PlugininManagementMainDlg.obj
 0001:00021d3c       ?UpdateMenu@CPlugininManagementMainDlg@@IAAJH@Z 00032d3c f   PlugininManagementMainDlg.obj
 0001:00021e80       ?ClickedMenu@CPlugininManagementMainDlg@@IAAJI@Z 00032e80 f   PlugininManagementMainDlg.obj
 0001:00021fec       ?OnInitDialog@CPlugininManagementMainDlg@@MAAHXZ 00032fec f   PlugininManagementMainDlg.obj
 0001:000225a4       ?OnPaint@CPlugininManagementMainDlg@@QAAXXZ 000335a4 f   PlugininManagementMainDlg.obj
 0001:000227a0       ?OnBnClickedButtonPrev@CPlugininManagementMainDlg@@QAAXXZ 000337a0 f   PlugininManagementMainDlg.obj
 0001:000227bc       ?OnBnClickedButtonNext@CPlugininManagementMainDlg@@QAAXXZ 000337bc f   PlugininManagementMainDlg.obj
 0001:000227d8       ?OnBnClickedButton1@CPlugininManagementMainDlg@@QAAXXZ 000337d8 f   PlugininManagementMainDlg.obj
 0001:000227f4       ?OnBnClickedButton2@CPlugininManagementMainDlg@@QAAXXZ 000337f4 f   PlugininManagementMainDlg.obj
 0001:00022810       ?OnBnClickedButton3@CPlugininManagementMainDlg@@QAAXXZ 00033810 f   PlugininManagementMainDlg.obj
 0001:0002282c       ?OnBnClickedButton4@CPlugininManagementMainDlg@@QAAXXZ 0003382c f   PlugininManagementMainDlg.obj
 0001:00022848       ?OnBnClickedButton5@CPlugininManagementMainDlg@@QAAXXZ 00033848 f   PlugininManagementMainDlg.obj
 0001:00022864       ?OnBnClickedButton6@CPlugininManagementMainDlg@@QAAXXZ 00033864 f   PlugininManagementMainDlg.obj
 0001:00022880       ?PreTranslateMessage@CPlugininManagementMainDlg@@MAAHPAUtagMSG@@@Z 00033880 f   PlugininManagementMainDlg.obj
 0001:0002295c       ?GetRuntimeClass@CPlugininMemmanagerCommon@@UBAPAUCRuntimeClass@@XZ 0003395c f   PlugininMemmanagerCommon.obj
 0001:00022968       ??0CPlugininMemmanagerCommon@@QAA@HPAVCWnd@@@Z 00033968 f   PlugininMemmanagerCommon.obj
 0001:000229b4       ??_ECPlugininMemmanagerCommon@@UAAPAXI@Z 000339b4 f i  CIL library: CIL module
 0001:000229b4       ??_GCPlugininMemmanagerCommon@@UAAPAXI@Z 000339b4 f i PlugininMemmanagerCommon.obj
 0001:000229e0       ??1CPlugininMemmanagerCommon@@UAA@XZ 000339e0 f   PlugininMemmanagerCommon.obj
 0001:00022a5c       ?GetMessageMap@CPlugininMemmanagerCommon@@MBAPBUAFX_MSGMAP@@XZ 00033a5c f   PlugininMemmanagerCommon.obj
 0001:00022a5c       ?GetThisMessageMap@CPlugininMemmanagerCommon@@KAPBUAFX_MSGMAP@@XZ 00033a5c f   PlugininMemmanagerCommon.obj
 0001:00022a70       ?OnPaintStart@CPlugininMemmanagerCommon@@IAAXHPAVCDC@@@Z 00033a70 f   PlugininMemmanagerCommon.obj
 0001:00022c8c       ?OnPaintEnd@CPlugininMemmanagerCommon@@IAAXPAVCDC@@@Z 00033c8c f   PlugininMemmanagerCommon.obj
 0001:00022d5c       ?DrawTitle@CPlugininMemmanagerCommon@@IAAXPA_W@Z 00033d5c f   PlugininMemmanagerCommon.obj
 0001:00022e34       ?DrawValue@CPlugininMemmanagerCommon@@IAAXPB_W@Z 00033e34 f   PlugininMemmanagerCommon.obj
 0001:00022f0c       ?GetRuntimeClass@CPlugininMemmanagerAadDlg@@UBAPAUCRuntimeClass@@XZ 00033f0c f   PlugininMemmanagerAadDlg.obj
 0001:00022f18       ??_ECPlugininMemmanagerAadDlg@@UAAPAXI@Z 00033f18 f i  CIL library: CIL module
 0001:00022f18       ??_GCPlugininMemmanagerAadDlg@@UAAPAXI@Z 00033f18 f i PlugininMemmanagerAadDlg.obj
 0001:00022f44       ??1CPlugininMemmanagerAadDlg@@UAA@XZ 00033f44 f   PlugininMemmanagerAadDlg.obj
 0001:00022ff4       ?GetMessageMap@CPlugininMemmanagerAadDlg@@MBAPBUAFX_MSGMAP@@XZ 00033ff4 f   PlugininMemmanagerAadDlg.obj
 0001:00023000       ?OnInitDialog@CPlugininMemmanagerAadDlg@@MAAHXZ 00034000 f   PlugininMemmanagerAadDlg.obj
 0001:000230e0       ?OnPaint@CPlugininMemmanagerAadDlg@@QAAXXZ 000340e0 f   PlugininMemmanagerAadDlg.obj
 0001:000234cc       ?OnBnClickedButton1@CPlugininMemmanagerAadDlg@@QAAXXZ 000344cc f   PlugininMemmanagerAadDlg.obj
 0001:000235a8       ?AadDataWrite@CPlugininMemmanagerAadDlg@@AAAKXZ 000345a8 f   PlugininMemmanagerAadDlg.obj
 0001:00023770       ?OnTelopClose_@CPlugininMemmanagerAadDlg@@MAAXI@Z 00034770 f   PlugininMemmanagerAadDlg.obj
 0001:00023770       ?OnTelopClose_@CPlugininA1ScalerDlg@@MAAXI@Z 00034770 f   PlugininA1ScalerDlg.obj
 0001:0002379c       ??Y?$CStringT@_WV?$StrTraitMFC@_WV?$ChTraitsOS@_W@ATL@@@@@ATL@@QAAAAV01@PBD@Z 0003479c f i PlugininMemmanagerAadDlg.obj
 0001:00023860       ?Mid@?$CStringT@_WV?$StrTraitMFC@_WV?$ChTraitsOS@_W@ATL@@@@@ATL@@QBA?AV12@HH@Z 00034860 f i PlugininMemmanagerAadDlg.obj
 0001:00023908       ?GetManager@?$CStringT@_WV?$StrTraitMFC@_WV?$ChTraitsOS@_W@ATL@@@@@ATL@@QBAPAUIAtlStringMgr@2@XZ 00034908 f i PlugininMemmanagerAadDlg.obj
 0001:0002394c       ??0?$CSimpleStringT@_W$0A@@ATL@@QAA@PB_WHPAUIAtlStringMgr@1@@Z 0003494c f i PlugininMemmanagerAadDlg.obj
 0001:000239e0       ??4?$CStringT@_WV?$StrTraitMFC@_WV?$ChTraitsOS@_W@ATL@@@@@ATL@@QAAAAV01@PBD@Z 000349e0 f i PlugininMemmanagerAadDlg.obj
 0001:00023a94       ?CloneData@?$CSimpleStringT@_W$0A@@ATL@@CAPAUCStringData@2@PAU32@@Z 00034a94 f i PlugininMemmanagerAadDlg.obj
 0001:00023b30       ?GetRuntimeClass@CPlugininMemmanagerCameraDlg@@UBAPAUCRuntimeClass@@XZ 00034b30 f   PlugininMemmanagerCameraDlg.obj
 0001:00023b44       ??0CPlugininMemmanagerCameraDlg@@QAA@PAVCWnd@@@Z 00034b44 f   PlugininMemmanagerCameraDlg.obj
 0001:00023c30       ??_ECPlugininMemmanagerCameraDlg@@UAAPAXI@Z 00034c30 f i  CIL library: CIL module
 0001:00023c30       ??_GCPlugininMemmanagerCameraDlg@@UAAPAXI@Z 00034c30 f i PlugininMemmanagerCameraDlg.obj
 0001:00023c5c       ??1CPlugininMemmanagerCameraDlg@@UAA@XZ 00034c5c f   PlugininMemmanagerCameraDlg.obj
 0001:00023d64       ?GetMessageMap@CPlugininMemmanagerCameraDlg@@MBAPBUAFX_MSGMAP@@XZ 00034d64 f   PlugininMemmanagerCameraDlg.obj
 0001:00023d70       ?OnInitDialog@CPlugininMemmanagerCameraDlg@@MAAHXZ 00034d70 f   PlugininMemmanagerCameraDlg.obj
 0001:00024010       ?OnPaint@CPlugininMemmanagerCameraDlg@@QAAXXZ 00035010 f   PlugininMemmanagerCameraDlg.obj
 0001:00024308       ?OnBnClickedButtonPrev@CPlugininMemmanagerCameraDlg@@QAAXXZ 00035308 f   PlugininMemmanagerCameraDlg.obj
 0001:000243c4       ?OnBnClickedButtonNext@CPlugininMemmanagerCameraDlg@@QAAXXZ 000353c4 f   PlugininMemmanagerCameraDlg.obj
 0001:00024484       ?OnBnClickedButtonRear@CPlugininMemmanagerCameraDlg@@QAAXXZ 00035484 f   PlugininMemmanagerCameraDlg.obj
 0001:00024504       ?OnBnClickedButtonSide@CPlugininMemmanagerCameraDlg@@QAAXXZ 00035504 f   PlugininMemmanagerCameraDlg.obj
 0001:00024584       ?GetRuntimeClass@CPlugininMemmanagerMypcDlg@@UBAPAUCRuntimeClass@@XZ 00035584 f   PlugininMemmanagerMypcDlg.obj
 0001:00024590       ??_GCPlugininMemmanagerMypcDlg@@UAAPAXI@Z 00035590 f i PlugininMemmanagerMypcDlg.obj
 0001:00024590       ??_ECPlugininMemmanagerMypcDlg@@UAAPAXI@Z 00035590 f i  CIL library: CIL module
 0001:000245bc       ??1CPlugininMemmanagerMypcDlg@@UAA@XZ 000355bc f   PlugininMemmanagerMypcDlg.obj
 0001:00024618       ?GetMessageMap@CPlugininMemmanagerMypcDlg@@MBAPBUAFX_MSGMAP@@XZ 00035618 f   PlugininMemmanagerMypcDlg.obj
 0001:0002462c       ?OnInitDialog@CPlugininMemmanagerMypcDlg@@MAAHXZ 0003562c f   PlugininMemmanagerMypcDlg.obj
 0001:00024748       ?OnPaint@CPlugininMemmanagerMypcDlg@@QAAXXZ 00035748 f   PlugininMemmanagerMypcDlg.obj
 0001:000249b8       ??0?$CStringT@_WV?$StrTraitMFC@_WV?$ChTraitsOS@_W@ATL@@@@@ATL@@QAA@PBD@Z 000359b8 f i PlugininMemmanagerMypcDlg.obj
 0001:00024a40       ?GetRuntimeClass@CPlugininMemmanagerDriveDlg@@UBAPAUCRuntimeClass@@XZ 00035a40 f   PlugininMemmanagerDriveDlg.obj
 0001:00024a4c       ??_ECPlugininMemmanagerDriveDlg@@UAAPAXI@Z 00035a4c f i  CIL library: CIL module
 0001:00024a4c       ??_GCPlugininMemmanagerDriveDlg@@UAAPAXI@Z 00035a4c f i PlugininMemmanagerDriveDlg.obj
 0001:00024a70       ??1CPlugininMemmanagerDriveDlg@@UAA@XZ 00035a70 f   PlugininMemmanagerDriveDlg.obj
 0001:00024aac       ?GetMessageMap@CPlugininMemmanagerDriveDlg@@MBAPBUAFX_MSGMAP@@XZ 00035aac f   PlugininMemmanagerDriveDlg.obj
 0001:00024ac0       ?OnPaint@CPlugininMemmanagerDriveDlg@@QAAXXZ 00035ac0 f   PlugininMemmanagerDriveDlg.obj
 0001:00024bb8       ?GetRuntimeClass@CPlugininMemmanagerMapDlg@@UBAPAUCRuntimeClass@@XZ 00035bb8 f   PlugininMemmanagerMapDlg.obj
 0001:00024bc4       ??_GCPlugininMemmanagerMapDlg@@UAAPAXI@Z 00035bc4 f i PlugininMemmanagerMapDlg.obj
 0001:00024bc4       ??_ECPlugininMemmanagerMapDlg@@UAAPAXI@Z 00035bc4 f i  CIL library: CIL module
 0001:00024be8       ??1CPlugininMemmanagerMapDlg@@UAA@XZ 00035be8 f   PlugininMemmanagerMapDlg.obj
 0001:00024c24       ?GetMessageMap@CPlugininMemmanagerMapDlg@@MBAPBUAFX_MSGMAP@@XZ 00035c24 f   PlugininMemmanagerMapDlg.obj
 0001:00024c38       ?GetVerIDTxt@CPlugininMemmanagerMapDlg@@IAAHPA_WH@Z 00035c38 f   PlugininMemmanagerMapDlg.obj
 0001:00024dc4       ?OnInitDialog@CPlugininMemmanagerMapDlg@@MAAHXZ 00035dc4 f   PlugininMemmanagerMapDlg.obj
 0001:00024e10       ?CountDirectoriesAndFiles@@YAJAAUST_CountResult@@PB_W@Z 00035e10 f   PlugininMemmanagerMapDlg.obj
 0001:00025070       ?FormatMapGroupInfo@@YA?AV?$CStringT@_WV?$StrTraitMFC@_WV?$ChTraitsOS@_W@ATL@@@@@ATL@@PB_W00@Z 00036070 f   PlugininMemmanagerMapDlg.obj
 0001:00025144       ?OnPaint@CPlugininMemmanagerMapDlg@@QAAXXZ 00036144 f   PlugininMemmanagerMapDlg.obj
 0001:000256e4       ?GetRuntimeClass@CPlugininMemmanagerCouponInfoDlg@@UBAPAUCRuntimeClass@@XZ 000366e4 f   PlugininMemmanagerCouponInfoDlg.obj
 0001:000256f8       ??0CPlugininMemmanagerCouponInfoDlg@@QAA@PAVCWnd@@@Z 000366f8 f   PlugininMemmanagerCouponInfoDlg.obj
 0001:000258d4       ??_ECPlugininMemmanagerCouponInfoDlg@@UAAPAXI@Z 000368d4 f i  CIL library: CIL module
 0001:000258d4       ??_GCPlugininMemmanagerCouponInfoDlg@@UAAPAXI@Z 000368d4 f i PlugininMemmanagerCouponInfoDlg.obj
 0001:00025900       ??1CPlugininMemmanagerCouponInfoDlg@@UAA@XZ 00036900 f   PlugininMemmanagerCouponInfoDlg.obj
 0001:00025aac       ?GetMessageMap@CPlugininMemmanagerCouponInfoDlg@@MBAPBUAFX_MSGMAP@@XZ 00036aac f   PlugininMemmanagerCouponInfoDlg.obj
 0001:00025ab8       ?OnInitDialog@CPlugininMemmanagerCouponInfoDlg@@MAAHXZ 00036ab8 f   PlugininMemmanagerCouponInfoDlg.obj
 0001:00025e08       ?OnCtlColor@CPlugininMemmanagerDriveDlg@@QAAPAUHBRUSH__@@PAVCDC@@PAVCWnd@@I@Z 00036e08 f   PlugininMemmanagerDriveDlg.obj
 0001:00025e08       ?OnCtlColor@CPlugininMemmanagerAadDlg@@QAAPAUHBRUSH__@@PAVCDC@@PAVCWnd@@I@Z 00036e08 f   PlugininMemmanagerAadDlg.obj
 0001:00025e08       ?OnCtlColor@CPlugininMemmanagerMypcDlg@@QAAPAUHBRUSH__@@PAVCDC@@PAVCWnd@@I@Z 00036e08 f   PlugininMemmanagerMypcDlg.obj
 0001:00025e08       ?OnCtlColor@CPlugininVersionUpDlg@@QAAPAUHBRUSH__@@PAVCDC@@PAVCWnd@@I@Z 00036e08 f   PlugininVersionUpDlg.obj
 0001:00025e08       ?OnCtlColor@CPlugininMemmanagerMapInfoDlg@@QAAPAUHBRUSH__@@PAVCDC@@PAVCWnd@@I@Z 00036e08 f   PlugininMemmanagerMapInfoDlg.obj
 0001:00025e08       ?OnCtlColor@CPlugininManagementMainDlg@@QAAPAUHBRUSH__@@PAVCDC@@PAVCWnd@@I@Z 00036e08 f   PlugininManagementMainDlg.obj
 0001:00025e08       ?OnCtlColor@CPlugininMemmanagerCouponInfoDlg@@QAAPAUHBRUSH__@@PAVCDC@@PAVCWnd@@I@Z 00036e08 f   PlugininMemmanagerCouponInfoDlg.obj
 0001:00025e08       ?OnCtlColor@CPlugininMemmanagerMapDlg@@QAAPAUHBRUSH__@@PAVCDC@@PAVCWnd@@I@Z 00036e08 f   PlugininMemmanagerMapDlg.obj
 0001:00025e0c       ?OnResMapCouponInfo@CPlugininMemmanagerCouponInfoDlg@@MAAXIJ@Z 00036e0c f   PlugininMemmanagerCouponInfoDlg.obj
 0001:00025ed4       ?DrawTextToValue@CPlugininMemmanagerCouponInfoDlg@@IAAXAAVCDC@@PA_WHW4TIMEINDEX@1@AAUtagRECT@@3W4RECTCALCTYPE@1@@Z 00036ed4 f   PlugininMemmanagerCouponInfoDlg.obj
 0001:00026094       ?OnPaint@CPlugininMemmanagerCouponInfoDlg@@QAAXXZ 00037094 f   PlugininMemmanagerCouponInfoDlg.obj
 0001:00026c78       ?OnBnClickedButtonPrev@CPlugininMemmanagerCouponInfoDlg@@QAAXXZ 00037c78 f   PlugininMemmanagerCouponInfoDlg.obj
 0001:00026cc0       ?OnBnClickedButtonNext@CPlugininMemmanagerCouponInfoDlg@@QAAXXZ 00037cc0 f   PlugininMemmanagerCouponInfoDlg.obj
 0001:00026d0c       ?OnBnClickedButtonDown@CPlugininMemmanagerCouponInfoDlg@@QAAXXZ 00037d0c f   PlugininMemmanagerCouponInfoDlg.obj
 0001:00026d98       ?OnBnClickedButtonUp@CPlugininMemmanagerCouponInfoDlg@@QAAXXZ 00037d98 f   PlugininMemmanagerCouponInfoDlg.obj
 0001:00026e2c       ?OnBnClickedButton3@CPlugininMemmanagerCouponInfoDlg@@QAAXXZ 00037e2c f   PlugininMemmanagerCouponInfoDlg.obj
 0001:00026f50       ?GetRuntimeClass@CPlugininMemmanagerMapUpdateFreeDlg@@UBAPAUCRuntimeClass@@XZ 00037f50 f   PlugininMemmanagerMapUpdateFreeDlg.obj
 0001:00026f5c       ??_GCPlugininMemmanagerMapUpdateFreeDlg@@UAAPAXI@Z 00037f5c f i PlugininMemmanagerMapUpdateFreeDlg.obj
 0001:00026f5c       ??_ECPlugininMemmanagerMapUpdateFreeDlg@@UAAPAXI@Z 00037f5c f i  CIL library: CIL module
 0001:00026f88       ??1CPlugininMemmanagerMapUpdateFreeDlg@@UAA@XZ 00037f88 f   PlugininMemmanagerMapUpdateFreeDlg.obj
 0001:00026fec       ?GetMessageMap@CPlugininMemmanagerMapUpdateFreeDlg@@MBAPBUAFX_MSGMAP@@XZ 00037fec f   PlugininMemmanagerMapUpdateFreeDlg.obj
 0001:00026ff8       ?OnInitDialog@CPlugininMemmanagerMapUpdateFreeDlg@@MAAHXZ 00037ff8 f   PlugininMemmanagerMapUpdateFreeDlg.obj
 0001:00027050       ?GetRuntimeClass@CPlugininMemmanagerMapInfoDlg@@UBAPAUCRuntimeClass@@XZ 00038050 f   PlugininMemmanagerMapInfoDlg.obj
 0001:0002705c       ??_ECPlugininMemmanagerMapInfoDlg@@UAAPAXI@Z 0003805c f i  CIL library: CIL module
 0001:0002705c       ??_GCPlugininMemmanagerMapInfoDlg@@UAAPAXI@Z 0003805c f i PlugininMemmanagerMapInfoDlg.obj
 0001:00027088       ??1CPlugininMemmanagerMapInfoDlg@@UAA@XZ 00038088 f   PlugininMemmanagerMapInfoDlg.obj
 0001:00027104       ?GetMessageMap@CPlugininMemmanagerMapInfoDlg@@MBAPBUAFX_MSGMAP@@XZ 00038104 f   PlugininMemmanagerMapInfoDlg.obj
 0001:00027118       ?OnPaint@CPlugininMemmanagerMapInfoDlg@@QAAXXZ 00038118 f   PlugininMemmanagerMapInfoDlg.obj
 0001:0002768c       ?GetRuntimeClass@CPlugininMemmanagerMapUpdatePartsDlg@@UBAPAUCRuntimeClass@@XZ 0003868c f   PlugininMemmanagerMapUpdatePartsDlg.obj
 0001:000276a0       ??0CPlugininMemmanagerMapUpdatePartsDlg@@QAA@PAVCWnd@@@Z 000386a0 f   PlugininMemmanagerMapUpdatePartsDlg.obj
 0001:00027774       ??_ECPlugininMemmanagerMapUpdatePartsDlg@@UAAPAXI@Z 00038774 f i  CIL library: CIL module
 0001:00027774       ??_GCPlugininMemmanagerMapUpdatePartsDlg@@UAAPAXI@Z 00038774 f i PlugininMemmanagerMapUpdatePartsDlg.obj
 0001:000277a0       ??1CPlugininMemmanagerMapUpdatePartsDlg@@UAA@XZ 000387a0 f   PlugininMemmanagerMapUpdatePartsDlg.obj
 0001:00027884       ?GetMessageMap@CPlugininMemmanagerMapUpdatePartsDlg@@MBAPBUAFX_MSGMAP@@XZ 00038884 f   PlugininMemmanagerMapUpdatePartsDlg.obj
 0001:00027890       ?OnInitDialog@CPlugininMemmanagerMapUpdatePartsDlg@@MAAHXZ 00038890 f   PlugininMemmanagerMapUpdatePartsDlg.obj
 0001:00027a20       ?OnCtlColor@CPlugininMemmanagerMapUpdateFreeDlg@@QAAPAUHBRUSH__@@PAVCDC@@PAVCWnd@@I@Z 00038a20 f   PlugininMemmanagerMapUpdateFreeDlg.obj
 0001:00027a20       ?OnCtlColor@CPlugininMemmanagerMapUpdatePartsDlg@@QAAPAUHBRUSH__@@PAVCDC@@PAVCWnd@@I@Z 00038a20 f   PlugininMemmanagerMapUpdatePartsDlg.obj
 0001:00027a78       ?GetRuntimeClass@CPlugininFileviewDlg@@UBAPAUCRuntimeClass@@XZ 00038a78 f   PlugininFileviewDlg.obj
 0001:00027a8c       ??0CPlugininFileviewDlg@@QAA@PAVCWnd@@@Z 00038a8c f   PlugininFileviewDlg.obj
 0001:00027c54       ??_GCPlugininFileviewDlg@@UAAPAXI@Z 00038c54 f i PlugininFileviewDlg.obj
 0001:00027c54       ??_ECPlugininFileviewDlg@@UAAPAXI@Z 00038c54 f i  CIL library: CIL module
 0001:00027c80       ??1CPlugininFileviewDlg@@UAA@XZ 00038c80 f   PlugininFileviewDlg.obj
 0001:00027e28       ?DoDataExchange@CPlugininFileviewDlg@@MAAXPAVCDataExchange@@@Z 00038e28 f   PlugininFileviewDlg.obj
 0001:00027e4c       ?GetMessageMap@CPlugininFileviewDlg@@MBAPBUAFX_MSGMAP@@XZ 00038e4c f   PlugininFileviewDlg.obj
 0001:00027e60       ?SetListItem@CPlugininFileviewDlg@@IAAXPB_W@Z 00038e60 f   PlugininFileviewDlg.obj
 0001:00028044       ?AddListItem@CPlugininFileviewDlg@@IAAXPAU_WIN32_FIND_DATAW@@PA_WHH@Z 00039044 f   PlugininFileviewDlg.obj
 0001:000283a4       ?OnEnter@CPlugininFileviewDlg@@IAAXXZ 000393a4 f   PlugininFileviewDlg.obj
 0001:000285f4       ?DirCopy@CPlugininFileviewDlg@@IAAXPA_W00@Z 000395f4 f   PlugininFileviewDlg.obj
 0001:00028874       ?OnInitDialog@CPlugininFileviewDlg@@MAAHXZ 00039874 f   PlugininFileviewDlg.obj
 0001:00028e54       ?OnCtlColor@CPlugininFileviewDlg@@QAAPAUHBRUSH__@@PAVCDC@@PAVCWnd@@I@Z 00039e54 f   PlugininFileviewDlg.obj
 0001:00028ee0       ?OnNMClickList1@CPlugininFileviewDlg@@QAAXPAUtagNMHDR@@PAJ@Z 00039ee0 f   PlugininFileviewDlg.obj
 0001:00028f64       ?OnNMDblclkList1@CPlugininFileviewDlg@@QAAXPAUtagNMHDR@@PAJ@Z 00039f64 f   PlugininFileviewDlg.obj
 0001:00028ff8       ?OnBnClickedButtonCopy@CPlugininFileviewDlg@@QAAXXZ 00039ff8 f   PlugininFileviewDlg.obj
 0001:000291dc       ?OnBnClickedButtonPaste@CPlugininFileviewDlg@@QAAXXZ 0003a1dc f   PlugininFileviewDlg.obj
 0001:000293f0       ?OnBnClickedButtonDelete@CPlugininFileviewDlg@@QAAXXZ 0003a3f0 f   PlugininFileviewDlg.obj
 0001:00029550       ?OnBnClickedButton1Update@CPlugininFileviewDlg@@QAAXXZ 0003a550 f   PlugininFileviewDlg.obj
 0001:000295d4       ?GetModuleHandle2@CDllIsolationWrapperBase@@QAAPAUHINSTANCE__@@XZ 0003a5d4 f i PlugininFileviewDlg.obj
 0001:00029624       ??_ECListCtrl@@UAAPAXI@Z   0003a624 f i  CIL library: CIL module
 0001:00029624       ??_GCListCtrl@@UAAPAXI@Z   0003a624 f i PlugininFileviewDlg.obj
 0001:00029648       ?GetRuntimeClass@CPlugininBtTestDlg@@UBAPAUCRuntimeClass@@XZ 0003a648 f   PlugininBtTestDlg.obj
 0001:0002965c       ??0CPlugininBtTestDlg@@QAA@PAVCWnd@@@Z 0003a65c f   PlugininBtTestDlg.obj
 0001:00029964       ??_GCPlugininBtTestDlg@@UAAPAXI@Z 0003a964 f i PlugininBtTestDlg.obj
 0001:00029964       ??_ECPlugininBtTestDlg@@UAAPAXI@Z 0003a964 f i  CIL library: CIL module
 0001:00029990       ??1CPlugininBtTestDlg@@UAA@XZ 0003a990 f   PlugininBtTestDlg.obj
 0001:00029cc0       ?GetMessageMap@CPlugininBtTestDlg@@MBAPBUAFX_MSGMAP@@XZ 0003acc0 f   PlugininBtTestDlg.obj
 0001:00029ccc       ?OnInitDialog@CPlugininBtTestDlg@@MAAHXZ 0003accc f   PlugininBtTestDlg.obj
 0001:0002a3f8       ?ShowControl@CPlugininBtTestDlg@@IAAXI@Z 0003b3f8 f   PlugininBtTestDlg.obj
 0001:0002a878       ?OnPaint@CPlugininBtTestDlg@@QAAXXZ 0003b878 f   PlugininBtTestDlg.obj
 0001:0002acb0       ?OnBnClickedButton1@CPlugininBtTestDlg@@QAAXXZ 0003bcb0 f   PlugininBtTestDlg.obj
 0001:0002acfc       ?OnBnClickedButton2@CPlugininBtTestDlg@@QAAXXZ 0003bcfc f   PlugininBtTestDlg.obj
 0001:0002ad2c       ?OnBnClickedButton3@CPlugininBtTestDlg@@QAAXXZ 0003bd2c f   PlugininBtTestDlg.obj
 0001:0002ad5c       ?OnBnClickedButton41@CPlugininBtTestDlg@@QAAXXZ 0003bd5c f   PlugininBtTestDlg.obj
 0001:0002ad8c       ?OnBnClickedButton51@CPlugininBtTestDlg@@QAAXXZ 0003bd8c f   PlugininBtTestDlg.obj
 0001:0002adbc       ?OnBnClickedButton42@CPlugininBtTestDlg@@QAAXXZ 0003bdbc f   PlugininBtTestDlg.obj
 0001:0002adf0       ?OnBnClickedButton52@CPlugininBtTestDlg@@QAAXXZ 0003bdf0 f   PlugininBtTestDlg.obj
 0001:0002ae24       ?OnBnClickedButton43@CPlugininBtTestDlg@@QAAXXZ 0003be24 f   PlugininBtTestDlg.obj
 0001:0002ae58       ?OnBnClickedButton53@CPlugininBtTestDlg@@QAAXXZ 0003be58 f   PlugininBtTestDlg.obj
 0001:0002ae8c       ?OnBnClickedButton44@CPlugininBtTestDlg@@QAAXXZ 0003be8c f   PlugininBtTestDlg.obj
 0001:0002aec0       ?OnBnClickedButton54@CPlugininBtTestDlg@@QAAXXZ 0003bec0 f   PlugininBtTestDlg.obj
 0001:0002aef4       ?OnBnClickedButton45@CPlugininBtTestDlg@@QAAXXZ 0003bef4 f   PlugininBtTestDlg.obj
 0001:0002af24       ?OnBnClickedBtnNext@CPlugininBtTestDlg@@QAAXXZ 0003bf24 f   PlugininBtTestDlg.obj
 0001:0002af50       ?OnBnClickedBtnCancel@CPlugininBtTestDlg@@QAAXXZ 0003bf50 f   PlugininBtTestDlg.obj
 0001:0002af7c       ?OnBnClickedBtnUp@CPlugininBtTestDlg@@QAAXXZ 0003bf7c f   PlugininBtTestDlg.obj
 0001:0002b008       ?OnBnClickedBtnDown@CPlugininBtTestDlg@@QAAXXZ 0003c008 f   PlugininBtTestDlg.obj
 0001:0002b084       ??1?$CA2WEX@$0IA@@ATL@@QAA@XZ 0003c084 f i PlugininBtTestDlg.obj
 0001:0002b09c       ?Init@?$CA2WEX@$0IA@@ATL@@AAAXPBDI@Z 0003c09c f i PlugininBtTestDlg.obj
 0001:0002b17c       ??$AtlConvAllocMemory@_W@ATL@@YAXPAPA_WHPA_WH@Z 0003c17c f i PlugininBtTestDlg.obj
 0001:0002b230       ?AtlThrowLastWin32@ATL@@YAXXZ 0003c230 f i PlugininBtTestDlg.obj
 0001:0002b258       ?GetRuntimeClass@CPlugininVupVersionInfo@@UBAPAUCRuntimeClass@@XZ 0003c258 f   PlugininVupVersionInfo.obj
 0001:0002b264       ??_ECPlugininVupVersionInfo@@UAAPAXI@Z 0003c264 f i  CIL library: CIL module
 0001:0002b264       ??_GCPlugininVupVersionInfo@@UAAPAXI@Z 0003c264 f i PlugininVupVersionInfo.obj
 0001:0002b288       ??1CPlugininVupVersionInfo@@UAA@XZ 0003c288 f   PlugininVupVersionInfo.obj
 0001:0002b2c4       ?GetMessageMap@CPlugininVupVersionInfo@@MBAPBUAFX_MSGMAP@@XZ 0003c2c4 f   PlugininVupVersionInfo.obj
 0001:0002b2d0       ?OnInitDialog@CPlugininVupVersionInfo@@MAAHXZ 0003c2d0 f   PlugininVupVersionInfo.obj
 0001:0002b310       ?OnPaint@CPlugininVupVersionInfo@@QAAXXZ 0003c310 f   PlugininVupVersionInfo.obj
 0001:0002bd04       ?GetRuntimeClass@CPlugininSramSaveDlg@@UBAPAUCRuntimeClass@@XZ 0003cd04 f   PlugininSramSaveDlg.obj
 0001:0002bd18       ??0CPlugininSramSaveDlg@@QAA@PAVCWnd@@@Z 0003cd18 f   PlugininSramSaveDlg.obj
 0001:0002be68       ??_GCPlugininSramSaveDlg@@UAAPAXI@Z 0003ce68 f i PlugininSramSaveDlg.obj
 0001:0002be68       ??_ECPlugininSramSaveDlg@@UAAPAXI@Z 0003ce68 f i  CIL library: CIL module
 0001:0002be94       ??1CPlugininSramSaveDlg@@UAA@XZ 0003ce94 f   PlugininSramSaveDlg.obj
 0001:0002bfec       ?GetMessageMap@CPlugininSramSaveDlg@@MBAPBUAFX_MSGMAP@@XZ 0003cfec f   PlugininSramSaveDlg.obj
 0001:0002bff8       ?OnInitDialog@CPlugininSramSaveDlg@@MAAHXZ 0003cff8 f   PlugininSramSaveDlg.obj
 0001:0002c2f4       ?OnBnClickedButton1@CPlugininSramSaveDlg@@QAAXXZ 0003d2f4 f   PlugininSramSaveDlg.obj
 0001:0002c370       ?OnBnClickedButton2@CPlugininSramSaveDlg@@QAAXXZ 0003d370 f   PlugininSramSaveDlg.obj
 0001:0002c3ec       ?OnBnClickedButton3@CPlugininSramSaveDlg@@QAAXXZ 0003d3ec f   PlugininSramSaveDlg.obj
 0001:0002c468       ?OnBnClickedButton4@CPlugininSramSaveDlg@@QAAXXZ 0003d468 f   PlugininSramSaveDlg.obj
 0001:0002c4e4       ?OnBnClickedBtnSD@CPlugininSramSaveDlg@@QAAXXZ 0003d4e4 f   PlugininSramSaveDlg.obj
 0001:0002c55c       ?OnBnClickedBtnUSB@CPlugininSramSaveDlg@@QAAXXZ 0003d55c f   PlugininSramSaveDlg.obj
 0001:0002c5d4       ?PreTranslateMessage@CPlugininSramSaveDlg@@MAAHPAUtagMSG@@@Z 0003d5d4 f   PlugininSramSaveDlg.obj
 0001:0002c660       ?OnTelopClose_@CPlugininSramSaveDlg@@MAAXI@Z 0003d660 f   PlugininSramSaveDlg.obj
 0001:0002c7b8       ?GetRuntimeClass@CPlugininSystemInitDlg@@UBAPAUCRuntimeClass@@XZ 0003d7b8 f   PlugininSystemInitDlg.obj
 0001:0002c7cc       ??0CPlugininSystemInitDlg@@QAA@PAVCWnd@@@Z 0003d7cc f   PlugininSystemInitDlg.obj
 0001:0002c880       ??_ECPlugininSystemInitDlg@@UAAPAXI@Z 0003d880 f i  CIL library: CIL module
 0001:0002c880       ??_GCPlugininSystemInitDlg@@UAAPAXI@Z 0003d880 f i PlugininSystemInitDlg.obj
 0001:0002c8ac       ??1CPlugininSystemInitDlg@@UAA@XZ 0003d8ac f   PlugininSystemInitDlg.obj
 0001:0002c968       ?GetMessageMap@CPlugininSystemInitDlg@@MBAPBUAFX_MSGMAP@@XZ 0003d968 f   PlugininSystemInitDlg.obj
 0001:0002c974       ?OnInitDialog@CPlugininSystemInitDlg@@MAAHXZ 0003d974 f   PlugininSystemInitDlg.obj
 0001:0002ca7c       ?OnTelopClose_@CPlugininSystemInitDlg@@UAAXI@Z 0003da7c f   PlugininSystemInitDlg.obj
 0001:0002cbfc       ?PreTranslateMessage@CPlugininSystemInitDlg@@MAAHPAUtagMSG@@@Z 0003dbfc f   PlugininSystemInitDlg.obj
 0001:0002ccbc       ?OnBnClickedButton1@CPlugininSystemInitDlg@@QAAXXZ 0003dcbc f   PlugininSystemInitDlg.obj
 0001:0002cd20       ?OnBnClickedButtonGpsClear@CPlugininSystemInitDlg@@QAAXXZ 0003dd20 f   PlugininSystemInitDlg.obj
 0001:0002cd84       ?GetRuntimeClass@CPlugininCameraDataInfoDlg@@UBAPAUCRuntimeClass@@XZ 0003dd84 f   PlugininCameraDataInfoDlg.obj
 0001:0002cd90       ??_GCPlugininCameraDataInfoDlg@@UAAPAXI@Z 0003dd90 f i PlugininCameraDataInfoDlg.obj
 0001:0002cd90       ??_ECPlugininCameraDataInfoDlg@@UAAPAXI@Z 0003dd90 f i  CIL library: CIL module
 0001:0002cdc0       ?GetMessageMap@CPlugininCameraDataInfoDlg@@MBAPBUAFX_MSGMAP@@XZ 0003ddc0 f   PlugininCameraDataInfoDlg.obj
 0001:0002cdcc       ?OnInitDialog@CPlugininCameraDataInfoDlg@@MAAHXZ 0003ddcc f   PlugininCameraDataInfoDlg.obj
 0001:0002ce08       ?OnPaint@CPlugininCameraDataInfoDlg@@QAAXXZ 0003de08 f   PlugininCameraDataInfoDlg.obj
 0001:0002d05c       ?GetRuntimeClass@CPlugininSecurityOffDlg@@UBAPAUCRuntimeClass@@XZ 0003e05c f   PlugininSecurityOffDlg.obj
 0001:0002d068       ??_ECPlugininSecurityOffDlg@@UAAPAXI@Z 0003e068 f i  CIL library: CIL module
 0001:0002d068       ??_GCPlugininSecurityOffDlg@@UAAPAXI@Z 0003e068 f i PlugininSecurityOffDlg.obj
 0001:0002d094       ??1CPlugininSecurityOffDlg@@UAA@XZ 0003e094 f   PlugininSecurityOffDlg.obj
 0001:0002d128       ?GetMessageMap@CPlugininSecurityOffDlg@@MBAPBUAFX_MSGMAP@@XZ 0003e128 f   PlugininSecurityOffDlg.obj
 0001:0002d134       ?OnInitDialog@CPlugininSecurityOffDlg@@MAAHXZ 0003e134 f   PlugininSecurityOffDlg.obj
 0001:0002d1f0       ?OnBnClickedButton1@CPlugininSecurityOffDlg@@QAAXXZ 0003e1f0 f   PlugininSecurityOffDlg.obj
 0001:0002d2f4       ?OnCtlColor@CPlugininSecurityOffDlg@@QAAPAUHBRUSH__@@PAVCDC@@PAVCWnd@@I@Z 0003e2f4 f   PlugininSecurityOffDlg.obj
 0001:0002d2f4       ?OnCtlColor@CPlugininMapUpdateDlg@@QAAPAUHBRUSH__@@PAVCDC@@PAVCWnd@@I@Z 0003e2f4 f   PlugininMapUpdateDlg.obj
 0001:0002d330       ?OnTimer@CDiagDlg@@QAAXI@Z 0003e330 f   DiagDlg.obj
 0001:0002d330       ?OnTimer@CPlugininMonitorEnduranceTestDlg@@QAAXI@Z 0003e330 f   PlugininMonitorEnduranceTestDlg.obj
 0001:0002d330       ?OnClose@CPlugininSystemInitConfDlg@@QAAXXZ 0003e330 f   PlugininSystemInitConfDlg.obj
 0001:0002d330       ?OnTimer@CPlugininSecurityOffDlg@@QAAXI@Z 0003e330 f   PlugininSecurityOffDlg.obj
 0001:0002d334       ?PreTranslateMessage@CPlugininSecurityOffDlg@@MAAHPAUtagMSG@@@Z 0003e334 f   PlugininSecurityOffDlg.obj
 0001:0002d358       ?OnDestroy@CPlugininSecurityOffDlg@@QAAXXZ 0003e358 f   PlugininSecurityOffDlg.obj
 0001:0002d374       ?UpdateButtonSelect@CPlugininSystemDlg@@AAAXW4MMCWRITE_MODE@@@Z 0003e374 f   PlugininSystemDlg.obj
 0001:0002d448       ?GetRuntimeClass@CPlugininSystemDlg@@UBAPAUCRuntimeClass@@XZ 0003e448 f   PlugininSystemDlg.obj
 0001:0002d45c       ??0CPlugininSystemDlg@@QAA@PAVCWnd@@@Z 0003e45c f   PlugininSystemDlg.obj
 0001:0002d5c0       ??_ECPlugininSystemDlg@@UAAPAXI@Z 0003e5c0 f i  CIL library: CIL module
 0001:0002d5c0       ??_GCPlugininSystemDlg@@UAAPAXI@Z 0003e5c0 f i PlugininSystemDlg.obj
 0001:0002d5ec       ??1CPlugininSystemDlg@@UAA@XZ 0003e5ec f   PlugininSystemDlg.obj
 0001:0002d798       ?GetMessageMap@CPlugininSystemDlg@@MBAPBUAFX_MSGMAP@@XZ 0003e798 f   PlugininSystemDlg.obj
 0001:0002d7a4       ?OnInitDialog@CPlugininSystemDlg@@MAAHXZ 0003e7a4 f   PlugininSystemDlg.obj
 0001:0002dbb0       ?PreTranslateMessage@CPlugininSystemDlg@@MAAHPAUtagMSG@@@Z 0003ebb0 f   PlugininSystemDlg.obj
 0001:0002dcf8       ?OnBnClickedButton1@CPlugininSystemDlg@@QAAXXZ 0003ecf8 f   PlugininSystemDlg.obj
 0001:0002dd98       ?OnBnClickedButton2@CPlugininSystemDlg@@QAAXXZ 0003ed98 f   PlugininSystemDlg.obj
 0001:0002de38       ?OnBnClickedButton3@CPlugininSystemDlg@@QAAXXZ 0003ee38 f   PlugininSystemDlg.obj
 0001:0002ded0       ?OnBnClickedButton4@CPlugininSystemDlg@@QAAXXZ 0003eed0 f   PlugininSystemDlg.obj
 0001:0002dedc       ?OnBnClickedButton5@CPlugininSystemDlg@@QAAXXZ 0003eedc f   PlugininSystemDlg.obj
 0001:0002def0       ?OnBnClickedButton6@CPlugininSystemDlg@@QAAXXZ 0003eef0 f   PlugininSystemDlg.obj
 0001:0002df88       ?OnBnClickedButton7@CPlugininSystemDlg@@QAAXXZ 0003ef88 f   PlugininSystemDlg.obj
 0001:0002df94       ?ThreadSnapShotDumpMain@@YAKPAX@Z 0003ef94 f   PlugininSystemDlg.obj
 0001:0002dfb4       ?OnBnClickedButtonDump@CPlugininSystemDlg@@IAAXPB_W@Z 0003efb4 f   PlugininSystemDlg.obj
 0001:0002e058       ?OnTimer@CPlugininSystemDlg@@QAAXI@Z 0003f058 f   PlugininSystemDlg.obj
 0001:0002e104       ?GetRuntimeClass@CPlugininAudioDlg@@UBAPAUCRuntimeClass@@XZ 0003f104 f   PlugininAudioDlg.obj
 0001:0002e118       ??0CPlugininAudioDlg@@QAA@PAVCWnd@@@Z 0003f118 f   PlugininAudioDlg.obj
 0001:0002e32c       ??_GCPlugininAudioDlg@@UAAPAXI@Z 0003f32c f i PlugininAudioDlg.obj
 0001:0002e32c       ??_ECPlugininAudioDlg@@UAAPAXI@Z 0003f32c f i  CIL library: CIL module
 0001:0002e358       ??1CPlugininAudioDlg@@UAA@XZ 0003f358 f   PlugininAudioDlg.obj
 0001:0002e5c0       ?GetMessageMap@CPlugininAudioDlg@@MBAPBUAFX_MSGMAP@@XZ 0003f5c0 f   PlugininAudioDlg.obj
 0001:0002e5cc       ?OnInitDialog@CPlugininAudioDlg@@MAAHXZ 0003f5cc f   PlugininAudioDlg.obj
 0001:0002ec6c       ?OnBnClickedButton1@CPlugininAudioDlg@@QAAXXZ 0003fc6c f   PlugininAudioDlg.obj
 0001:0002ed1c       ?OnBnClickedButton2@CPlugininAudioDlg@@QAAXXZ 0003fd1c f   PlugininAudioDlg.obj
 0001:0002edbc       ?OnBnClickedButton3@CPlugininAudioDlg@@QAAXXZ 0003fdbc f   PlugininAudioDlg.obj
 0001:0002ee54       ?OnBnClickedButton4@CPlugininAudioDlg@@QAAXXZ 0003fe54 f   PlugininAudioDlg.obj
 0001:0002ef18       ?OnBnClickedButton5@CPlugininAudioDlg@@QAAXXZ 0003ff18 f   PlugininAudioDlg.obj
 0001:0002efa8       ?OnBnClickedButton6@CPlugininAudioDlg@@QAAXXZ 0003ffa8 f   PlugininAudioDlg.obj
 0001:0002f0d8       ?OnBnClickedButton7@CPlugininAudioDlg@@QAAXXZ 000400d8 f   PlugininAudioDlg.obj
 0001:0002f154       ?OnBnClickedButton8@CPlugininAudioDlg@@QAAXXZ 00040154 f   PlugininAudioDlg.obj
 0001:0002f1f0       ?ShowControl@CPlugininAudioDlg@@IAAXH@Z 000401f0 f   PlugininAudioDlg.obj
 0001:0002f2b4       ?ClickedMenu@CPlugininAudioDlg@@QAAJABU_FUNCTIONINFO@@PAVCDialogBase@@@Z 000402b4 f   PlugininAudioDlg.obj
 0001:0002f470       ?PreTranslateMessage@CPlugininAudioDlg@@UAAHPAUtagMSG@@@Z 00040470 f   PlugininAudioDlg.obj
 0001:0002f514       ?GetPageIndex@CPlugininAudioHistoryBaseDlg@@MBAIXZ 00040514 f i PlugininAudioCddbHistoryDlg.obj
 0001:0002f540       ?GetStartIndex@CPlugininAudioHistoryBaseDlg@@MBAIXZ 00040540 f i PlugininAudioCddbHistoryDlg.obj
 0001:0002f548       ?GetTotalPages@CPlugininAudioHistoryBaseDlg@@MBAIXZ 00040548 f i PlugininAudioCddbHistoryDlg.obj
 0001:0002f5a0       ?GetRows@CPlugininAudioCddbHistoryDlg@@UBAIXZ 000405a0 f i PlugininAudioCddbHistoryDlg.obj
 0001:0002f5a0       ?GetRows@CPlugininAudioRecHistoryDlg@@UBAIXZ 000405a0 f i PlugininAudioRecHistoryDlg.obj
 0001:0002f5a8       ?GetAllRows@CPlugininAudioCddbHistoryDlg@@UBAIXZ 000405a8 f i PlugininAudioCddbHistoryDlg.obj
 0001:0002f5a8       ?GetAllRows@CPlugininAudioRecHistoryDlg@@UBAIXZ 000405a8 f i PlugininAudioRecHistoryDlg.obj
 0001:0002f5b0       ?GetTitle@CPlugininAudioCddbHistoryDlg@@UBAPB_WXZ 000405b0 f i PlugininAudioCddbHistoryDlg.obj
 0001:0002f5bc       ?GetRuntimeClass@CPlugininAudioCddbHistoryDlg@@UBAPAUCRuntimeClass@@XZ 000405bc f   PlugininAudioCddbHistoryDlg.obj
 0001:0002f988       ??_ECPlugininAudioCddbHistoryDlg@@UAAPAXI@Z 00040988 f i  CIL library: CIL module
 0001:0002f988       ??_GCPlugininAudioCddbHistoryDlg@@UAAPAXI@Z 00040988 f i PlugininAudioCddbHistoryDlg.obj
 0001:0002f9b8       ?OnInitDialog@CPlugininAudioCddbHistoryDlg@@MAAHXZ 000409b8 f   PlugininAudioCddbHistoryDlg.obj
 0001:0002fa28       ?UpdateButtonCaption@CPlugininAudioCddbHistoryDlg@@UAAXXZ 00040a28 f   PlugininAudioCddbHistoryDlg.obj
 0001:0002fbd8       ?GetRows@CPlugininAudioRecPowerFlickerHistoryDlg@@UBAIXZ 00040bd8 f i PlugininAudioRecPowerFlickerHistoryDlg.obj
 0001:0002fbd8       ?GetAllRows@CPlugininAudioRecPowerFlickerHistoryDlg@@UBAIXZ 00040bd8 f i PlugininAudioRecPowerFlickerHistoryDlg.obj
 0001:0002fbd8       ?GetRows@CPlugininAudioHistoryBaseDlg@@MBAIXZ 00040bd8 f i PlugininAudioHistoryBaseDlg.obj
 0001:0002fbe0       ?GetTitle@CPlugininAudioRecPowerFlickerHistoryDlg@@UBAPB_WXZ 00040be0 f i PlugininAudioRecPowerFlickerHistoryDlg.obj
 0001:0002fbec       ?GetRuntimeClass@CPlugininAudioRecPowerFlickerHistoryDlg@@UBAPAUCRuntimeClass@@XZ 00040bec f   PlugininAudioRecPowerFlickerHistoryDlg.obj
 0001:0002fbf8       ??_ECPlugininAudioRecPowerFlickerHistoryDlg@@UAAPAXI@Z 00040bf8 f i  CIL library: CIL module
 0001:0002fbf8       ??_GCPlugininAudioRecPowerFlickerHistoryDlg@@UAAPAXI@Z 00040bf8 f i PlugininAudioRecPowerFlickerHistoryDlg.obj
 0001:0002fc28       ?OnInitDialog@CPlugininAudioRecPowerFlickerHistoryDlg@@MAAHXZ 00040c28 f   PlugininAudioRecPowerFlickerHistoryDlg.obj
 0001:0002fcbc       ?UpdateButtonCaption@CPlugininAudioRecPowerFlickerHistoryDlg@@UAAXXZ 00040cbc f   PlugininAudioRecPowerFlickerHistoryDlg.obj
 0001:0002febc       ?UpdateScrollbar@CPlugininAudioRecPowerFlickerHistoryDlg@@UAAXXZ 00040ebc f   PlugininAudioRecPowerFlickerHistoryDlg.obj
 0001:0002ff18       ?OnBnClicked1@CPlugininAudioHistoryBaseDlg@@IAAXXZ 00040f18 f i PlugininAudioHistoryBaseDlg.obj
 0001:0002ff30       ?OnBnClicked2@CPlugininAudioHistoryBaseDlg@@IAAXXZ 00040f30 f i PlugininAudioHistoryBaseDlg.obj
 0001:0002ff48       ?OnBnClicked3@CPlugininAudioHistoryBaseDlg@@IAAXXZ 00040f48 f i PlugininAudioHistoryBaseDlg.obj
 0001:0002ff60       ?OnBnClicked4@CPlugininAudioHistoryBaseDlg@@IAAXXZ 00040f60 f i PlugininAudioHistoryBaseDlg.obj
 0001:0002ff78       ?OnBnClicked5@CPlugininAudioHistoryBaseDlg@@IAAXXZ 00040f78 f i PlugininAudioHistoryBaseDlg.obj
 0001:0002ff90       ?OnBnClicked6@CPlugininAudioHistoryBaseDlg@@IAAXXZ 00040f90 f i PlugininAudioHistoryBaseDlg.obj
 0001:0002ffa8       ?GetRuntimeClass@CPlugininAudioHistoryBaseDlg@@UBAPAUCRuntimeClass@@XZ 00040fa8 f   PlugininAudioHistoryBaseDlg.obj
 0001:0002ffbc       ??0CPlugininAudioHistoryBaseDlg@@QAA@IPAVCWnd@@@Z 00040fbc f   PlugininAudioHistoryBaseDlg.obj
 0001:000301b0       ??_ECPlugininAudioHistoryBaseDlg@@UAAPAXI@Z 000411b0 f i  CIL library: CIL module
 0001:000301b0       ??_GCPlugininAudioHistoryBaseDlg@@UAAPAXI@Z 000411b0 f i PlugininAudioHistoryBaseDlg.obj
 0001:000301dc       ??1CPlugininAudioHistoryBaseDlg@@UAA@XZ 000411dc f   PlugininAudioHistoryBaseDlg.obj
 0001:000303b0       ?GetThisMessageMap@CPlugininAudioHistoryBaseDlg@@KAPBUAFX_MSGMAP@@XZ 000413b0 f   PlugininAudioHistoryBaseDlg.obj
 0001:000303b0       ?GetMessageMap@CPlugininAudioHistoryBaseDlg@@MBAPBUAFX_MSGMAP@@XZ 000413b0 f   PlugininAudioHistoryBaseDlg.obj
 0001:000303bc       ?OnInitDialog@CPlugininAudioHistoryBaseDlg@@MAAHXZ 000413bc f   PlugininAudioHistoryBaseDlg.obj
 0001:000307d4       ?OnBnClickedButtonNext@CPlugininAudioHistoryBaseDlg@@IAAXXZ 000417d4 f   PlugininAudioHistoryBaseDlg.obj
 0001:00030864       ?OnBnClickedButtonPrev@CPlugininAudioHistoryBaseDlg@@IAAXXZ 00041864 f   PlugininAudioHistoryBaseDlg.obj
 0001:000308dc       ?UpdateScrollbar@CPlugininAudioHistoryBaseDlg@@MAAXXZ 000418dc f   PlugininAudioHistoryBaseDlg.obj
 0001:00030968       ?PreTranslateMessage@CPlugininCameraDataWriteDlg@@MAAHPAUtagMSG@@@Z 00041968 f   PlugininCameraDataWriteDlg.obj
 0001:00030968       ?PreTranslateMessage@CPlugininAudioCddbHistoryDlg@@MAAHPAUtagMSG@@@Z 00041968 f   PlugininAudioCddbHistoryDlg.obj
 0001:00030968       ?PreTranslateMessage@CPlugininAudioHistoryBaseDlg@@MAAHPAUtagMSG@@@Z 00041968 f   PlugininAudioHistoryBaseDlg.obj
 0001:00030968       ?PreTranslateMessage@CPlugininMasterImageWritingDlg@@MAAHPAUtagMSG@@@Z 00041968 f   PlugininMasterImageWritingDlg.obj
 0001:0003096c       ?GetButtonId@CPlugininAudioHistoryBaseDlg@@MAAHI@Z 0004196c f   PlugininAudioHistoryBaseDlg.obj
 0001:00030984       ?GetTitle@CPlugininAudioRecHistoryDlg@@UBAPB_WXZ 00041984 f i PlugininAudioRecHistoryDlg.obj
 0001:00030990       ?GetRuntimeClass@CPlugininAudioRecHistoryDlg@@UBAPAUCRuntimeClass@@XZ 00041990 f   PlugininAudioRecHistoryDlg.obj
 0001:00031168       ??_GCPlugininAudioRecHistoryDlg@@UAAPAXI@Z 00042168 f i PlugininAudioRecHistoryDlg.obj
 0001:00031168       ??_ECPlugininAudioRecHistoryDlg@@UAAPAXI@Z 00042168 f i  CIL library: CIL module
 0001:00031198       ?GetMessageMap@CPlugininAudioCddbHistoryDlg@@MBAPBUAFX_MSGMAP@@XZ 00042198 f   PlugininAudioCddbHistoryDlg.obj
 0001:00031198       ?GetMessageMap@CPlugininAudioRecHistoryDlg@@MBAPBUAFX_MSGMAP@@XZ 00042198 f   PlugininAudioRecHistoryDlg.obj
 0001:00031198       ?GetMessageMap@CPlugininAudioRecPowerFlickerHistoryDlg@@MBAPBUAFX_MSGMAP@@XZ 00042198 f   PlugininAudioRecPowerFlickerHistoryDlg.obj
 0001:000311a4       ?OnInitDialog@CPlugininAudioRecHistoryDlg@@MAAHXZ 000421a4 f   PlugininAudioRecHistoryDlg.obj
 0001:00031214       ?UpdateButtonCaption@CPlugininAudioRecHistoryDlg@@UAAXXZ 00042214 f   PlugininAudioRecHistoryDlg.obj
 0001:0003165c       ??1?$CStringT@_WV?$StrTraitATL@_WV?$ChTraitsOS@_W@ATL@@@ATL@@@ATL@@QAA@XZ 0004265c f i syslibrary:SYS_String.obj
 0001:0003165c       ??1?$CSimpleStringT@D$0A@@ATL@@QAA@XZ 0004265c f i PlugininAudioRecHistoryDlg.obj
 0001:0003165c       ??1?$CStringT@_WV?$StrTraitMFC@_WV?$ChTraitsOS@_W@ATL@@@@@ATL@@QAA@XZ 0004265c f i DIAG_PageManager.obj
 0001:0003165c       ??1?$CStringT@DV?$StrTraitMFC@DV?$ChTraitsOS@D@ATL@@@@@ATL@@QAA@XZ 0004265c f i PlugininAudioRecHistoryDlg.obj
 0001:0003165c       ??1?$CSimpleStringT@_W$0A@@ATL@@QAA@XZ 0004265c f i DIAG_PageManager.obj
 0001:0003168c       ?CheckImplicitLoad@?$CStringT@DV?$StrTraitMFC@DV?$ChTraitsOS@D@ATL@@@@@ATL@@AAA_NPBX@Z 0004268c f i PlugininAudioRecHistoryDlg.obj
 0001:000316dc       ?LoadStringW@?$CStringT@DV?$StrTraitMFC@DV?$ChTraitsOS@D@ATL@@@@@ATL@@QAAHPAUHINSTANCE__@@I@Z 000426dc f i PlugininAudioRecHistoryDlg.obj
 0001:000317c0       ?SetString@?$CSimpleStringT@D$0A@@ATL@@QAAXPBDH@Z 000427c0 f i PlugininAudioRecHistoryDlg.obj
 0001:00031878       ?Empty@?$CSimpleStringT@D$0A@@ATL@@QAAXXZ 00042878 f i PlugininAudioRecHistoryDlg.obj
 0001:00031918       ?PrepareWrite2@?$CSimpleStringT@D$0A@@ATL@@AAAXH@Z 00042918 f i PlugininAudioRecHistoryDlg.obj
 0001:0003197c       ?Fork@?$CSimpleStringT@D$0A@@ATL@@AAAXH@Z 0004297c f i PlugininAudioRecHistoryDlg.obj
 0001:00031a10       ?Reallocate@?$CSimpleStringT@D$0A@@ATL@@AAAXH@Z 00042a10 f i PlugininAudioRecHistoryDlg.obj
 0001:00031a68       ?ThrowMemoryException@?$CSimpleStringT@_W$0A@@ATL@@KAXXZ 00042a68 f i DIAG_PageManager.obj
 0001:00031a68       ?ThrowMemoryException@?$CSimpleStringT@D$0A@@ATL@@KAXXZ 00042a68 f i PlugininAudioRecHistoryDlg.obj
 0001:00031a78       ?AppendFormat@?$CStringT@DV?$StrTraitMFC@DV?$ChTraitsOS@D@ATL@@@@@ATL@@QAAXPBDZZ 00042a78 f i PlugininAudioRecHistoryDlg.obj
 0001:00031a9c       ?AppendFormatV@?$CStringT@DV?$StrTraitMFC@DV?$ChTraitsOS@D@ATL@@@@@ATL@@QAAXPBDPAD@Z 00042a9c f i PlugininAudioRecHistoryDlg.obj
 0001:00031c10       ?GetRuntimeClass@CPlugininAudioCddbManagerDlg@@UBAPAUCRuntimeClass@@XZ 00042c10 f   PlugininAudioCddbManagerDlg.obj
 0001:00031c1c       ?CDDBWriteCallBack@@YAHPAXKPAUtagCDDBDumpArgs@@@Z 00042c1c f   PlugininAudioCddbManagerDlg.obj
 0001:00031ca0       ?CDDBWrite@@YAHPAX@Z       00042ca0 f   PlugininAudioCddbManagerDlg.obj
 0001:00031de4       ??0CPlugininAudioCddbManagerDlg@@QAA@PAVCWnd@@@Z 00042de4 f   PlugininAudioCddbManagerDlg.obj
 0001:00031ef4       ??_GCPlugininAudioCddbManagerDlg@@UAAPAXI@Z 00042ef4 f i PlugininAudioCddbManagerDlg.obj
 0001:00031ef4       ??_ECPlugininAudioCddbManagerDlg@@UAAPAXI@Z 00042ef4 f i  CIL library: CIL module
 0001:00031f20       ??1CPlugininAudioCddbManagerDlg@@UAA@XZ 00042f20 f   PlugininAudioCddbManagerDlg.obj
 0001:0003202c       ?GetMessageMap@CPlugininAudioCddbManagerDlg@@MBAPBUAFX_MSGMAP@@XZ 0004302c f   PlugininAudioCddbManagerDlg.obj
 0001:00032038       ?OnInitDialog@CPlugininAudioCddbManagerDlg@@MAAHXZ 00043038 f   PlugininAudioCddbManagerDlg.obj
 0001:00032820       ?OnBnClickedFormat@CPlugininAudioCddbManagerDlg@@QAAXXZ 00043820 f   PlugininAudioCddbManagerDlg.obj
 0001:00032878       ?OnBnClickedCopy@CPlugininAudioCddbManagerDlg@@QAAXXZ 00043878 f   PlugininAudioCddbManagerDlg.obj
 0001:000328d0       ?OnBnClickedCheck@CPlugininAudioCddbManagerDlg@@QAAXXZ 000438d0 f   PlugininAudioCddbManagerDlg.obj
 0001:00032930       ?OnBnClickedImageWrite@CPlugininAudioCddbManagerDlg@@QAAXXZ 00043930 f   PlugininAudioCddbManagerDlg.obj
 0001:00032978       ?SendCddbRecoverryMessage@CPlugininAudioCddbManagerDlg@@AAAJW4E_DIAG_CDDB_TYPE@1@@Z 00043978 f   PlugininAudioCddbManagerDlg.obj
 0001:00032a80       ?DispCddbHashData@CPlugininAudioCddbManagerDlg@@AAAXAAUST_MM_CDDB_CONFIRM_RESULT@@K@Z 00043a80 f   PlugininAudioCddbManagerDlg.obj
 0001:00032c20       ?CddbHashDataClear@CPlugininAudioCddbManagerDlg@@AAAXXZ 00043c20 f   PlugininAudioCddbManagerDlg.obj
 0001:00032db8       ?UpdateCddbHash@CPlugininAudioCddbManagerDlg@@AAAXXZ 00043db8 f   PlugininAudioCddbManagerDlg.obj
 0001:00032ee0       ?OnTelopClose_@CPlugininAudioCddbManagerDlg@@MAAXI@Z 00043ee0 f   PlugininAudioCddbManagerDlg.obj
 0001:00033070       ?PreTranslateMessage@CPlugininAudioCddbManagerDlg@@MAAHPAUtagMSG@@@Z 00044070 f   PlugininAudioCddbManagerDlg.obj
 0001:00033200       ?CddbRecoverryStop@CPlugininAudioCddbManagerDlg@@AAAXW4E_DIAG_CDDB_TYPE@1@@Z 00044200 f   PlugininAudioCddbManagerDlg.obj
 0001:000332b8       ?OnDestroy@CPlugininAudioCddbManagerDlg@@QAAXXZ 000442b8 f   PlugininAudioCddbManagerDlg.obj
 0001:00033320       ??$EnableControls@$04@CPlugininAudioCddbManagerDlg@@ABAXAAY04$$CBH_N@Z 00044320 f i PlugininAudioCddbManagerDlg.obj
 0001:000333f0       ?GetRuntimeClass@CPlugininInstallKeyDlg@@UBAPAUCRuntimeClass@@XZ 000443f0 f   PlugininInstallKeyDlg.obj
 0001:00033404       ??0CPlugininInstallKeyDlg@@QAA@PAVCWnd@@@Z 00044404 f   PlugininInstallKeyDlg.obj
 0001:00033624       ??_GCPlugininInstallKeyDlg@@UAAPAXI@Z 00044624 f i PlugininInstallKeyDlg.obj
 0001:00033624       ??_ECPlugininInstallKeyDlg@@UAAPAXI@Z 00044624 f i  CIL library: CIL module
 0001:00033650       ??1CPlugininInstallKeyDlg@@UAA@XZ 00044650 f   PlugininInstallKeyDlg.obj
 0001:000338c4       ?GetMessageMap@CPlugininInstallKeyDlg@@MBAPBUAFX_MSGMAP@@XZ 000448c4 f   PlugininInstallKeyDlg.obj
 0001:000338d8       ?AddKey@CPlugininInstallKeyDlg@@IAAXD@Z 000448d8 f   PlugininInstallKeyDlg.obj
 0001:00033c10       ?EnableMenuCtrl@CPlugininInstallKeyDlg@@IAAXH@Z 00044c10 f   PlugininInstallKeyDlg.obj
 0001:00033d0c       ?OnInitDialog@CPlugininInstallKeyDlg@@MAAHXZ 00044d0c f   PlugininInstallKeyDlg.obj
 0001:000341f0       ?OnPaint@CPlugininInstallKeyDlg@@QAAXXZ 000451f0 f   PlugininInstallKeyDlg.obj
 0001:000346b4       ?PreTranslateMessage@CPlugininInstallKeyDlg@@MAAHPAUtagMSG@@@Z 000456b4 f   PlugininInstallKeyDlg.obj
 0001:000347e4       ?OnTimer@CPlugininInstallKeyDlg@@QAAXI@Z 000457e4 f   PlugininInstallKeyDlg.obj
 0001:00034824       ?OnBnClickedButtonDelete@CPlugininInstallKeyDlg@@QAAXXZ 00045824 f   PlugininInstallKeyDlg.obj
 0001:00034834       ?OnBnClickedButtonEnter@CPlugininInstallKeyDlg@@QAAXXZ 00045834 f   PlugininInstallKeyDlg.obj
 0001:00034960       ?OnBnClickedButtonA@CPlugininInstallKeyDlg@@QAAXXZ 00045960 f   PlugininInstallKeyDlg.obj
 0001:00034968       ?OnBnClickedButtonB@CPlugininInstallKeyDlg@@QAAXXZ 00045968 f   PlugininInstallKeyDlg.obj
 0001:00034970       ?OnBnClickedButtonC@CPlugininInstallKeyDlg@@QAAXXZ 00045970 f   PlugininInstallKeyDlg.obj
 0001:00034978       ?OnBnClickedButtonD@CPlugininInstallKeyDlg@@QAAXXZ 00045978 f   PlugininInstallKeyDlg.obj
 0001:00034980       ?OnBnClickedButtonE@CPlugininInstallKeyDlg@@QAAXXZ 00045980 f   PlugininInstallKeyDlg.obj
 0001:00034988       ?OnBnClickedButtonF@CPlugininInstallKeyDlg@@QAAXXZ 00045988 f   PlugininInstallKeyDlg.obj
 0001:00034990       ?OnBnClickedButtonG@CPlugininInstallKeyDlg@@QAAXXZ 00045990 f   PlugininInstallKeyDlg.obj
 0001:00034998       ?OnBnClickedButtonh@CPlugininInstallKeyDlg@@QAAXXZ 00045998 f   PlugininInstallKeyDlg.obj
 0001:000349a0       ?OnBnClickedButtonI@CPlugininInstallKeyDlg@@QAAXXZ 000459a0 f   PlugininInstallKeyDlg.obj
 0001:000349a8       ?OnBnClickedButtonJ@CPlugininInstallKeyDlg@@QAAXXZ 000459a8 f   PlugininInstallKeyDlg.obj
 0001:000349b0       ?OnBnClickedButtonK@CPlugininInstallKeyDlg@@QAAXXZ 000459b0 f   PlugininInstallKeyDlg.obj
 0001:000349b8       ?OnBnClickedButtonL@CPlugininInstallKeyDlg@@QAAXXZ 000459b8 f   PlugininInstallKeyDlg.obj
 0001:000349c0       ?OnBnClickedButtonM@CPlugininInstallKeyDlg@@QAAXXZ 000459c0 f   PlugininInstallKeyDlg.obj
 0001:000349c8       ?OnBnClickedButtonN@CPlugininInstallKeyDlg@@QAAXXZ 000459c8 f   PlugininInstallKeyDlg.obj
 0001:000349d0       ?OnBnClickedButtonP@CPlugininInstallKeyDlg@@QAAXXZ 000459d0 f   PlugininInstallKeyDlg.obj
 0001:000349d8       ?OnBnClickedButtonQ@CPlugininInstallKeyDlg@@QAAXXZ 000459d8 f   PlugininInstallKeyDlg.obj
 0001:000349e0       ?OnBnClickedButtonR@CPlugininInstallKeyDlg@@QAAXXZ 000459e0 f   PlugininInstallKeyDlg.obj
 0001:000349e8       ?OnBnClickedButtonS@CPlugininInstallKeyDlg@@QAAXXZ 000459e8 f   PlugininInstallKeyDlg.obj
 0001:000349f0       ?OnBnClickedButtonT@CPlugininInstallKeyDlg@@QAAXXZ 000459f0 f   PlugininInstallKeyDlg.obj
 0001:000349f8       ?OnBnClickedButtonU@CPlugininInstallKeyDlg@@QAAXXZ 000459f8 f   PlugininInstallKeyDlg.obj
 0001:00034a00       ?OnBnClickedButtonV@CPlugininInstallKeyDlg@@QAAXXZ 00045a00 f   PlugininInstallKeyDlg.obj
 0001:00034a08       ?OnBnClickedButtonW@CPlugininInstallKeyDlg@@QAAXXZ 00045a08 f   PlugininInstallKeyDlg.obj
 0001:00034a10       ?OnBnClickedButtonX@CPlugininInstallKeyDlg@@QAAXXZ 00045a10 f   PlugininInstallKeyDlg.obj
 0001:00034a18       ?OnBnClickedButtonY@CPlugininInstallKeyDlg@@QAAXXZ 00045a18 f   PlugininInstallKeyDlg.obj
 0001:00034a20       ?OnBnClickedButtonZ@CPlugininInstallKeyDlg@@QAAXXZ 00045a20 f   PlugininInstallKeyDlg.obj
 0001:00034a28       ?OnBnClickedButtonN0@CPlugininInstallKeyDlg@@QAAXXZ 00045a28 f   PlugininInstallKeyDlg.obj
 0001:00034a28       ?OnBnClickedButtonO@CPlugininInstallKeyDlg@@QAAXXZ 00045a28 f   PlugininInstallKeyDlg.obj
 0001:00034a30       ?OnBnClickedButtonN1@CPlugininInstallKeyDlg@@QAAXXZ 00045a30 f   PlugininInstallKeyDlg.obj
 0001:00034a38       ?OnBnClickedButtonN2@CPlugininInstallKeyDlg@@QAAXXZ 00045a38 f   PlugininInstallKeyDlg.obj
 0001:00034a40       ?OnBnClickedButtonN3@CPlugininInstallKeyDlg@@QAAXXZ 00045a40 f   PlugininInstallKeyDlg.obj
 0001:00034a48       ?OnBnClickedButtonN4@CPlugininInstallKeyDlg@@QAAXXZ 00045a48 f   PlugininInstallKeyDlg.obj
 0001:00034a50       ?OnBnClickedButtonN5@CPlugininInstallKeyDlg@@QAAXXZ 00045a50 f   PlugininInstallKeyDlg.obj
 0001:00034a58       ?OnBnClickedButtonN6@CPlugininInstallKeyDlg@@QAAXXZ 00045a58 f   PlugininInstallKeyDlg.obj
 0001:00034a60       ?OnBnClickedButtonN7@CPlugininInstallKeyDlg@@QAAXXZ 00045a60 f   PlugininInstallKeyDlg.obj
 0001:00034a68       ?OnBnClickedButtonN8@CPlugininInstallKeyDlg@@QAAXXZ 00045a68 f   PlugininInstallKeyDlg.obj
 0001:00034a70       ?OnBnClickedButtonN9@CPlugininInstallKeyDlg@@QAAXXZ 00045a70 f   PlugininInstallKeyDlg.obj
 0001:00034a78       ?OnDestroy@CPlugininInstallKeyDlg@@QAAXXZ 00045a78 f   PlugininInstallKeyDlg.obj
 0001:00034ab4       ??4?$CSimpleStringT@_W$0A@@ATL@@QAAAAV01@ABV01@@Z 00045ab4 f i PlugininInstallKeyDlg.obj
 0001:00034b50       ??8ATL@@YA_NABV?$CStringT@_WV?$StrTraitMFC@_WV?$ChTraitsOS@_W@ATL@@@@@0@0@Z 00045b50 f i PlugininInstallKeyDlg.obj
 0001:00034c3c       ?_StartProcess@@YAPAXPB_W0@Z 00045c3c f i PlugininLogDlg.obj
 0001:00034d24       ?_CelogGetStart@@YAHW4CELOG_GET_MODE@@@Z 00045d24 f i PlugininLogDlg.obj
 0001:00034e24       ?RecursiveDeleteFiles@@YAHPAKPB_W@Z 00045e24 f   PlugininLogDlg.obj
 0001:0003501c       ?ThreadProcLogFlush@@YAKPAX@Z 0004601c f   PlugininLogDlg.obj
 0001:000351f8       ?CopyDir@@YAHPAKPB_W1PAUHWND__@@@Z 000461f8 f   PlugininLogDlg.obj
 0001:0003544c       ?GetRuntimeClass@CPlugininLogDlg@@UBAPAUCRuntimeClass@@XZ 0004644c f   PlugininLogDlg.obj
 0001:00035460       ??0CPlugininLogDlg@@QAA@PAVCWnd@@@Z 00046460 f   PlugininLogDlg.obj
 0001:00035634       ??_GCPlugininLogDlg@@UAAPAXI@Z 00046634 f i PlugininLogDlg.obj
 0001:00035634       ??_ECPlugininLogDlg@@UAAPAXI@Z 00046634 f i  CIL library: CIL module
 0001:00035660       ??1CPlugininLogDlg@@UAA@XZ 00046660 f   PlugininLogDlg.obj
 0001:0003583c       ?GetMessageMap@CPlugininLogDlg@@MBAPBUAFX_MSGMAP@@XZ 0004683c f   PlugininLogDlg.obj
 0001:00035848       ?EnableMenuCtrl@CPlugininLogDlg@@IAAXH@Z 00046848 f   PlugininLogDlg.obj
 0001:000359c4       ?OnInitDialog@CPlugininLogDlg@@MAAHXZ 000469c4 f   PlugininLogDlg.obj
 0001:00035ec4       ?PathfindLogFlush@CPlugininLogDlg@@KAKXZ 00046ec4 f   PlugininLogDlg.obj
 0001:00035fd0       ?OnBnClickedButtonLogFlash@CPlugininLogDlg@@QAAXXZ 00046fd0 f   PlugininLogDlg.obj
 0001:00036104       ?OnBnClickedButton1LogCopy@CPlugininLogDlg@@QAAXXZ 00047104 f   PlugininLogDlg.obj
 0001:000365d4       ?OnBnClickedButtonCelogStart@CPlugininLogDlg@@QAAXXZ 000475d4 f   PlugininLogDlg.obj
 0001:00036650       ?OnBnClickedButtonCelogEnd@CPlugininLogDlg@@QAAXXZ 00047650 f   PlugininLogDlg.obj
 0001:00036684       ?OnCtlColor@CPlugininGPSSatelliteState@@QAAPAUHBRUSH__@@PAVCDC@@PAVCWnd@@I@Z 00047684 f   PlugininGPSSatelliteState.obj
 0001:00036684       ?OnCtlColor@CPlugininMovingRecordDlg@@QAAPAUHBRUSH__@@PAVCDC@@PAVCWnd@@I@Z 00047684 f   PlugininMovingRecordDlg.obj
 0001:00036684       ?OnCtlColor@CPlugininVupHistdlg@@QAAPAUHBRUSH__@@PAVCDC@@PAVCWnd@@I@Z 00047684 f   PlugininVupHistdlg.obj
 0001:00036684       ?OnCtlColor@CPlugininLogDlg@@QAAPAUHBRUSH__@@PAVCDC@@PAVCWnd@@I@Z 00047684 f   PlugininLogDlg.obj
 0001:00036710       ?OnTimer@CPlugininLogDlg@@QAAXI@Z 00047710 f   PlugininLogDlg.obj
 0001:00036764       ?PreTranslateMessage@CPlugininLogDlg@@MAAHPAUtagMSG@@@Z 00047764 f   PlugininLogDlg.obj
 0001:00036a10       ?InitalizeDealerLog@@YAJXZ 00047a10 f   PlugininLogDlg.obj
 0001:00036b40       ?OnBnClickedButtonCelogDelete@CPlugininLogDlg@@QAAXXZ 00047b40 f   PlugininLogDlg.obj
 0001:00036b80       ?OnTelopClose_@CPlugininLogDlg@@MAAXI@Z 00047b80 f   PlugininLogDlg.obj
 0001:00036c84       ?OnBnClickedBtnSD@CPlugininLogDlg@@QAAXXZ 00047c84 f   PlugininLogDlg.obj
 0001:00036cac       ?OnBnClickedBtnUSB@CPlugininLogDlg@@QAAXXZ 00047cac f   PlugininLogDlg.obj
 0001:00036cd4       ?UpdateMediaSelect@CPlugininLogDlg@@QAAXXZ 00047cd4 f   PlugininLogDlg.obj
 0001:00036da8       ?UpdateCelogButtonSelect@CPlugininLogDlg@@QAAXXZ 00047da8 f   PlugininLogDlg.obj
 0001:00036e20       ?OnBnClickedButtonCelogCpuusage@CPlugininLogDlg@@QAAXXZ 00047e20 f   PlugininLogDlg.obj
 0001:00036e9c       ?OnBnClickedButtonCelogWaitevent@CPlugininLogDlg@@QAAXXZ 00047e9c f   PlugininLogDlg.obj
 0001:00036f18       ?GetRuntimeClass@CPlugininMapUpdateDlg@@UBAPAUCRuntimeClass@@XZ 00047f18 f   PlugininMapUpdateDlg.obj
 0001:00036f24       ??_ECPlugininMapUpdateDlg@@UAAPAXI@Z 00047f24 f i  CIL library: CIL module
 0001:00036f24       ??_GCPlugininMapUpdateDlg@@UAAPAXI@Z 00047f24 f i PlugininMapUpdateDlg.obj
 0001:00036f50       ??1CPlugininMapUpdateDlg@@UAA@XZ 00047f50 f   PlugininMapUpdateDlg.obj
 0001:00036fe4       ?GetMessageMap@CPlugininMapUpdateDlg@@MBAPBUAFX_MSGMAP@@XZ 00047fe4 f   PlugininMapUpdateDlg.obj
 0001:00036ff0       ?OnInitDialog@CPlugininMapUpdateDlg@@MAAHXZ 00047ff0 f   PlugininMapUpdateDlg.obj
 0001:00037094       ?OnBnClickedButton1@CPlugininMapUpdateDlg@@QAAXXZ 00048094 f   PlugininMapUpdateDlg.obj
 0001:000370e8       ?GetRuntimeClass@CPlugininWarnigSoundDlg@@UBAPAUCRuntimeClass@@XZ 000480e8 f   PlugininWarnigSoundDlg.obj
 0001:000370f4       ??_ECPlugininWarnigSoundDlg@@UAAPAXI@Z 000480f4 f i  CIL library: CIL module
 0001:000370f4       ??_GCPlugininWarnigSoundDlg@@UAAPAXI@Z 000480f4 f i PlugininWarnigSoundDlg.obj
 0001:00037120       ??1CPlugininWarnigSoundDlg@@UAA@XZ 00048120 f   PlugininWarnigSoundDlg.obj
 0001:00037184       ?GetMessageMap@CPlugininWarnigSoundDlg@@MBAPBUAFX_MSGMAP@@XZ 00048184 f   PlugininWarnigSoundDlg.obj
 0001:00037190       ?OnInitDialog@CPlugininWarnigSoundDlg@@MAAHXZ 00048190 f   PlugininWarnigSoundDlg.obj
 0001:00037384       ?OnCtlColor@CPlugininWarnigSoundDlg@@QAAPAUHBRUSH__@@PAVCDC@@PAVCWnd@@I@Z 00048384 f   PlugininWarnigSoundDlg.obj
 0001:00037498       ?OnBnClickedCheck1@CPlugininWarnigSoundDlg@@QAAXXZ 00048498 f   PlugininWarnigSoundDlg.obj
 0001:00037500       ?OnBnClickedCheck2@CPlugininWarnigSoundDlg@@QAAXXZ 00048500 f   PlugininWarnigSoundDlg.obj
 0001:00037568       ?OnBnClickedCheck3@CPlugininWarnigSoundDlg@@QAAXXZ 00048568 f   PlugininWarnigSoundDlg.obj
 0001:000375d0       ?GetRuntimeClass@CPlugininBuyUpdateDayUpdateDlg@@UBAPAUCRuntimeClass@@XZ 000485d0 f   PlugininBuyUpdateDayUpdateDlg.obj
 0001:000375e4       ??0CPlugininBuyUpdateDayUpdateDlg@@QAA@PAVCWnd@@@Z 000485e4 f   PlugininBuyUpdateDayUpdateDlg.obj
 0001:00037ad4       ??_ECPlugininBuyUpdateDayUpdateDlg@@UAAPAXI@Z 00048ad4 f i  CIL library: CIL module
 0001:00037ad4       ??_GCPlugininBuyUpdateDayUpdateDlg@@UAAPAXI@Z 00048ad4 f i PlugininBuyUpdateDayUpdateDlg.obj
 0001:00037b00       ??1CPlugininBuyUpdateDayUpdateDlg@@UAA@XZ 00048b00 f   PlugininBuyUpdateDayUpdateDlg.obj
 0001:00037e64       ?GetMessageMap@CPlugininBuyUpdateDayUpdateDlg@@MBAPBUAFX_MSGMAP@@XZ 00048e64 f   PlugininBuyUpdateDayUpdateDlg.obj
 0001:00037e70       ?OnInitDialog@CPlugininBuyUpdateDayUpdateDlg@@MAAHXZ 00048e70 f   PlugininBuyUpdateDayUpdateDlg.obj
 0001:00038a10       ?OnBnClickedButton1@CPlugininBuyUpdateDayUpdateDlg@@QAAXXZ 00049a10 f   PlugininBuyUpdateDayUpdateDlg.obj
 0001:00038a18       ?OnBnClickedButton2@CPlugininBuyUpdateDayUpdateDlg@@QAAXXZ 00049a18 f   PlugininBuyUpdateDayUpdateDlg.obj
 0001:00038a20       ?OnBnClickedButton3@CPlugininBuyUpdateDayUpdateDlg@@QAAXXZ 00049a20 f   PlugininBuyUpdateDayUpdateDlg.obj
 0001:00038a28       ?OnBnClickedButton4@CPlugininBuyUpdateDayUpdateDlg@@QAAXXZ 00049a28 f   PlugininBuyUpdateDayUpdateDlg.obj
 0001:00038a30       ?OnBnClickedButton5@CPlugininBuyUpdateDayUpdateDlg@@QAAXXZ 00049a30 f   PlugininBuyUpdateDayUpdateDlg.obj
 0001:00038a38       ?OnBnClickedButton6@CPlugininBuyUpdateDayUpdateDlg@@QAAXXZ 00049a38 f   PlugininBuyUpdateDayUpdateDlg.obj
 0001:00038a40       ?OnBnClickedButton7@CPlugininBuyUpdateDayUpdateDlg@@QAAXXZ 00049a40 f   PlugininBuyUpdateDayUpdateDlg.obj
 0001:00038a48       ?OnBnClickedButton8@CPlugininBuyUpdateDayUpdateDlg@@QAAXXZ 00049a48 f   PlugininBuyUpdateDayUpdateDlg.obj
 0001:00038a50       ?OnBnClickedButton9@CPlugininBuyUpdateDayUpdateDlg@@QAAXXZ 00049a50 f   PlugininBuyUpdateDayUpdateDlg.obj
 0001:00038a58       ?OnBnClickedButton0@CPlugininBuyUpdateDayUpdateDlg@@QAAXXZ 00049a58 f   PlugininBuyUpdateDayUpdateDlg.obj
 0001:00038a60       ?OnBnClickedButtonDelete@CPlugininBuyUpdateDayUpdateDlg@@QAAXXZ 00049a60 f   PlugininBuyUpdateDayUpdateDlg.obj
 0001:00038b44       ?UserInput@CPlugininBuyUpdateDayUpdateDlg@@IAAXD@Z 00049b44 f   PlugininBuyUpdateDayUpdateDlg.obj
 0001:00038c0c       ?UpdateStatic1@CPlugininBuyUpdateDayUpdateDlg@@IAAXXZ 00049c0c f   PlugininBuyUpdateDayUpdateDlg.obj
 0001:00038df4       ?UpdateStatic2@CPlugininBuyUpdateDayUpdateDlg@@IAAXXZ 00049df4 f   PlugininBuyUpdateDayUpdateDlg.obj
 0001:00038f14       ?UpdateStatic5@CPlugininBuyUpdateDayUpdateDlg@@IAAXXZ 00049f14 f   PlugininBuyUpdateDayUpdateDlg.obj
 0001:00038fb8       ?EnableMenuCtrl@CPlugininBuyUpdateDayUpdateDlg@@IAAXXZ 00049fb8 f   PlugininBuyUpdateDayUpdateDlg.obj
 0001:000392ec       ?OnPaint@CPlugininBuyUpdateDayUpdateDlg@@QAAXXZ 0004a2ec f   PlugininBuyUpdateDayUpdateDlg.obj
 0001:000393e8       ?PreTranslateMessage@CPlugininBuyUpdateDayUpdateDlg@@MAAHPAUtagMSG@@@Z 0004a3e8 f   PlugininBuyUpdateDayUpdateDlg.obj
 0001:00039638       ?SetButtonEnableTbl@CPlugininBuyUpdateDayUpdateDlg@@IAAXI@Z 0004a638 f   PlugininBuyUpdateDayUpdateDlg.obj
 0001:000397c0       ?GetMemoryManager@CPlugininBuyUpdateDayUpdateDlg@@IAAXXZ 0004a7c0 f   PlugininBuyUpdateDayUpdateDlg.obj
 0001:00039814       ?OnBnClickedButtonOkModeChange@CPlugininBuyUpdateDayUpdateDlg@@QAAXXZ 0004a814 f   PlugininBuyUpdateDayUpdateDlg.obj
 0001:000398a4       ?OnBnClickedButtonOkWebpointClear@CPlugininBuyUpdateDayUpdateDlg@@QAAXXZ 0004a8a4 f   PlugininBuyUpdateDayUpdateDlg.obj
 0001:00039a2c       ?OnBnClickedButtonOkWebpointOk@CPlugininBuyUpdateDayUpdateDlg@@QAAXXZ 0004aa2c f   PlugininBuyUpdateDayUpdateDlg.obj
 0001:00039b58       ?OnTimer@CPlugininBuyUpdateDayUpdateDlg@@QAAXI@Z 0004ab58 f   PlugininBuyUpdateDayUpdateDlg.obj
 0001:00039e1c       ?OnDestroy@CPlugininBuyUpdateDayUpdateDlg@@QAAXXZ 0004ae1c f   PlugininBuyUpdateDayUpdateDlg.obj
 0001:00039e3c       ?OnBnClickedButtonNext@CPlugininBuyUpdateDayUpdateDlg@@QAAXXZ 0004ae3c f   PlugininBuyUpdateDayUpdateDlg.obj
 0001:00039ea4       ?OnBnClickedButtonClear@CPlugininBuyUpdateDayUpdateDlg@@QAAXXZ 0004aea4 f   PlugininBuyUpdateDayUpdateDlg.obj
 0001:00039f8c       ?OnBnClickedButtonOk@CPlugininBuyUpdateDayUpdateDlg@@QAAXXZ 0004af8c f   PlugininBuyUpdateDayUpdateDlg.obj
 0001:0003a0cc       ?GetRuntimeClass@CPlugininDebugDispDlg@@UBAPAUCRuntimeClass@@XZ 0004b0cc f   PlugininDebugDispDlg.obj
 0001:0003a0d8       ??_GCPlugininDebugDispDlg@@UAAPAXI@Z 0004b0d8 f i PlugininDebugDispDlg.obj
 0001:0003a0d8       ??_ECPlugininDebugDispDlg@@UAAPAXI@Z 0004b0d8 f i  CIL library: CIL module
 0001:0003a104       ??1CPlugininDebugDispDlg@@UAA@XZ 0004b104 f   PlugininDebugDispDlg.obj
 0001:0003a180       ?GetMessageMap@CPlugininDebugDispDlg@@MBAPBUAFX_MSGMAP@@XZ 0004b180 f   PlugininDebugDispDlg.obj
 0001:0003a18c       ?PreTranslateMessage@CPlugininDebugDispDlg@@MAAHPAUtagMSG@@@Z 0004b18c f   PlugininDebugDispDlg.obj
 0001:0003a27c       ?OnPaint@CPlugininDebugDispDlg@@QAAXXZ 0004b27c f   PlugininDebugDispDlg.obj
 0001:0003a5d0       ?GetRuntimeClass@CPlugininHmiDlg@@UBAPAUCRuntimeClass@@XZ 0004b5d0 f   PlugininHmiDlg.obj
 0001:0003a5e4       ??0CPlugininHmiDlg@@QAA@PAVCWnd@@@Z 0004b5e4 f   PlugininHmiDlg.obj
 0001:0003a694       ??_ECPlugininHmiDlg@@UAAPAXI@Z 0004b694 f i  CIL library: CIL module
 0001:0003a694       ??_GCPlugininHmiDlg@@UAAPAXI@Z 0004b694 f i PlugininHmiDlg.obj
 0001:0003a6c0       ??1CPlugininHmiDlg@@UAA@XZ 0004b6c0 f   PlugininHmiDlg.obj
 0001:0003a77c       ?GetMessageMap@CPlugininHmiDlg@@MBAPBUAFX_MSGMAP@@XZ 0004b77c f   PlugininHmiDlg.obj
 0001:0003a788       ?OnInitDialog@CPlugininHmiDlg@@MAAHXZ 0004b788 f   PlugininHmiDlg.obj
 0001:0003a8ec       ?OnBnClickedBtnGridInd@CPlugininHmiDlg@@QAAXXZ 0004b8ec f   PlugininHmiDlg.obj
 0001:0003a9b4       ?OnBnClickedBtnTouchDebug@CPlugininHmiDlg@@QAAXXZ 0004b9b4 f   PlugininHmiDlg.obj
 0001:0003aa5c       ?GetRuntimeClass@CPlugininMapDataCheckDlg@@UBAPAUCRuntimeClass@@XZ 0004ba5c f   PlugininMapDataCheckDlg.obj
 0001:0003aa68       ??_ECPlugininMapDataCheckDlg@@UAAPAXI@Z 0004ba68 f i  CIL library: CIL module
 0001:0003aa68       ??_GCPlugininMapDataCheckDlg@@UAAPAXI@Z 0004ba68 f i PlugininMapDataCheckDlg.obj
 0001:0003aa98       ?OnInitDialog@CPlugininMapDataCheckDlg@@MAAHXZ 0004ba98 f   PlugininMapDataCheckDlg.obj
 0001:0003ab14       ?PreTranslateMessage@CPlugininMapDataCheckDlg@@UAAHPAUtagMSG@@@Z 0004bb14 f   PlugininMapDataCheckDlg.obj
 0001:0003ab4c       ?OnMuNotifyDispStop@CPlugininMapDataCheckDlg@@UAAXIJ@Z 0004bb4c f   PlugininMapDataCheckDlg.obj
 0001:0003abd8       ?OnReqNonDisplay@CPlugininMapDataCheckDlg@@UAAXIJ@Z 0004bbd8 f   PlugininMapDataCheckDlg.obj
 0001:0003ac2c       ?GetRuntimeClass@CPlugininMapUpdateReminderDlg@@UBAPAUCRuntimeClass@@XZ 0004bc2c f   PlugininMapUpdateRemDlg.obj
 0001:0003ac38       ??_ECPlugininMapUpdateReminderDlg@@UAAPAXI@Z 0004bc38 f i  CIL library: CIL module
 0001:0003ac38       ??_GCPlugininMapUpdateReminderDlg@@UAAPAXI@Z 0004bc38 f i PlugininMapUpdateRemDlg.obj
 0001:0003ac64       ??1CPlugininMapUpdateReminderDlg@@UAA@XZ 0004bc64 f   PlugininMapUpdateRemDlg.obj
 0001:0003acf8       ?GetMessageMap@CPlugininMapUpdateReminderDlg@@MBAPBUAFX_MSGMAP@@XZ 0004bcf8 f   PlugininMapUpdateRemDlg.obj
 0001:0003ad04       ?OnBnClickedBtnMapUpdateRem@CPlugininMapUpdateReminderDlg@@QAAXXZ 0004bd04 f   PlugininMapUpdateRemDlg.obj
 0001:0003adbc       ?GetRuntimeClass@CPlugininCameraSettingDlg@@UBAPAUCRuntimeClass@@XZ 0004bdbc f   PlugininCameraSettingDlg.obj
 0001:0003add0       ??0CPlugininCameraSettingDlg@@QAA@PAVCWnd@@@Z 0004bdd0 f   PlugininCameraSettingDlg.obj
 0001:0003af20       ??_ECPlugininCameraSettingDlg@@UAAPAXI@Z 0004bf20 f i  CIL library: CIL module
 0001:0003af20       ??_GCPlugininCameraSettingDlg@@UAAPAXI@Z 0004bf20 f i PlugininCameraSettingDlg.obj
 0001:0003af4c       ??1CPlugininCameraSettingDlg@@UAA@XZ 0004bf4c f   PlugininCameraSettingDlg.obj
 0001:0003b0a4       ?GetMessageMap@CPlugininCameraSettingDlg@@MBAPBUAFX_MSGMAP@@XZ 0004c0a4 f   PlugininCameraSettingDlg.obj
 0001:0003b0b0       ?OnInitDialog@CPlugininCameraSettingDlg@@MAAHXZ 0004c0b0 f   PlugininCameraSettingDlg.obj
 0001:0003b35c       ?ShowControl@CPlugininCameraSettingDlg@@IAAXI@Z 0004c35c f   PlugininCameraSettingDlg.obj
 0001:0003b478       ?GetInstance@CPlugininCameraSettingDlg@@IAAPAVCDialogBase@@I@Z 0004c478 f   PlugininCameraSettingDlg.obj
 0001:0003b68c       ?ClickedMenu@CPlugininCameraSettingDlg@@QAAJABU_FUNCTIONINFO@@@Z 0004c68c f   PlugininCameraSettingDlg.obj
 0001:0003b7cc       ?OnBnClickedButton1@CPlugininCameraSettingDlg@@QAAXXZ 0004c7cc f   PlugininCameraSettingDlg.obj
 0001:0003b7f8       ?OnBnClickedButton2@CPlugininCameraSettingDlg@@QAAXXZ 0004c7f8 f   PlugininCameraSettingDlg.obj
 0001:0003b828       ?OnBnClickedButton3@CPlugininCameraSettingDlg@@QAAXXZ 0004c828 f   PlugininCameraSettingDlg.obj
 0001:0003b860       ?OnBnClickedButton4@CPlugininCameraSettingDlg@@QAAXXZ 0004c860 f   PlugininCameraSettingDlg.obj
 0001:0003b898       ?OnBnClickedButton5@CPlugininCameraSettingDlg@@QAAXXZ 0004c898 f   PlugininCameraSettingDlg.obj
 0001:0003b8d0       ?SetCanParamaterButtonState@CPlugininCameraSettingDlg@@IAAXXZ 0004c8d0 f   PlugininCameraSettingDlg.obj
 0001:0003b964       ?OnActivate@CPlugininCameraSettingDlg@@QAAXIPAVCWnd@@H@Z 0004c964 f   PlugininCameraSettingDlg.obj
 0001:0003b988       ?PreTranslateMessage@CPlugininCameraSettingDlg@@UAAHPAUtagMSG@@@Z 0004c988 f   PlugininCameraSettingDlg.obj
 0001:0003b9b8       ?GetRuntimeClass@CPlugininCamCameraDataInfoDlg@@UBAPAUCRuntimeClass@@XZ 0004c9b8 f   PlugininCamCameraDataInfoDlg.obj
 0001:0003b9c4       ??_ECPlugininCamCameraDataInfoDlg@@UAAPAXI@Z 0004c9c4 f i  CIL library: CIL module
 0001:0003b9c4       ??_GCPlugininCamCameraDataInfoDlg@@UAAPAXI@Z 0004c9c4 f i PlugininCamCameraDataInfoDlg.obj
 0001:0003b9e8       ??1CPlugininCamCameraDataInfoDlg@@UAA@XZ 0004c9e8 f   PlugininCamCameraDataInfoDlg.obj
 0001:0003ba2c       ?GetMessageMap@CPlugininCamCameraDataInfoDlg@@MBAPBUAFX_MSGMAP@@XZ 0004ca2c f   PlugininCamCameraDataInfoDlg.obj
 0001:0003ba38       ?OnInitDialog@CPlugininCamCameraDataInfoDlg@@MAAHXZ 0004ca38 f   PlugininCamCameraDataInfoDlg.obj
 0001:0003bb08       ?OnPaint@CPlugininCamCameraDataInfoDlg@@QAAXXZ 0004cb08 f   PlugininCamCameraDataInfoDlg.obj
 0001:0003c05c       ?GetRuntimeClass@CPlugininCamDataIndSetDlg@@UBAPAUCRuntimeClass@@XZ 0004d05c f   PlugininCamDataIndSetDlg.obj
 0001:0003c070       ??0CPlugininCamDataIndSetDlg@@QAA@PAVCWnd@@@Z 0004d070 f   PlugininCamDataIndSetDlg.obj
 0001:0003c168       ??_GCPlugininCamDataIndSetDlg@@UAAPAXI@Z 0004d168 f i PlugininCamDataIndSetDlg.obj
 0001:0003c168       ??_ECPlugininCamDataIndSetDlg@@UAAPAXI@Z 0004d168 f i  CIL library: CIL module
 0001:0003c194       ??1CPlugininCamDataIndSetDlg@@UAA@XZ 0004d194 f   PlugininCamDataIndSetDlg.obj
 0001:0003c2a0       ?GetMessageMap@CPlugininCamDataIndSetDlg@@MBAPBUAFX_MSGMAP@@XZ 0004d2a0 f   PlugininCamDataIndSetDlg.obj
 0001:0003c2b4       ?OnInitDialog@CPlugininCamDataIndSetDlg@@MAAHXZ 0004d2b4 f   PlugininCamDataIndSetDlg.obj
 0001:0003c56c       ?OnBnClickedButtonCanActive@CPlugininCamDataIndSetDlg@@QAAXXZ 0004d56c f   PlugininCamDataIndSetDlg.obj
 0001:0003c6ac       ?OnBnClickedButtonCameraIndicator@CPlugininCamDataIndSetDlg@@QAAXXZ 0004d6ac f   PlugininCamDataIndSetDlg.obj
 0001:0003c7f4       ?OnBnClickedButtonBackCameraDebug@CPlugininCamDataIndSetDlg@@QAAXXZ 0004d7f4 f   PlugininCamDataIndSetDlg.obj
 0001:0003c854       ?UpdateButtonsColor@CPlugininCamDataIndSetDlg@@IAAXXZ 0004d854 f   PlugininCamDataIndSetDlg.obj
 0001:0003c934       ?GetRuntimeClass@CPlugininCamCameraPosDlg@@UBAPAUCRuntimeClass@@XZ 0004d934 f   PlugininCamCameraPosDlg.obj
 0001:0003c948       ??0CPlugininCamCameraPosDlg@@QAA@PAVCWnd@@I@Z 0004d948 f   PlugininCamCameraPosDlg.obj
 0001:0003cdcc       ??_ECPlugininCamCameraPosDlg@@UAAPAXI@Z 0004ddcc f i  CIL library: CIL module
 0001:0003cdcc       ??_GCPlugininCamCameraPosDlg@@UAAPAXI@Z 0004ddcc f i PlugininCamCameraPosDlg.obj
 0001:0003cdf8       ??1CPlugininCamCameraPosDlg@@UAA@XZ 0004ddf8 f   PlugininCamCameraPosDlg.obj
 0001:0003d2a4       ?GetMessageMap@CPlugininCamCameraPosDlg@@MBAPBUAFX_MSGMAP@@XZ 0004e2a4 f   PlugininCamCameraPosDlg.obj
 0001:0003d2b0       ?SetButtonsToneDown@CPlugininCamCameraPosDlg@@IAAXXZ 0004e2b0 f   PlugininCamCameraPosDlg.obj
 0001:0003d9d4       ?AllCtrlEnableWindow@CPlugininCamCameraPosDlg@@IAAXH@Z 0004e9d4 f   PlugininCamCameraPosDlg.obj
 0001:0003dbec       ?OnTelopClose_@CPlugininCamCameraPosDlg@@MAAXI@Z 0004ebec f   PlugininCamCameraPosDlg.obj
 0001:0003dc28       ?OnInitDialog@CPlugininCamCameraPosDlg@@MAAHXZ 0004ec28 f   PlugininCamCameraPosDlg.obj
 0001:0003e24c       ?DrawInputFrame@CPlugininCamCameraPosDlg@@IAAXPAVCDC@@PA_WHHHHIIII@Z 0004f24c f   PlugininCamCameraPosDlg.obj
 0001:0003e24c       ?DrawInputFrame@CPlugininCameraPosDlg@@IAAXPAVCDC@@PA_WHHHHIIII@Z 0004f24c f   PlugininCameraPosDlg.obj
 0001:0003e75c       ?OnLButtonDown@CPlugininCameraPosDlg@@UAAXIVCPoint@@@Z 0004f75c f   PlugininCameraPosDlg.obj
 0001:0003e75c       ?OnLButtonDown@CDialogBase@@MAAXIVCPoint@@@Z 0004f75c f   DialogEx.obj
 0001:0003e75c       ?OnLButtonDown@CPlugininCamCameraPosDlg@@UAAXIVCPoint@@@Z 0004f75c f   PlugininCamCameraPosDlg.obj
 0001:0003e778       ?BackSideChange@CPlugininCamCameraPosDlg@@IAAXXZ 0004f778 f   PlugininCamCameraPosDlg.obj
 0001:0003e950       ?OnBnClickedButton1Enter@CPlugininCamCameraPosDlg@@QAAXXZ 0004f950 f   PlugininCamCameraPosDlg.obj
 0001:0003ea8c       ?OnBnClickedButtonLuXPlus@CPlugininCamCameraPosDlg@@QAAXXZ 0004fa8c f   PlugininCamCameraPosDlg.obj
 0001:0003eac4       ?OnBnClickedButtonLuXMinus@CPlugininCamCameraPosDlg@@QAAXXZ 0004fac4 f   PlugininCamCameraPosDlg.obj
 0001:0003eb08       ?OnBnClickedButtonLuYPlus@CPlugininCamCameraPosDlg@@QAAXXZ 0004fb08 f   PlugininCamCameraPosDlg.obj
 0001:0003eb40       ?OnBnClickedButtonLuYMinus@CPlugininCamCameraPosDlg@@QAAXXZ 0004fb40 f   PlugininCamCameraPosDlg.obj
 0001:0003eb84       ?OnBnClickedButtonRuXPlus@CPlugininCamCameraPosDlg@@QAAXXZ 0004fb84 f   PlugininCamCameraPosDlg.obj
 0001:0003ebbc       ?OnBnClickedButtonRuXMinus@CPlugininCamCameraPosDlg@@QAAXXZ 0004fbbc f   PlugininCamCameraPosDlg.obj
 0001:0003ebf8       ?OnBnClickedButtonRuYPlus@CPlugininCamCameraPosDlg@@QAAXXZ 0004fbf8 f   PlugininCamCameraPosDlg.obj
 0001:0003ec30       ?OnBnClickedButtonRuYMinus@CPlugininCamCameraPosDlg@@QAAXXZ 0004fc30 f   PlugininCamCameraPosDlg.obj
 0001:0003ec74       ?OnBnClickedButtonLlXPlus@CPlugininCamCameraPosDlg@@QAAXXZ 0004fc74 f   PlugininCamCameraPosDlg.obj
 0001:0003ecac       ?OnBnClickedButtonLlXMinus@CPlugininCamCameraPosDlg@@QAAXXZ 0004fcac f   PlugininCamCameraPosDlg.obj
 0001:0003ecf0       ?OnBnClickedButtonLlYPlus@CPlugininCamCameraPosDlg@@QAAXXZ 0004fcf0 f   PlugininCamCameraPosDlg.obj
 0001:0003ed28       ?OnBnClickedButtonLlYMinus@CPlugininCamCameraPosDlg@@QAAXXZ 0004fd28 f   PlugininCamCameraPosDlg.obj
 0001:0003ed6c       ?OnBnClickedButtonRlXPlus@CPlugininCamCameraPosDlg@@QAAXXZ 0004fd6c f   PlugininCamCameraPosDlg.obj
 0001:0003eda4       ?OnBnClickedButtonRlXMinus@CPlugininCamCameraPosDlg@@QAAXXZ 0004fda4 f   PlugininCamCameraPosDlg.obj
 0001:0003ede8       ?OnBnClickedButtonRlYPlus@CPlugininCamCameraPosDlg@@QAAXXZ 0004fde8 f   PlugininCamCameraPosDlg.obj
 0001:0003ee20       ?OnBnClickedButtonRlYMinus@CPlugininCamCameraPosDlg@@QAAXXZ 0004fe20 f   PlugininCamCameraPosDlg.obj
 0001:0003ee64       ?OnBnClickedButtonBlXPlus@CPlugininCamCameraPosDlg@@QAAXXZ 0004fe64 f   PlugininCamCameraPosDlg.obj
 0001:0003ee9c       ?OnBnClickedButtonBlXMinus@CPlugininCamCameraPosDlg@@QAAXXZ 0004fe9c f   PlugininCamCameraPosDlg.obj
 0001:0003eee0       ?OnBnClickedButtonBlYPlus@CPlugininCamCameraPosDlg@@QAAXXZ 0004fee0 f   PlugininCamCameraPosDlg.obj
 0001:0003ef18       ?OnBnClickedButtonBlYMinus@CPlugininCamCameraPosDlg@@QAAXXZ 0004ff18 f   PlugininCamCameraPosDlg.obj
 0001:0003ef5c       ?OnBnClickedButtonBrXPlus@CPlugininCamCameraPosDlg@@QAAXXZ 0004ff5c f   PlugininCamCameraPosDlg.obj
 0001:0003ef94       ?OnBnClickedButtonBrXMinus@CPlugininCamCameraPosDlg@@QAAXXZ 0004ff94 f   PlugininCamCameraPosDlg.obj
 0001:0003efd8       ?OnBnClickedButtonBrYPlus@CPlugininCamCameraPosDlg@@QAAXXZ 0004ffd8 f   PlugininCamCameraPosDlg.obj
 0001:0003f010       ?OnBnClickedButtonBrYMinus@CPlugininCamCameraPosDlg@@QAAXXZ 00050010 f   PlugininCamCameraPosDlg.obj
 0001:0003f054       ?OnEraseBkgnd@CPlugininCameraPosDlg@@QAAHPAVCDC@@@Z 00050054 f   PlugininCameraPosDlg.obj
 0001:0003f054       ?OnEraseBkgnd@CPlugininCamCameraPosDlg@@QAAHPAVCDC@@@Z 00050054 f   PlugininCamCameraPosDlg.obj
 0001:0003f054       ?OnEraseBkgnd@CPlugininInstallKeyDlg@@QAAHPAVCDC@@@Z 00050054 f   PlugininInstallKeyDlg.obj
 0001:0003f054       ?OnEraseBkgnd@CPlugininMemmanagerCameraDlg@@QAAHPAVCDC@@@Z 00050054 f   PlugininMemmanagerCameraDlg.obj
 0001:0003f054       ?OnEraseBkgnd@CPlugininCanDtcDlg@@QAAHPAVCDC@@@Z 00050054 f   PlugininCanDtcDlg.obj
 0001:0003f05c       ?OnBnClickedParamButton1@CPlugininCanCameraParamaterDlg@@QAAXXZ 0005005c f i PlugininCanCameraParamaterDlg.obj
 0001:0003f064       ?OnBnClickedParamButton2@CPlugininCanCameraParamaterDlg@@QAAXXZ 00050064 f i PlugininCanCameraParamaterDlg.obj
 0001:0003f06c       ?OnBnClickedParamButton3@CPlugininCanCameraParamaterDlg@@QAAXXZ 0005006c f i PlugininCanCameraParamaterDlg.obj
 0001:0003f074       ?OnBnClickedParamButton4@CPlugininCanCameraParamaterDlg@@QAAXXZ 00050074 f i PlugininCanCameraParamaterDlg.obj
 0001:0003f07c       ?OnBnClickedParamButton5@CPlugininCanCameraParamaterDlg@@QAAXXZ 0005007c f i PlugininCanCameraParamaterDlg.obj
 0001:0003f084       ?OnBnClickedParamButton6@CPlugininCanCameraParamaterDlg@@QAAXXZ 00050084 f i PlugininCanCameraParamaterDlg.obj
 0001:0003f08c       ?GetCameraInfoValue@@YAJABUST_BK5_CAMERA_INFO@@W4E_ELEMENT_ID@@@Z 0005008c f   PlugininCanCameraParamaterDlg.obj
 0001:0003f1e4       ?SetCameraInfoValue@@YAXAAUST_BK5_CAMERA_INFO@@W4E_ELEMENT_ID@@J@Z 000501e4 f   PlugininCanCameraParamaterDlg.obj
 0001:0003f384       ?FormatValue@@YAXAAV?$CStringT@_WV?$StrTraitMFC@_WV?$ChTraitsOS@_W@ATL@@@@@ATL@@ABUST_BK5_CAMERA_INFO@@W4E_ELEMENT_ID@@@Z 00050384 f   PlugininCanCameraParamaterDlg.obj
 0001:0003f480       ?AcceptNumber@KeypadInputData@@ABA_NPBD@Z 00050480 f i PlugininCanCameraParamaterDlg.obj
 0001:0003f5dc       ?Append@KeypadInputData@@AAA_NPBD@Z 000505dc f i PlugininCanCameraParamaterDlg.obj
 0001:0003f628       ?Validate@KeypadInputData@@UBA_NXZ 00050628 f i PlugininCanCameraParamaterDlg.obj
 0001:0003f6f4       ?AcceptFlag@KeypadInputData@@UBA_NXZ 000506f4 f i PlugininCanCameraParamaterDlg.obj
 0001:0003f748       ?AcceptPoint@KeypadInputData@@UBA_NXZ 00050748 f i PlugininCanCameraParamaterDlg.obj
 0001:0003f7ac       ?Accept0@KeypadInputData@@UBA_NXZ 000507ac f i PlugininCanCameraParamaterDlg.obj
 0001:0003f7b8       ?Accept1@KeypadInputData@@UBA_NXZ 000507b8 f i PlugininCanCameraParamaterDlg.obj
 0001:0003f7c4       ?Accept2@KeypadInputData@@UBA_NXZ 000507c4 f i PlugininCanCameraParamaterDlg.obj
 0001:0003f7d0       ?Accept3@KeypadInputData@@UBA_NXZ 000507d0 f i PlugininCanCameraParamaterDlg.obj
 0001:0003f7dc       ?Accept4@KeypadInputData@@UBA_NXZ 000507dc f i PlugininCanCameraParamaterDlg.obj
 0001:0003f7e8       ?Accept5@KeypadInputData@@UBA_NXZ 000507e8 f i PlugininCanCameraParamaterDlg.obj
 0001:0003f7f4       ?Accept6@KeypadInputData@@UBA_NXZ 000507f4 f i PlugininCanCameraParamaterDlg.obj
 0001:0003f800       ?Accept7@KeypadInputData@@UBA_NXZ 00050800 f i PlugininCanCameraParamaterDlg.obj
 0001:0003f80c       ?Accept8@KeypadInputData@@UBA_NXZ 0005080c f i PlugininCanCameraParamaterDlg.obj
 0001:0003f818       ?Accept9@KeypadInputData@@UBA_NXZ 00050818 f i PlugininCanCameraParamaterDlg.obj
 0001:0003f824       ?GetInputLength@KeypadInputData@@UBAIXZ 00050824 f i PlugininCanCameraParamaterDlg.obj
 0001:0003f854       ?GetInputBuffer@KeypadInputData@@UBAPBDXZ 00050854 f i PlugininCanCameraParamaterDlg.obj
 0001:0003f85c       ?GetBias@KeypadInputData@@UBAHXZ 0005085c f i PlugininCanCameraParamaterDlg.obj
 0001:0003f864       ?SetToggleFlag@KeypadInputData@@UAAXXZ 00050864 f i PlugininCanCameraParamaterDlg.obj
 0001:0003f880       ?IsNagative@KeypadInputData@@UBA_NXZ 00050880 f i PlugininCanCameraParamaterDlg.obj
 0001:0003f888       ?AppendPoint@KeypadInputData@@UAA_NXZ 00050888 f i PlugininCanCameraParamaterDlg.obj
 0001:0003f894       ?Append0@KeypadInputData@@UAA_NXZ 00050894 f i PlugininCanCameraParamaterDlg.obj
 0001:0003f8a0       ?Append1@KeypadInputData@@UAA_NXZ 000508a0 f i PlugininCanCameraParamaterDlg.obj
 0001:0003f8ac       ?Append2@KeypadInputData@@UAA_NXZ 000508ac f i PlugininCanCameraParamaterDlg.obj
 0001:0003f8b8       ?Append3@KeypadInputData@@UAA_NXZ 000508b8 f i PlugininCanCameraParamaterDlg.obj
 0001:0003f8c4       ?Append4@KeypadInputData@@UAA_NXZ 000508c4 f i PlugininCanCameraParamaterDlg.obj
 0001:0003f8d0       ?Append5@KeypadInputData@@UAA_NXZ 000508d0 f i PlugininCanCameraParamaterDlg.obj
 0001:0003f8dc       ?Append6@KeypadInputData@@UAA_NXZ 000508dc f i PlugininCanCameraParamaterDlg.obj
 0001:0003f8e8       ?Append7@KeypadInputData@@UAA_NXZ 000508e8 f i PlugininCanCameraParamaterDlg.obj
 0001:0003f8f4       ?Append8@KeypadInputData@@UAA_NXZ 000508f4 f i PlugininCanCameraParamaterDlg.obj
 0001:0003f900       ?Append9@KeypadInputData@@UAA_NXZ 00050900 f i PlugininCanCameraParamaterDlg.obj
 0001:0003f90c       ?CanRemoveTail@KeypadInputData@@UBA_NXZ 0005090c f i PlugininCanCameraParamaterDlg.obj
 0001:0003f92c       ?RemoveTail@KeypadInputData@@UAAXXZ 0005092c f i PlugininCanCameraParamaterDlg.obj
 0001:0003f97c       ?TryToNumber@KeypadInputData@@UBA_NAAJ@Z 0005097c f i PlugininCanCameraParamaterDlg.obj
 0001:0003fa58       ??_EKeypadInputData@@UAAPAXI@Z 00050a58 f i  CIL library: CIL module
 0001:0003fa58       ??_GKeypadInputData@@UAAPAXI@Z 00050a58 f i PlugininCanCameraParamaterDlg.obj
 0001:0003fa7c       ?GetRuntimeClass@CPlugininCanCameraParamaterDlg@@UBAPAUCRuntimeClass@@XZ 00050a7c f   PlugininCanCameraParamaterDlg.obj
 0001:0003fa88       ??_GCPlugininCanCameraParamaterDlg@@UAAPAXI@Z 00050a88 f i PlugininCanCameraParamaterDlg.obj
 0001:0003fa88       ??_ECPlugininCanCameraParamaterDlg@@UAAPAXI@Z 00050a88 f i  CIL library: CIL module
 0001:0003fab4       ??1CPlugininCanCameraParamaterDlg@@UAA@XZ 00050ab4 f   PlugininCanCameraParamaterDlg.obj
 0001:0003fb88       ?GetMessageMap@CPlugininCanCameraParamaterDlg@@MBAPBUAFX_MSGMAP@@XZ 00050b88 f   PlugininCanCameraParamaterDlg.obj
 0001:0003fb94       ?OnInitDialog@CPlugininCanCameraParamaterDlg@@MAAHXZ 00050b94 f   PlugininCanCameraParamaterDlg.obj
 0001:000404d4       ?UpdateParamaterList@CPlugininCanCameraParamaterDlg@@IAAXXZ 000514d4 f   PlugininCanCameraParamaterDlg.obj
 0001:00040660       ?OnParameterButtonClicked@CPlugininCanCameraParamaterDlg@@IAAXI@Z 00051660 f   PlugininCanCameraParamaterDlg.obj
 0001:000406dc       ?OnBnClickedButtonOk@CPlugininCanCameraParamaterDlg@@QAAXXZ 000516dc f   PlugininCanCameraParamaterDlg.obj
 0001:00040834       ?OnBnClickedCancel@CPlugininCanCameraParamaterDlg@@QAAXXZ 00051834 f   PlugininCanCameraParamaterDlg.obj
 0001:000408b0       ?OnBnClickedButtonPrev@CPlugininCanCameraParamaterDlg@@QAAXXZ 000518b0 f   PlugininCanCameraParamaterDlg.obj
 0001:000408d8       ?OnBnClickedButtonNext@CPlugininCanCameraParamaterDlg@@QAAXXZ 000518d8 f   PlugininCanCameraParamaterDlg.obj
 0001:00040900       ?OnBnClickedButton1@CPlugininCanCameraParamaterDlg@@QAAXXZ 00051900 f   PlugininCanCameraParamaterDlg.obj
 0001:00040930       ?OnBnClickedButton2@CPlugininCanCameraParamaterDlg@@QAAXXZ 00051930 f   PlugininCanCameraParamaterDlg.obj
 0001:00040960       ?OnBnClickedButton3@CPlugininCanCameraParamaterDlg@@QAAXXZ 00051960 f   PlugininCanCameraParamaterDlg.obj
 0001:00040990       ?OnBnClickedButton4@CPlugininCanCameraParamaterDlg@@QAAXXZ 00051990 f   PlugininCanCameraParamaterDlg.obj
 0001:000409c0       ?OnBnClickedButton5@CPlugininCanCameraParamaterDlg@@QAAXXZ 000519c0 f   PlugininCanCameraParamaterDlg.obj
 0001:000409f0       ?OnBnClickedButton6@CPlugininCanCameraParamaterDlg@@QAAXXZ 000519f0 f   PlugininCanCameraParamaterDlg.obj
 0001:00040a20       ?OnBnClickedButton7@CPlugininCanCameraParamaterDlg@@QAAXXZ 00051a20 f   PlugininCanCameraParamaterDlg.obj
 0001:00040a50       ?OnBnClickedButton8@CPlugininCanCameraParamaterDlg@@QAAXXZ 00051a50 f   PlugininCanCameraParamaterDlg.obj
 0001:00040a80       ?OnBnClickedButton9@CPlugininCanCameraParamaterDlg@@QAAXXZ 00051a80 f   PlugininCanCameraParamaterDlg.obj
 0001:00040ab0       ?OnBnClickedButton0@CPlugininCanCameraParamaterDlg@@QAAXXZ 00051ab0 f   PlugininCanCameraParamaterDlg.obj
 0001:00040ae0       ?OnBnClickedButtonFlag@CPlugininCanCameraParamaterDlg@@QAAXXZ 00051ae0 f   PlugininCanCameraParamaterDlg.obj
 0001:00040b10       ?OnBnClickedButtonDot@CPlugininCanCameraParamaterDlg@@QAAXXZ 00051b10 f   PlugininCanCameraParamaterDlg.obj
 0001:00040b40       ?OnBnClickedButtonDelete@CPlugininCanCameraParamaterDlg@@QAAXXZ 00051b40 f   PlugininCanCameraParamaterDlg.obj
 0001:00040b78       ?UpdateInputStatic@CPlugininCanCameraParamaterDlg@@IAAXXZ 00051b78 f   PlugininCanCameraParamaterDlg.obj
 0001:00040e98       ?InitializeParameterInputDialog@CPlugininCanCameraParamaterDlg@@IAAXXZ 00051e98 f   PlugininCanCameraParamaterDlg.obj
 0001:000410d4       ?OnTelopClose_@CPlugininCanCameraParamaterDlg@@MAAXI@Z 000520d4 f   PlugininCanCameraParamaterDlg.obj
 0001:00041134       ??HATL@@YA?AV?$CStringT@_WV?$StrTraitMFC@_WV?$ChTraitsOS@_W@ATL@@@@@0@ABV10@PB_W@Z 00052134 f i PlugininCanCameraParamaterDlg.obj
 0001:00041210       ?Concatenate@?$CSimpleStringT@_W$0A@@ATL@@KAXAAV12@PB_WH1H@Z 00052210 f i PlugininCanCameraParamaterDlg.obj
 0001:0004128c       ?OnBnClicked1@CPlugininCanDtcDlg@@QAAXXZ 0005228c f i PlugininCanDtcDlg.obj
 0001:00041294       ?OnBnClicked2@CPlugininCanDtcDlg@@QAAXXZ 00052294 f i PlugininCanDtcDlg.obj
 0001:0004129c       ?OnBnClicked3@CPlugininCanDtcDlg@@QAAXXZ 0005229c f i PlugininCanDtcDlg.obj
 0001:000412a4       ?OnBnClicked4@CPlugininCanDtcDlg@@QAAXXZ 000522a4 f i PlugininCanDtcDlg.obj
 0001:000412ac       ?OnBnClicked5@CPlugininCanDtcDlg@@QAAXXZ 000522ac f i PlugininCanDtcDlg.obj
 0001:000412b4       ?GetRuntimeClass@CPlugininCanDtcDlg@@UBAPAUCRuntimeClass@@XZ 000522b4 f   PlugininCanDtcDlg.obj
 0001:000412c8       ??0CPlugininCanDtcDlg@@QAA@PAVCWnd@@@Z 000522c8 f   PlugininCanDtcDlg.obj
 0001:000414f8       ??_GCPlugininCanDtcDlg@@UAAPAXI@Z 000524f8 f i PlugininCanDtcDlg.obj
 0001:000414f8       ??_ECPlugininCanDtcDlg@@UAAPAXI@Z 000524f8 f i  CIL library: CIL module
 0001:00041524       ??1CPlugininCanDtcDlg@@UAA@XZ 00052524 f   PlugininCanDtcDlg.obj
 0001:00041754       ?GetMessageMap@CPlugininCanDtcDlg@@MBAPBUAFX_MSGMAP@@XZ 00052754 f   PlugininCanDtcDlg.obj
 0001:00041760       ?OnInitDialog@CPlugininCanDtcDlg@@MAAHXZ 00052760 f   PlugininCanDtcDlg.obj
 0001:00041c58       ?OnPaint@CPlugininCanDtcDlg@@QAAXXZ 00052c58 f   PlugininCanDtcDlg.obj
 0001:000423b4       ?OnBnClickedDelete@CPlugininCanDtcDlg@@QAAXXZ 000533b4 f   PlugininCanDtcDlg.obj
 0001:00042474       ?OnBnClickedCancel@CPlugininCanDtcDlg@@QAAXXZ 00053474 f   PlugininCanDtcDlg.obj
 0001:00042528       ?OnBnClicked@CPlugininCanDtcDlg@@IAAXI@Z 00053528 f   PlugininCanDtcDlg.obj
 0001:00042654       ?UpdateButtonCaption@CPlugininCanDtcDlg@@IAAXXZ 00053654 f   PlugininCanDtcDlg.obj
 0001:000428cc       ?OnTimer@CPlugininCanDtcDlg@@QAAXI@Z 000538cc f   PlugininCanDtcDlg.obj
 0001:0004291c       ?PreTranslateMessage@CPlugininCanDtcDlg@@MAAHPAUtagMSG@@@Z 0005391c f   PlugininCanDtcDlg.obj
 0001:00042a10       ?OnTelopClose_@CPlugininCanDtcDlg@@MAAXI@Z 00053a10 f   PlugininCanDtcDlg.obj
 0001:00042a5c       ?GetRuntimeClass@CPlugininMapIndDlg@@UBAPAUCRuntimeClass@@XZ 00053a5c f   PlugininMapIndDlg.obj
 0001:00042a68       ??_GCPlugininMapIndDlg@@UAAPAXI@Z 00053a68 f i PlugininMapIndDlg.obj
 0001:00042a68       ??_ECPlugininMapIndDlg@@UAAPAXI@Z 00053a68 f i  CIL library: CIL module
 0001:00042a94       ??1CPlugininMapIndDlg@@UAA@XZ 00053a94 f   PlugininMapIndDlg.obj
 0001:00042af8       ?GetMessageMap@CPlugininMapIndDlg@@MBAPBUAFX_MSGMAP@@XZ 00053af8 f   PlugininMapIndDlg.obj
 0001:00042b04       ?OnInitDialog@CPlugininMapIndDlg@@MAAHXZ 00053b04 f   PlugininMapIndDlg.obj
 0001:00042f18       ?OnCtlColor@CPlugininMapIndDlg@@QAAPAUHBRUSH__@@PAVCDC@@PAVCWnd@@I@Z 00053f18 f   PlugininMapIndDlg.obj
 0001:00042fcc       ?OnBnClickedCheck1@CPlugininMapIndDlg@@QAAXXZ 00053fcc f   PlugininMapIndDlg.obj
 0001:00043054       ?OnBnClickedCheck2@CPlugininMapIndDlg@@QAAXXZ 00054054 f   PlugininMapIndDlg.obj
 0001:000430dc       ?OnBnClickedCheck3@CPlugininMapIndDlg@@QAAXXZ 000540dc f   PlugininMapIndDlg.obj
 0001:00043164       ?OnBnClickedCheck4@CPlugininMapIndDlg@@QAAXXZ 00054164 f   PlugininMapIndDlg.obj
 0001:000431ec       ?OnBnClickedCheck5@CPlugininMapIndDlg@@QAAXXZ 000541ec f   PlugininMapIndDlg.obj
 0001:00043274       ?OnBnClickedCheck6@CPlugininMapIndDlg@@QAAXXZ 00054274 f   PlugininMapIndDlg.obj
 0001:000432fc       ?OnBnClickedCheck7@CPlugininMapIndDlg@@QAAXXZ 000542fc f   PlugininMapIndDlg.obj
 0001:00043384       ?OnBnClickedCheck8@CPlugininMapIndDlg@@QAAXXZ 00054384 f   PlugininMapIndDlg.obj
 0001:0004340c       ?OnBnClickedCheck9@CPlugininMapIndDlg@@QAAXXZ 0005440c f   PlugininMapIndDlg.obj
 0001:00043494       ?OnBnClickedCheck10@CPlugininMapIndDlg@@QAAXXZ 00054494 f   PlugininMapIndDlg.obj
 0001:0004351c       ?OnBnClickedCheck11@CPlugininMapIndDlg@@QAAXXZ 0005451c f   PlugininMapIndDlg.obj
 0001:000435a0       ?OnBnClickedCheck12@CPlugininMapIndDlg@@QAAXXZ 000545a0 f   PlugininMapIndDlg.obj
 0001:00043628       ?OnBnClickedCheck13@CPlugininMapIndDlg@@QAAXXZ 00054628 f   PlugininMapIndDlg.obj
 0001:000436b0       ?OnBnClickedCheck14@CPlugininMapIndDlg@@QAAXXZ 000546b0 f   PlugininMapIndDlg.obj
 0001:00043738       ?GetRuntimeClass@CPlugininCanSettingDlg@@UBAPAUCRuntimeClass@@XZ 00054738 f   PlugininCanSettingDlg.obj
 0001:0004374c       ??0CPlugininCanSettingDlg@@QAA@PAVCWnd@@@Z 0005474c f   PlugininCanSettingDlg.obj
 0001:00043830       ??_GCPlugininCanSettingDlg@@UAAPAXI@Z 00054830 f i PlugininCanSettingDlg.obj
 0001:00043830       ??_ECPlugininCanSettingDlg@@UAAPAXI@Z 00054830 f i  CIL library: CIL module
 0001:0004385c       ??1CPlugininCanSettingDlg@@UAA@XZ 0005485c f   PlugininCanSettingDlg.obj
 0001:00043964       ?GetMessageMap@CPlugininCanSettingDlg@@MBAPBUAFX_MSGMAP@@XZ 00054964 f   PlugininCanSettingDlg.obj
 0001:00043970       ?OnInitDialog@CPlugininCanSettingDlg@@MAAHXZ 00054970 f   PlugininCanSettingDlg.obj
 0001:00043e1c       ?RcvResPfSetting@CPlugininCanSettingDlg@@AAAXPAUtagMSG@@@Z 00054e1c f   PlugininCanSettingDlg.obj
 0001:00043f54       ?PreTranslateMessage@CPlugininCanSettingDlg@@MAAHPAUtagMSG@@@Z 00054f54 f   PlugininCanSettingDlg.obj
 0001:00043f8c       ?OnTelopClose_@CPlugininCanSettingDlg@@EAAXI@Z 00054f8c f   PlugininCanSettingDlg.obj
 0001:00044038       ?OnBnClickedBack@CPlugininCanSettingDlg@@IAAXXZ 00055038 f   PlugininCanSettingDlg.obj
 0001:00044060       ?OnBnClickedButtonSetting@CPlugininCanSettingDlg@@IAAXXZ 00055060 f   PlugininCanSettingDlg.obj
 0001:00044168       ?SetPFSelectValue@CPlugininCanSettingDlg@@AAAXXZ 00055168 f   PlugininCanSettingDlg.obj
 0001:00044218       ?UpdatePFAutoSelectValue@CPlugininCanSettingDlg@@AAAXXZ 00055218 f   PlugininCanSettingDlg.obj
 0001:000442e8       ?OnBnClickedButtonPFSelectUp@CPlugininCanSettingDlg@@AAAXXZ 000552e8 f   PlugininCanSettingDlg.obj
 0001:000442fc       ?OnBnClickedButtonPFSelectDown@CPlugininCanSettingDlg@@AAAXXZ 000552fc f   PlugininCanSettingDlg.obj
 0001:00044310       ?OnTimer@CPlugininCanSettingDlg@@QAAXI@Z 00055310 f   PlugininCanSettingDlg.obj
 0001:00044348       ?GetRuntimeClass@CPlugininSdHiddenInfoDlg@@UBAPAUCRuntimeClass@@XZ 00055348 f   PlugininSdHiddenInfoDlg.obj
 0001:00044354       ??_GCPlugininSdHiddenInfoDlg@@UAAPAXI@Z 00055354 f i PlugininSdHiddenInfoDlg.obj
 0001:00044354       ??_ECPlugininSdHiddenInfoDlg@@UAAPAXI@Z 00055354 f i  CIL library: CIL module
 0001:00044384       ?GetMessageMap@CPlugininMapDataCheckDlg@@MBAPBUAFX_MSGMAP@@XZ 00055384 f   PlugininMapDataCheckDlg.obj
 0001:00044384       ?GetMessageMap@CPlugininSdHiddenInfoDlg@@MBAPBUAFX_MSGMAP@@XZ 00055384 f   PlugininSdHiddenInfoDlg.obj
 0001:00044390       ?OnInitDialog@CPlugininSdHiddenInfoDlg@@MAAHXZ 00055390 f   PlugininSdHiddenInfoDlg.obj
 0001:0004440c       ?PreTranslateMessage@CPlugininSdHiddenInfoDlg@@UAAHPAUtagMSG@@@Z 0005540c f   PlugininSdHiddenInfoDlg.obj
 0001:00044444       ?OnMuNotifyDispStop@CPlugininSdHiddenInfoDlg@@UAAXIJ@Z 00055444 f   PlugininSdHiddenInfoDlg.obj
 0001:000444d0       ?OnReqNonDisplay@CPlugininSdHiddenInfoDlg@@UAAXIJ@Z 000554d0 f   PlugininSdHiddenInfoDlg.obj
 0001:00044524       ?GetRuntimeClass@CPlugininOperationLogDlg@@UBAPAUCRuntimeClass@@XZ 00055524 f   PlugininOperationLogDlg.obj
 0001:00044538       ??0CPlugininOperationLogDlg@@QAA@PAVCWnd@@@Z 00055538 f   PlugininOperationLogDlg.obj
 0001:00044630       ??_GCPlugininOperationLogDlg@@UAAPAXI@Z 00055630 f i PlugininOperationLogDlg.obj
 0001:00044630       ??_ECPlugininOperationLogDlg@@UAAPAXI@Z 00055630 f i  CIL library: CIL module
 0001:0004465c       ??1CPlugininOperationLogDlg@@UAA@XZ 0005565c f   PlugininOperationLogDlg.obj
 0001:00044768       ?GetMessageMap@CPlugininOperationLogDlg@@MBAPBUAFX_MSGMAP@@XZ 00055768 f   PlugininOperationLogDlg.obj
 0001:00044774       ?OnInitDialog@CPlugininOperationLogDlg@@MAAHXZ 00055774 f   PlugininOperationLogDlg.obj
 0001:00044948       ?OnBnClickedButton1@CPlugininOperationLogDlg@@QAAXXZ 00055948 f   PlugininOperationLogDlg.obj
 0001:000449b4       ?OnBnClickedButtonEnableReplayRepeat@CPlugininOperationLogDlg@@QAAXXZ 000559b4 f   PlugininOperationLogDlg.obj
 0001:00044a20       ?OnBnClickedBtnSD@CPlugininOperationLogDlg@@QAAXXZ 00055a20 f   PlugininOperationLogDlg.obj
 0001:00044ab4       ?OnBnClickedBtnUSB@CPlugininOperationLogDlg@@QAAXXZ 00055ab4 f   PlugininOperationLogDlg.obj
 0001:00044b48       ?UpdateButtonsColor@CPlugininOperationLogDlg@@AAAXXZ 00055b48 f   PlugininOperationLogDlg.obj
 0001:00044c30       ?OnBnClicked1@CPlugininDealerModeErrorLogDlg@@QAAXXZ 00055c30 f i PlugininDealerModeErrorLogDlg.obj
 0001:00044c38       ?OnBnClicked2@CPlugininDealerModeErrorLogDlg@@QAAXXZ 00055c38 f i PlugininDealerModeErrorLogDlg.obj
 0001:00044c40       ?OnBnClicked3@CPlugininDealerModeErrorLogDlg@@QAAXXZ 00055c40 f i PlugininDealerModeErrorLogDlg.obj
 0001:00044c48       ?OnBnClicked4@CPlugininDealerModeErrorLogDlg@@QAAXXZ 00055c48 f i PlugininDealerModeErrorLogDlg.obj
 0001:00044c50       ?OnBnClicked5@CPlugininDealerModeErrorLogDlg@@QAAXXZ 00055c50 f i PlugininDealerModeErrorLogDlg.obj
 0001:00044c58       ?OnBnClicked6@CPlugininDealerModeErrorLogDlg@@QAAXXZ 00055c58 f i PlugininDealerModeErrorLogDlg.obj
 0001:00044c60       ?CompareDealerLogDefinition@@YAHPBUDealerLogDefinition@@0@Z 00055c60 f i PlugininDealerModeErrorLogDlg.obj
 0001:00044c68       ?GetDealerLogDefinitions@@YAJPAPAUDealerLogDefinition@@PAI@Z 00055c68 f i PlugininDealerModeErrorLogDlg.obj
 0001:00044e4c       ?GetRuntimeClass@CPlugininDealerModeErrorLogDlg@@UBAPAUCRuntimeClass@@XZ 00055e4c f   PlugininDealerModeErrorLogDlg.obj
 0001:00044e60       ?FormatDate@?A0xb4319374@@YA?AV?$CStringT@_WV?$StrTraitMFC@_WV?$ChTraitsOS@_W@ATL@@@@@ATL@@ABUST_MEM_DLOG_INFO@@@Z 00055e60 f   PlugininDealerModeErrorLogDlg.obj
 0001:00044f2c       ?FormatLongitudeAndLatitude@?A0xb4319374@@YA?AV?$CStringT@_WV?$StrTraitMFC@_WV?$ChTraitsOS@_W@ATL@@@@@ATL@@ABUST_MEM_DLOG_INFO@@@Z 00055f2c f   PlugininDealerModeErrorLogDlg.obj
 0001:00045128       ?FormatErrorMsg@?A0xb4319374@@YA?AV?$CStringT@_WV?$StrTraitMFC@_WV?$ChTraitsOS@_W@ATL@@@@@ATL@@PBUDealerLogDefinition@@IABUST_MEM_DLOG_INFO@@@Z 00056128 f   PlugininDealerModeErrorLogDlg.obj
 0001:00045308       ?FormatAVMode@?A0xb4319374@@YA?AV?$CStringT@_WV?$StrTraitMFC@_WV?$ChTraitsOS@_W@ATL@@@@@ATL@@ABUST_MEM_DLOG_INFO@@@Z 00056308 f   PlugininDealerModeErrorLogDlg.obj
 0001:000454c4       ?FormatState@?A0xb4319374@@YA?AV?$CStringT@_WV?$StrTraitMFC@_WV?$ChTraitsOS@_W@ATL@@@@@ATL@@ABUST_MEM_DLOG_INFO@@@Z 000564c4 f   PlugininDealerModeErrorLogDlg.obj
 0001:000454fc       ?FormatDetailLog@?A0xb4319374@@YA?AV?$CStringT@_WV?$StrTraitMFC@_WV?$ChTraitsOS@_W@ATL@@@@@ATL@@PBUDealerLogDefinition@@IABUST_MEM_DLOG_INFO@@@Z 000564fc f   PlugininDealerModeErrorLogDlg.obj
 0001:000458b0       ??0CPlugininDealerModeErrorLogDlg@@QAA@PAVCWnd@@@Z 000568b0 f   PlugininDealerModeErrorLogDlg.obj
 0001:00045b08       ??_ECPlugininDealerModeErrorLogDlg@@UAAPAXI@Z 00056b08 f i  CIL library: CIL module
 0001:00045b08       ??_GCPlugininDealerModeErrorLogDlg@@UAAPAXI@Z 00056b08 f i PlugininDealerModeErrorLogDlg.obj
 0001:00045b34       ??1CPlugininDealerModeErrorLogDlg@@UAA@XZ 00056b34 f   PlugininDealerModeErrorLogDlg.obj
 0001:00045db0       ?GetMessageMap@CPlugininDealerModeErrorLogDlg@@MBAPBUAFX_MSGMAP@@XZ 00056db0 f   PlugininDealerModeErrorLogDlg.obj
 0001:00045dbc       ?OnInitDialog@CPlugininDealerModeErrorLogDlg@@MAAHXZ 00056dbc f   PlugininDealerModeErrorLogDlg.obj
 0001:00046280       ?OnCtlColor@CPlugininAudioDlg@@QAAPAUHBRUSH__@@PAVCDC@@PAVCWnd@@I@Z 00057280 f   PlugininAudioDlg.obj
 0001:00046280       ?OnCtlColor@CPlugininDateTimeDlg@@QAAPAUHBRUSH__@@PAVCDC@@PAVCWnd@@I@Z 00057280 f   PlugininDateTimeDlg.obj
 0001:00046280       ?OnCtlColor@CPlugininSystemDlg@@QAAPAUHBRUSH__@@PAVCDC@@PAVCWnd@@I@Z 00057280 f   PlugininSystemDlg.obj
 0001:00046280       ?OnCtlColor@CPlugininNandTestStatDlg@@QAAPAUHBRUSH__@@PAVCDC@@PAVCWnd@@I@Z 00057280 f   PlugininNandTestStatDlg.obj
 0001:00046280       ?OnCtlColor@CPlugininNaviPathfindDlg@@QAAPAUHBRUSH__@@PAVCDC@@PAVCWnd@@I@Z 00057280 f   PlugininNaviPathfindDlg.obj
 0001:00046280       ?OnCtlColor@CPlugininRegistrationPointDlg@@QAAPAUHBRUSH__@@PAVCDC@@PAVCWnd@@I@Z 00057280 f   PlugininRegistrationPointDlg.obj
 0001:00046280       ?OnCtlColor@CPlugininSdHiddenInfoDlg@@QAAPAUHBRUSH__@@PAVCDC@@PAVCWnd@@I@Z 00057280 f   PlugininSdHiddenInfoDlg.obj
 0001:00046280       ?OnCtlColor@CPlugininAudioCddbManagerDlg@@QAAPAUHBRUSH__@@PAVCDC@@PAVCWnd@@I@Z 00057280 f   PlugininAudioCddbManagerDlg.obj
 0001:00046280       ?OnCtlColor@CPlugininAudioHistoryBaseDlg@@IAAPAUHBRUSH__@@PAVCDC@@PAVCWnd@@I@Z 00057280 f   PlugininAudioHistoryBaseDlg.obj
 0001:00046280       ?OnCtlColor@CPlugininLocationInfoDlg@@QAAPAUHBRUSH__@@PAVCDC@@PAVCWnd@@I@Z 00057280 f   PlugininLocationInfoDlg.obj
 0001:00046280       ?OnCtlColor@CPlugininCanSettingDlg@@QAAPAUHBRUSH__@@PAVCDC@@PAVCWnd@@I@Z 00057280 f   PlugininCanSettingDlg.obj
 0001:00046280       ?OnCtlColor@CPlugininCameraSettingDlg@@QAAPAUHBRUSH__@@PAVCDC@@PAVCWnd@@I@Z 00057280 f   PlugininCameraSettingDlg.obj
 0001:00046280       ?OnCtlColor@CPlugininTemperatureDlg@@QAAPAUHBRUSH__@@PAVCDC@@PAVCWnd@@I@Z 00057280 f   PlugininTemperatureDlg.obj
 0001:00046280       ?OnCtlColor@CPlugininDealerModeErrorLogDlg@@QAAPAUHBRUSH__@@PAVCDC@@PAVCWnd@@I@Z 00057280 f   PlugininDealerModeErrorLogDlg.obj
 0001:00046280       ?OnCtlColor@CPlugininIPerfDlg@@QAAPAUHBRUSH__@@PAVCDC@@PAVCWnd@@I@Z 00057280 f   PlugininIPerfDlg.obj
 0001:00046280       ?OnCtlColor@CPlugininCanCameraParamaterDlg@@QAAPAUHBRUSH__@@PAVCDC@@PAVCWnd@@I@Z 00057280 f   PlugininCanCameraParamaterDlg.obj
 0001:00046280       ?OnCtlColor@CPlugininMonitorEnduranceTestDlg@@QAAPAUHBRUSH__@@PAVCDC@@PAVCWnd@@I@Z 00057280 f   PlugininMonitorEnduranceTestDlg.obj
 0001:00046280       ?OnCtlColor@CPlugininAccelerometerCalibrationDlg@@QAAPAUHBRUSH__@@PAVCDC@@PAVCWnd@@I@Z 00057280 f   PlugininAccelerometerCalibrationDlg.obj
 0001:00046280       ?OnCtlColor@CPlugininOpeningImageWriteDlg@@QAAPAUHBRUSH__@@PAVCDC@@PAVCWnd@@I@Z 00057280 f   PlugininOpeningImageWriteDlg.obj
 0001:00046280       ?OnCtlColor@CPlugininBtLogDlg@@QAAPAUHBRUSH__@@PAVCDC@@PAVCWnd@@I@Z 00057280 f   PlugininBtLogDlg.obj
 0001:00046280       ?OnCtlColor@CPlugininFactoryDataWriteDlg@@QAAPAUHBRUSH__@@PAVCDC@@PAVCWnd@@I@Z 00057280 f   PlugininFactoryDataWriteDlg.obj
 0001:00046280       ?OnCtlColor@CPlugininFileSystemDlg@@QAAPAUHBRUSH__@@PAVCDC@@PAVCWnd@@I@Z 00057280 f   PlugininFileSystemDlg.obj
 0001:00046280       ?OnCtlColor@CPlugininHmiDlg@@QAAPAUHBRUSH__@@PAVCDC@@PAVCWnd@@I@Z 00057280 f   PlugininHmiDlg.obj
 0001:00046280       ?OnCtlColor@CPlugininSpkParamWriteDlg@@QAAPAUHBRUSH__@@PAVCDC@@PAVCWnd@@I@Z 00057280 f   PlugininSpkParamWriteDlg.obj
 0001:00046280       ?OnCtlColor@CPlugininCamDataIndSetDlg@@QAAPAUHBRUSH__@@PAVCDC@@PAVCWnd@@I@Z 00057280 f   PlugininCamDataIndSetDlg.obj
 0001:00046280       ?OnCtlColor@CPlugininMainMicomDlg@@QAAPAUHBRUSH__@@PAVCDC@@PAVCWnd@@I@Z 00057280 f   PlugininMainMicomDlg.obj
 0001:00046280       ?OnCtlColor@CPlugininBuyUpdateDayUpdateDlg@@QAAPAUHBRUSH__@@PAVCDC@@PAVCWnd@@I@Z 00057280 f   PlugininBuyUpdateDayUpdateDlg.obj
 0001:00046280       ?OnCtlColor@CPlugininDriveRecording17Dlg@@QAAPAUHBRUSH__@@PAVCDC@@PAVCWnd@@I@Z 00057280 f   PlugininDriveRecording17Dlg.obj
 0001:00046280       ?OnCtlColor@CPlugininVicsLv3Dlg@@QAAPAUHBRUSH__@@PAVCDC@@PAVCWnd@@I@Z 00057280 f   PlugininVicsLv3Dlg.obj
 0001:00046280       ?OnCtlColor@CPlugininA1RecordingDlg@@QAAPAUHBRUSH__@@PAVCDC@@PAVCWnd@@I@Z 00057280 f   PlugininA1RecordingDlg.obj
 0001:00046280       ?OnCtlColor@CPlugininAutoMapScreenDlg@@QAAPAUHBRUSH__@@PAVCDC@@PAVCWnd@@I@Z 00057280 f   PlugininAutoMapScreenDlg.obj
 0001:00046280       ?OnCtlColor@CPlugininDtvEdIdDlg@@QAAPAUHBRUSH__@@PAVCDC@@PAVCWnd@@I@Z 00057280 f   PlugininDtvEdIdDlg.obj
 0001:00046280       ?OnCtlColor@CPlugininCameraDataWriteDlg@@QAAPAUHBRUSH__@@PAVCDC@@PAVCWnd@@I@Z 00057280 f   PlugininCameraDataWriteDlg.obj
 0001:00046280       ?OnCtlColor@CPlugininCarPlaySwitchDlg@@QAAPAUHBRUSH__@@PAVCDC@@PAVCWnd@@I@Z 00057280 f   PlugininCarPlaySwitchDlg.obj
 0001:00046280       ?OnCtlColor@CPlugininSystemInitDlg@@QAAPAUHBRUSH__@@PAVCDC@@PAVCWnd@@I@Z 00057280 f   PlugininSystemInitDlg.obj
 0001:00046280       ?OnCtlColor@CPlugininDemoModeDlg@@QAAPAUHBRUSH__@@PAVCDC@@PAVCWnd@@I@Z 00057280 f   PlugininDemoModeDlg.obj
 0001:00046280       ?OnCtlColor@CPlugininEtcDlg@@QAAPAUHBRUSH__@@PAVCDC@@PAVCWnd@@I@Z 00057280 f   PlugininEtcDlg.obj
 0001:00046280       ?OnCtlColor@CPlugininFactoryWriteDataListDlg@@QAAPAUHBRUSH__@@PAVCDC@@PAVCWnd@@I@Z 00057280 f   PlugininFactoryWriteDataListDlg.obj
 0001:00046280       ?OnCtlColor@CPlugininMapUpdateReminderDlg@@QAAPAUHBRUSH__@@PAVCDC@@PAVCWnd@@I@Z 00057280 f   PlugininMapUpdateRemDlg.obj
 0001:00046280       ?OnCtlColor@CPlugininUSBSignalDlg@@QAAPAUHBRUSH__@@PAVCDC@@PAVCWnd@@I@Z 00057280 f   PlugininUSBSignalDlg.obj
 0001:00046280       ?OnCtlColor@CPlugininMapDataCheckDlg@@QAAPAUHBRUSH__@@PAVCDC@@PAVCWnd@@I@Z 00057280 f   PlugininMapDataCheckDlg.obj
 0001:00046280       ?OnCtlColor@CPlugininA1ScalerDlg@@QAAPAUHBRUSH__@@PAVCDC@@PAVCWnd@@I@Z 00057280 f   PlugininA1ScalerDlg.obj
 0001:00046280       ?OnCtlColor@CPlugininEMMCErrorLogDlg@@QAAPAUHBRUSH__@@PAVCDC@@PAVCWnd@@I@Z 00057280 f   PlugininEMMCErrorLogDlg.obj
 0001:00046280       ?OnCtlColor@CPlugininLogSwitchDlg@@QAAPAUHBRUSH__@@PAVCDC@@PAVCWnd@@I@Z 00057280 f   PlugininLogSwitchDlg.obj
 0001:00046280       ?OnCtlColor@CPlugininOperationLogDlg@@QAAPAUHBRUSH__@@PAVCDC@@PAVCWnd@@I@Z 00057280 f   PlugininOperationLogDlg.obj
 0001:00046280       ?OnCtlColor@CPlugininCamCameraPosDlg@@QAAPAUHBRUSH__@@PAVCDC@@PAVCWnd@@I@Z 00057280 f   PlugininCamCameraPosDlg.obj
 0001:00046280       ?OnCtlColor@CPlugininBtTestDlg@@QAAPAUHBRUSH__@@PAVCDC@@PAVCWnd@@I@Z 00057280 f   PlugininBtTestDlg.obj
 0001:00046280       ?OnCtlColor@CPlugininCameraDCompanySettingDlg@@QAAPAUHBRUSH__@@PAVCDC@@PAVCWnd@@I@Z 00057280 f   PlugininCameraDCompanySettingDlg.obj
 0001:00046280       ?OnCtlColor@CPlugininConeectNoSettingDlg@@QAAPAUHBRUSH__@@PAVCDC@@PAVCWnd@@I@Z 00057280 f   PlugininConeectNoSettingDlg.obj
 0001:00046280       ?OnCtlColor@CPlugininSimulationDlg@@QAAPAUHBRUSH__@@PAVCDC@@PAVCWnd@@I@Z 00057280 f   PlugininSimulationDlg.obj
 0001:00046280       ?OnCtlColor@CPlugininDriveRecordingDlg@@QAAPAUHBRUSH__@@PAVCDC@@PAVCWnd@@I@Z 00057280 f   PlugininDriveRecordingDlg.obj
 0001:00046280       ?OnCtlColor@CPlugininSramSaveDlg@@QAAPAUHBRUSH__@@PAVCDC@@PAVCWnd@@I@Z 00057280 f   PlugininSramSaveDlg.obj
 0001:00046280       ?OnCtlColor@CPlugininMemoryClearDlg@@QAAPAUHBRUSH__@@PAVCDC@@PAVCWnd@@I@Z 00057280 f   PlugininMemoryClearDlg.obj
 0001:00046280       ?OnCtlColor@CPlugininTouchPanelTestDlg@@QAAPAUHBRUSH__@@PAVCDC@@PAVCWnd@@I@Z 00057280 f   PlugininTouchPanelTestDlg.obj
 0001:00046280       ?OnCtlColor@CPlugininLocationDiagDlg@@QAAPAUHBRUSH__@@PAVCDC@@PAVCWnd@@I@Z 00057280 f   PlugininLocationDiagDlg.obj
 0001:00046280       ?OnCtlColor@CPlugininUSBDeviceCheckDlg@@QAAPAUHBRUSH__@@PAVCDC@@PAVCWnd@@I@Z 00057280 f   PlugininUSBDeviceCheckDlg.obj
 0001:00046280       ?OnCtlColor@CPlugininFramConfDlg@@QAAPAUHBRUSH__@@PAVCDC@@PAVCWnd@@I@Z 00057280 f   PlugininFramConfDlg.obj
 0001:00046280       ?OnCtlColor@CPlugininCameraPosDlg@@QAAPAUHBRUSH__@@PAVCDC@@PAVCWnd@@I@Z 00057280 f   PlugininCameraPosDlg.obj
 0001:000462b4       ?SetBtnTitle@CPlugininDealerModeErrorLogDlg@@IAA?AV?$CStringT@_WV?$StrTraitMFC@_WV?$ChTraitsOS@_W@ATL@@@@@ATL@@ABUST_MEM_DLOG_INFO@@@Z 000572b4 f   PlugininDealerModeErrorLogDlg.obj
 0001:00046404       ?OnBnClickedCancel@CPlugininDealerModeErrorLogDlg@@QAAXXZ 00057404 f   PlugininDealerModeErrorLogDlg.obj
 0001:0004647c       ?OnBnClickedButtonNext@CPlugininDealerModeErrorLogDlg@@QAAXXZ 0005747c f   PlugininDealerModeErrorLogDlg.obj
 0001:000464a4       ?OnBnClickedButtonPrev@CPlugininDealerModeErrorLogDlg@@QAAXXZ 000574a4 f   PlugininDealerModeErrorLogDlg.obj
 0001:000464d4       ?OnBnClicked@CPlugininDealerModeErrorLogDlg@@IAAXI@Z 000574d4 f   PlugininDealerModeErrorLogDlg.obj
 0001:00046604       ?UpdateListCaption@CPlugininDealerModeErrorLogDlg@@IAAXXZ 00057604 f   PlugininDealerModeErrorLogDlg.obj
 0001:000467b8       ?Replace@?$CStringT@_WV?$StrTraitMFC@_WV?$ChTraitsOS@_W@ATL@@@@@ATL@@QAAHPB_W0@Z 000577b8 f i PlugininDealerModeErrorLogDlg.obj
 0001:000469a4       ?IsSpace@?$ChTraitsOS@_W@ATL@@SAH_W@Z 000579a4 f i PlugininDealerModeErrorLogDlg.obj
 0001:000469f0       ?StringFindString@?$ChTraitsOS@_W@ATL@@SAPB_WPB_W0@Z 000579f0 f i PlugininDealerModeErrorLogDlg.obj
 0001:00046a98       ?GetRuntimeClass@CPlugininVersionDlg@@UBAPAUCRuntimeClass@@XZ 00057a98 f   PlugininVersionDlg.obj
 0001:00046aa4       ??_GCPlugininVersionDlg@@UAAPAXI@Z 00057aa4 f i PlugininVersionDlg.obj
 0001:00046aa4       ??_ECPlugininVersionDlg@@UAAPAXI@Z 00057aa4 f i  CIL library: CIL module
 0001:00046ad0       ??1CPlugininVersionDlg@@UAA@XZ 00057ad0 f   PlugininVersionDlg.obj
 0001:00046b84       ?GetMessageMap@CPlugininVersionDlg@@MBAPBUAFX_MSGMAP@@XZ 00057b84 f   PlugininVersionDlg.obj
 0001:00046b98       ?OnInitDialog@CPlugininVersionDlg@@MAAHXZ 00057b98 f   PlugininVersionDlg.obj
 0001:000470a4       ?UpdateVersion@CPlugininVersionDlg@@IAAXXZ 000580a4 f   PlugininVersionDlg.obj
 0001:00047eb0       ?OnCtlColor@CPlugininVersionDlg@@QAAPAUHBRUSH__@@PAVCDC@@PAVCWnd@@I@Z 00058eb0 f   PlugininVersionDlg.obj
 0001:00047f90       ?GetBootVer@@YAHPAE@Z      00058f90 f   PlugininVersionDlg.obj
 0001:000480f0       ?GetA1RTVer@@YAHPAUST_MEM_CHAR16_DEFAULT@@0@Z 000590f0 f   PlugininVersionDlg.obj
 0001:000482b0       ?OsInfoDispOut@@YAXPAUT_OSIMG_INFO@@@Z 000592b0 f   PlugininVersionDlg.obj
 0001:0004843c       ?GetOsInfo@@YAHXZ          0005943c f   PlugininVersionDlg.obj
 0001:000485c8       ?GetHRFrmVer@@YAHPAUBM948XX_VERSION@@@Z 000595c8 f   PlugininVersionDlg.obj
 0001:00048698       ?OnTimer@CPlugininVersionDlg@@QAAXI@Z 00059698 f   PlugininVersionDlg.obj
 0001:000486a4       ??$FixedSizeBufferToCString@E$0BE@@@YA?AV?$CStringT@_WV?$StrTraitMFC@_WV?$ChTraitsOS@_W@ATL@@@@@ATL@@AAY0BE@$$CBE@Z 000596a4 f i PlugininVersionDlg.obj
 0001:000486bc       ??$FixedSizeBufferToCString@E$0O@@@YA?AV?$CStringT@_WV?$StrTraitMFC@_WV?$ChTraitsOS@_W@ATL@@@@@ATL@@AAY0O@$$CBE@Z 000596bc f i PlugininVersionDlg.obj
 0001:000486d4       ??$FixedSizeBufferToCString@E$08@@YA?AV?$CStringT@_WV?$StrTraitMFC@_WV?$ChTraitsOS@_W@ATL@@@@@ATL@@AAY08$$CBE@Z 000596d4 f i PlugininVersionDlg.obj
 0001:000486f4       ??0?$CStringT@_WV?$StrTraitMFC@_WV?$ChTraitsOS@_W@ATL@@@@@ATL@@QAA@PBDH@Z 000596f4 f i PlugininVersionDlg.obj
 0001:00048804       ?AppendChar@?$CSimpleStringT@_W$0A@@ATL@@QAAX_W@Z 00059804 f i PlugininVersionDlg.obj
 0001:00048858       ?GetRuntimeClass@CPlugininSteeringSwCheckDlg@@UBAPAUCRuntimeClass@@XZ 00059858 f   PlugininSteeringSwCheckDlg.obj
 0001:00048864       ??_ECPlugininSteeringSwCheckDlg@@UAAPAXI@Z 00059864 f i  CIL library: CIL module
 0001:00048864       ??_GCPlugininSteeringSwCheckDlg@@UAAPAXI@Z 00059864 f i PlugininSteeringSwCheckDlg.obj
 0001:00048894       ?GetMessageMap@CPlugininSteeringSwCheckDlg@@MBAPBUAFX_MSGMAP@@XZ 00059894 f   PlugininSteeringSwCheckDlg.obj
 0001:000488a0       ?OnInitDialog@CPlugininSteeringSwCheckDlg@@MAAHXZ 000598a0 f   PlugininSteeringSwCheckDlg.obj
 0001:00048df4       ?OnCtlColor@CPlugininMasterImageWritingDlg@@QAAPAUHBRUSH__@@PAVCDC@@PAVCWnd@@I@Z 00059df4 f   PlugininMasterImageWritingDlg.obj
 0001:00048df4       ?OnCtlColor@CPlugininVoiceGuidanceTestDlg@@QAAPAUHBRUSH__@@PAVCDC@@PAVCWnd@@I@Z 00059df4 f   PlugininVoiceGuidanceTestDlg.obj
 0001:00048df4       ?OnCtlColor@CPlugininSteeringSwCheckDlg@@QAAPAUHBRUSH__@@PAVCDC@@PAVCWnd@@I@Z 00059df4 f   PlugininSteeringSwCheckDlg.obj
 0001:00048df4       ?OnCtlColor@CPlugininExBoxTestDlg@@QAAPAUHBRUSH__@@PAVCDC@@PAVCWnd@@I@Z 00059df4 f   PlugininExBoxTestDlg.obj
 0001:00048e2c       ?OnTimer@CPlugininSteeringSwCheckDlg@@QAAXI@Z 00059e2c f   PlugininSteeringSwCheckDlg.obj
 0001:00048e94       ?UpdateSetting@CPlugininSteeringSwCheckDlg@@IAAXXZ 00059e94 f   PlugininSteeringSwCheckDlg.obj
 0001:000491a4       ?PreTranslateMessage@CPlugininSteeringSwCheckDlg@@MAAHPAUtagMSG@@@Z 0005a1a4 f   PlugininSteeringSwCheckDlg.obj
 0001:000491dc       ?OnResSteeringVoltage@CPlugininSteeringSwCheckDlg@@IAAJIJ@Z 0005a1dc f   PlugininSteeringSwCheckDlg.obj
 0001:000492d4       ?GetRuntimeClass@CPlugininTemperatureDlg@@UBAPAUCRuntimeClass@@XZ 0005a2d4 f   PlugininTemperatureDlg.obj
 0001:000492e0       ??_GCPlugininTemperatureDlg@@UAAPAXI@Z 0005a2e0 f i PlugininTemperatureDlg.obj
 0001:000492e0       ??_ECPlugininTemperatureDlg@@UAAPAXI@Z 0005a2e0 f i  CIL library: CIL module
 0001:00049310       ?GetMessageMap@CPlugininTemperatureDlg@@MBAPBUAFX_MSGMAP@@XZ 0005a310 f   PlugininTemperatureDlg.obj
 0001:0004931c       ?OnInitDialog@CPlugininTemperatureDlg@@MAAHXZ 0005a31c f   PlugininTemperatureDlg.obj
 0001:00049734       ?OnSmResMainData@CPlugininTemperatureDlg@@MAAXPBEK@Z 0005a734 f   PlugininTemperatureDlg.obj
 0001:0004991c       ?OnTimer@CPlugininTemperatureDlg@@QAAXI@Z 0005a91c f   PlugininTemperatureDlg.obj
 0001:000499bc       ?GetRuntimeClass@CPlugininVoiceGuidanceTestDlg@@UBAPAUCRuntimeClass@@XZ 0005a9bc f   PlugininVoiceGuidanceTestDlg.obj
 0001:000499d0       ??0CPlugininVoiceGuidanceTestDlg@@QAA@PAVCWnd@@@Z 0005a9d0 f   PlugininVoiceGuidanceTestDlg.obj
 0001:00049bb8       ??_GCPlugininVoiceGuidanceTestDlg@@UAAPAXI@Z 0005abb8 f i PlugininVoiceGuidanceTestDlg.obj
 0001:00049bb8       ??_ECPlugininVoiceGuidanceTestDlg@@UAAPAXI@Z 0005abb8 f i  CIL library: CIL module
 0001:00049be4       ??1CPlugininVoiceGuidanceTestDlg@@UAA@XZ 0005abe4 f   PlugininVoiceGuidanceTestDlg.obj
 0001:00049da4       ?GetMessageMap@CPlugininVoiceGuidanceTestDlg@@MBAPBUAFX_MSGMAP@@XZ 0005ada4 f   PlugininVoiceGuidanceTestDlg.obj
 0001:00049db0       ?OnInitDialog@CPlugininVoiceGuidanceTestDlg@@MAAHXZ 0005adb0 f   PlugininVoiceGuidanceTestDlg.obj
 0001:0004a114       ?OnBnDigitUp@CPlugininVoiceGuidanceTestDlg@@QAAXXZ 0005b114 f   PlugininVoiceGuidanceTestDlg.obj
 0001:0004a138       ?OnBnDigitDown@CPlugininVoiceGuidanceTestDlg@@QAAXXZ 0005b138 f   PlugininVoiceGuidanceTestDlg.obj
 0001:0004a164       ?OnBnNumberUp@CPlugininVoiceGuidanceTestDlg@@QAAXXZ 0005b164 f   PlugininVoiceGuidanceTestDlg.obj
 0001:0004a204       ?OnBnNumberDown@CPlugininVoiceGuidanceTestDlg@@QAAXXZ 0005b204 f   PlugininVoiceGuidanceTestDlg.obj
 0001:0004a29c       ?OnBnClear@CPlugininVoiceGuidanceTestDlg@@QAAXXZ 0005b29c f   PlugininVoiceGuidanceTestDlg.obj
 0001:0004a2cc       ?setPhraseNo@CPlugininVoiceGuidanceTestDlg@@AAAXH@Z 0005b2cc f   PlugininVoiceGuidanceTestDlg.obj
 0001:0004a44c       ?setDigit@CPlugininVoiceGuidanceTestDlg@@AAAXI@Z 0005b44c f   PlugininVoiceGuidanceTestDlg.obj
 0001:0004a504       ?OnBnJapanese@CPlugininVoiceGuidanceTestDlg@@QAAXXZ 0005b504 f   PlugininVoiceGuidanceTestDlg.obj
 0001:0004a564       ?OnBnEnglish@CPlugininVoiceGuidanceTestDlg@@QAAXXZ 0005b564 f   PlugininVoiceGuidanceTestDlg.obj
 0001:0004a5cc       ?OnBnPlay@CPlugininVoiceGuidanceTestDlg@@QAAXXZ 0005b5cc f   PlugininVoiceGuidanceTestDlg.obj
 0001:0004a630       ?PreTranslateMessage@CPlugininVoiceGuidanceTestDlg@@MAAHPAUtagMSG@@@Z 0005b630 f   PlugininVoiceGuidanceTestDlg.obj
 0001:0004a668       ??$sprintf_s@$08@@YAHAAY08DPBDZZ 0005b668 f i PlugininVoiceGuidanceTestDlg.obj
 0001:0004a68c       ?GetRuntimeClass@CPlugininDtvEdIdDlg@@UBAPAUCRuntimeClass@@XZ 0005b68c f   PlugininDtvEdIdDlg.obj
 0001:0004a698       ??_GCPlugininDtvEdIdDlg@@UAAPAXI@Z 0005b698 f i PlugininDtvEdIdDlg.obj
 0001:0004a698       ??_ECPlugininDtvEdIdDlg@@UAAPAXI@Z 0005b698 f i  CIL library: CIL module
 0001:0004a6c4       ??1CPlugininDtvEdIdDlg@@UAA@XZ 0005b6c4 f   PlugininDtvEdIdDlg.obj
 0001:0004a758       ?GetMessageMap@CPlugininDtvEdIdDlg@@MBAPBUAFX_MSGMAP@@XZ 0005b758 f   PlugininDtvEdIdDlg.obj
 0001:0004a764       ?OnInitDialog@CPlugininDtvEdIdDlg@@MAAHXZ 0005b764 f   PlugininDtvEdIdDlg.obj
 0001:0004a940       ?OnBnClickedWriteModeChange@CPlugininDtvEdIdDlg@@QAAXXZ 0005b940 f   PlugininDtvEdIdDlg.obj
 0001:0004aa48       ?DispWriteMode@CPlugininDtvEdIdDlg@@AAAXXZ 0005ba48 f   PlugininDtvEdIdDlg.obj
 0001:0004aab8       ?OnSmResMainData@CPlugininDtvEdIdDlg@@EAAXPBEK@Z 0005bab8 f   PlugininDtvEdIdDlg.obj
 0001:0004ab7c       ?GetRuntimeClass@CPlugininFactoryDataWriteDlg@@UBAPAUCRuntimeClass@@XZ 0005bb7c f   PlugininFactoryDataWriteDlg.obj
 0001:0004ab90       ??0CPlugininFactoryDataWriteDlg@@QAA@PAVCWnd@@@Z 0005bb90 f   PlugininFactoryDataWriteDlg.obj
 0001:0004acec       ??_GCPlugininFactoryDataWriteDlg@@UAAPAXI@Z 0005bcec f i PlugininFactoryDataWriteDlg.obj
 0001:0004acec       ??_ECPlugininFactoryDataWriteDlg@@UAAPAXI@Z 0005bcec f i  CIL library: CIL module
 0001:0004ad18       ??1CPlugininFactoryDataWriteDlg@@UAA@XZ 0005bd18 f   PlugininFactoryDataWriteDlg.obj
 0001:0004ae44       ?GetMessageMap@CPlugininFactoryDataWriteDlg@@MBAPBUAFX_MSGMAP@@XZ 0005be44 f   PlugininFactoryDataWriteDlg.obj
 0001:0004ae50       ?OnInitDialog@CPlugininFactoryDataWriteDlg@@MAAHXZ 0005be50 f   PlugininFactoryDataWriteDlg.obj
 0001:0004b3ac       ?OnBnClickedFactWrite1@CPlugininFactoryDataWriteDlg@@QAAXXZ 0005c3ac f   PlugininFactoryDataWriteDlg.obj
 0001:0004b3d0       ?FactDataWrite@CPlugininFactoryDataWriteDlg@@AAAXI@Z 0005c3d0 f   PlugininFactoryDataWriteDlg.obj
 0001:0004b6f8       ?OnBnClickedFactWrite2@CPlugininFactoryDataWriteDlg@@QAAXXZ 0005c6f8 f   PlugininFactoryDataWriteDlg.obj
 0001:0004b930       ?OnBnClickedFactRead@CPlugininFactoryDataWriteDlg@@QAAXXZ 0005c930 f   PlugininFactoryDataWriteDlg.obj
 0001:0004bb40       ?OnBnClickedFactWrite3@CPlugininFactoryDataWriteDlg@@QAAXXZ 0005cb40 f   PlugininFactoryDataWriteDlg.obj
 0001:0004bb5c       ?PreTranslateMessage@CPlugininFactoryDataWriteDlg@@MAAHPAUtagMSG@@@Z 0005cb5c f   PlugininFactoryDataWriteDlg.obj
 0001:0004bbb0       ?RetDisp@CPlugininFactoryDataWriteDlg@@AAAXK@Z 0005cbb0 f   PlugininFactoryDataWriteDlg.obj
 0001:0004bcd8       ?FactCameraWrite@@YA?AW4DIAG_FACTORY_DATA_RESULT@@PAVDIAG_MemoryManager@@@Z 0005ccd8 f   PlugininFactoryDataWriteDlg.obj
 0001:0004be98       ?OnBnClickedFactCameraWrite@CPlugininFactoryDataWriteDlg@@QAAXXZ 0005ce98 f   PlugininFactoryDataWriteDlg.obj
 0001:0004bf54       ?OpenComPort@CDriveRecorderLoopback@@QAAHEKH@Z 0005cf54 f i PlugininDriveRecordingDlg.obj
 0001:0004c1a0       ?SetUart@CDriveRecorderLoopback@@SAHPAXEKH@Z 0005d1a0 f i PlugininDriveRecordingDlg.obj
 0001:0004c268       ?LoopbackTest@CDriveRecorderLoopback@@QAAHPBEK@Z 0005d268 f i PlugininDriveRecordingDlg.obj
 0001:0004c41c       ?GetRuntimeClass@CPlugininDriveRecordingDlg@@UBAPAUCRuntimeClass@@XZ 0005d41c f   PlugininDriveRecordingDlg.obj
 0001:0004c430       ??0CPlugininDriveRecordingDlg@@QAA@PAVCWnd@@@Z 0005d430 f   PlugininDriveRecordingDlg.obj
 0001:0004c544       ??_ECPlugininDriveRecordingDlg@@UAAPAXI@Z 0005d544 f i  CIL library: CIL module
 0001:0004c544       ??_GCPlugininDriveRecordingDlg@@UAAPAXI@Z 0005d544 f i PlugininDriveRecordingDlg.obj
 0001:0004c570       ??1CPlugininDriveRecordingDlg@@UAA@XZ 0005d570 f   PlugininDriveRecordingDlg.obj
 0001:0004c678       ?GetMessageMap@CPlugininDriveRecordingDlg@@MBAPBUAFX_MSGMAP@@XZ 0005d678 f   PlugininDriveRecordingDlg.obj
 0001:0004c684       ?OnInitDialog@CPlugininDriveRecordingDlg@@MAAHXZ 0005d684 f   PlugininDriveRecordingDlg.obj
 0001:0004ca9c       ?OnBnClickedDriveRecordingStart@CPlugininDriveRecordingDlg@@QAAXXZ 0005da9c f   PlugininDriveRecordingDlg.obj
 0001:0004cc04       ??1CDriveRecorderLoopback@@QAA@XZ 0005dc04 f i PlugininDriveRecordingDlg.obj
 0001:0004cc08       ?OnBnClickedInputModeChange@CPlugininDriveRecordingDlg@@QAAXXZ 0005dc08 f   PlugininDriveRecordingDlg.obj
 0001:0004cc88       ?OnSmResMainData@CPlugininDriveRecordingDlg@@MAAXPBEK@Z 0005dc88 f   PlugininDriveRecordingDlg.obj
 0001:0004ccf4       ?DVRChkThread@@YAKPAX@Z    0005dcf4 f   PlugininDriveRecordingDlg.obj
 0001:0004cdb4       ?OnBnClickedDriveRecordingDisplay@CPlugininDriveRecordingDlg@@QAAXXZ 0005ddb4 f   PlugininDriveRecordingDlg.obj
 0001:0004ce30       ?GetRuntimeClass@CPlugininExBoxTestDlg@@UBAPAUCRuntimeClass@@XZ 0005de30 f   PlugininExBoxTestDlg.obj
 0001:0004ce44       ??0CPlugininExBoxTestDlg@@QAA@PAVCWnd@@@Z 0005de44 f   PlugininExBoxTestDlg.obj
 0001:0004d078       ??_ECPlugininExBoxTestDlg@@UAAPAXI@Z 0005e078 f i  CIL library: CIL module
 0001:0004d078       ??_GCPlugininExBoxTestDlg@@UAAPAXI@Z 0005e078 f i PlugininExBoxTestDlg.obj
 0001:0004d0a4       ??1CPlugininExBoxTestDlg@@UAA@XZ 0005e0a4 f   PlugininExBoxTestDlg.obj
 0001:0004d2b4       ?GetMessageMap@CPlugininExBoxTestDlg@@MBAPBUAFX_MSGMAP@@XZ 0005e2b4 f   PlugininExBoxTestDlg.obj
 0001:0004d2c0       ?OnInitDialog@CPlugininExBoxTestDlg@@MAAHXZ 0005e2c0 f   PlugininExBoxTestDlg.obj
 0001:0004dc2c       ?updateVersion@CPlugininExBoxTestDlg@@AAAXXZ 0005ec2c f   PlugininExBoxTestDlg.obj
 0001:0004df8c       ?updateTemperature@CPlugininExBoxTestDlg@@IAAXXZ 0005ef8c f   PlugininExBoxTestDlg.obj
 0001:0004e334       ?OnTimer@CPlugininExBoxTestDlg@@QAAXI@Z 0005f334 f   PlugininExBoxTestDlg.obj
 0001:0004e340       ?OnBnClickedNext@CPlugininExBoxTestDlg@@QAAXXZ 0005f340 f   PlugininExBoxTestDlg.obj
 0001:0004e4cc       ?OnBnClickedPrev@CPlugininExBoxTestDlg@@QAAXXZ 0005f4cc f   PlugininExBoxTestDlg.obj
 0001:0004e58c       ?OnBnBrightnessUp@CPlugininExBoxTestDlg@@QAAXXZ 0005f58c f   PlugininExBoxTestDlg.obj
 0001:0004e5b8       ?OnBnBrightnessDown@CPlugininExBoxTestDlg@@QAAXXZ 0005f5b8 f   PlugininExBoxTestDlg.obj
 0001:0004e5ec       ?setBrightness@CPlugininExBoxTestDlg@@IAAXF@Z 0005f5ec f   PlugininExBoxTestDlg.obj
 0001:0004e6d4       ?OnBnOutputLog@CPlugininExBoxTestDlg@@QAAXXZ 0005f6d4 f   PlugininExBoxTestDlg.obj
 0001:0004e748       ?OnBnColorBar@CPlugininExBoxTestDlg@@QAAXXZ 0005f748 f   PlugininExBoxTestDlg.obj
 0001:0004e75c       ?OnBnTestPattern1@CPlugininExBoxTestDlg@@QAAXXZ 0005f75c f   PlugininExBoxTestDlg.obj
 0001:0004e770       ?OnBnTestPattern2@CPlugininExBoxTestDlg@@QAAXXZ 0005f770 f   PlugininExBoxTestDlg.obj
 0001:0004e784       ?OnBnOff@CPlugininExBoxTestDlg@@QAAXXZ 0005f784 f   PlugininExBoxTestDlg.obj
 0001:0004e798       ?OnReqNonDisplay@CPlugininExBoxTestDlg@@UAAXIJ@Z 0005f798 f   PlugininExBoxTestDlg.obj
 0001:0004e798       ?OnDestroy@CPlugininExBoxTestDlg@@QAAXXZ 0005f798 f   PlugininExBoxTestDlg.obj
 0001:0004e7c4       ?OnTestModeSwitch@CPlugininExBoxTestDlg@@QAAXXZ 0005f7c4 f   PlugininExBoxTestDlg.obj
 0001:0004e854       ??HATL@@YA?AV?$CStringT@_WV?$StrTraitMFC@_WV?$ChTraitsOS@_W@ATL@@@@@0@ABV10@0@Z 0005f854 f i PlugininExBoxTestDlg.obj
 0001:0004e91c       ??$FixedSizeBufferToCString@E$05@@YA?AV?$CStringT@_WV?$StrTraitMFC@_WV?$ChTraitsOS@_W@ATL@@@@@ATL@@AAY05$$CBE@Z 0005f91c f i PlugininExBoxTestDlg.obj
 0001:0004e934       ?GetRuntimeClass@CPlugininRegistrationPointDlg@@UBAPAUCRuntimeClass@@XZ 0005f934 f   PlugininRegistrationPointDlg.obj
 0001:0004e948       ??0CPlugininRegistrationPointDlg@@QAA@PAVCWnd@@@Z 0005f948 f   PlugininRegistrationPointDlg.obj
 0001:0004eb54       ??_ECPlugininRegistrationPointDlg@@UAAPAXI@Z 0005fb54 f i  CIL library: CIL module
 0001:0004eb54       ??_GCPlugininRegistrationPointDlg@@UAAPAXI@Z 0005fb54 f i PlugininRegistrationPointDlg.obj
 0001:0004eb80       ??1CPlugininRegistrationPointDlg@@UAA@XZ 0005fb80 f   PlugininRegistrationPointDlg.obj
 0001:0004ed88       ?GetMessageMap@CPlugininRegistrationPointDlg@@MBAPBUAFX_MSGMAP@@XZ 0005fd88 f   PlugininRegistrationPointDlg.obj
 0001:0004ed94       ?OnInitDialog@CPlugininRegistrationPointDlg@@MAAHXZ 0005fd94 f   PlugininRegistrationPointDlg.obj
 0001:0004f1a4       ?OnBnClickedSave@CPlugininRegistrationPointDlg@@QAAXXZ 000601a4 f   PlugininRegistrationPointDlg.obj
 0001:0004f204       ?OnBnClickedRead@CPlugininRegistrationPointDlg@@QAAXXZ 00060204 f   PlugininRegistrationPointDlg.obj
 0001:0004f2ac       ?OnBnClickedBack@CPlugininRegistrationPointDlg@@QAAXXZ 000602ac f   PlugininRegistrationPointDlg.obj
 0001:0004f2c8       ?UpdateDisplay@CPlugininRegistrationPointDlg@@AAAXH@Z 000602c8 f   PlugininRegistrationPointDlg.obj
 0001:0004f37c       ?ReadFileListUP@CPlugininRegistrationPointDlg@@AAAXXZ 0006037c f   PlugininRegistrationPointDlg.obj
 0001:0004f4b4       ?OnBnClickedReadList1@CPlugininRegistrationPointDlg@@QAAXXZ 000604b4 f   PlugininRegistrationPointDlg.obj
 0001:0004f4d0       ?OnBnClickedReadList2@CPlugininRegistrationPointDlg@@QAAXXZ 000604d0 f   PlugininRegistrationPointDlg.obj
 0001:0004f4ec       ?OnBnClickedReadList3@CPlugininRegistrationPointDlg@@QAAXXZ 000604ec f   PlugininRegistrationPointDlg.obj
 0001:0004f508       ?OnBnClickedReadList4@CPlugininRegistrationPointDlg@@QAAXXZ 00060508 f   PlugininRegistrationPointDlg.obj
 0001:0004f524       ?OnBnClickedReadList5@CPlugininRegistrationPointDlg@@QAAXXZ 00060524 f   PlugininRegistrationPointDlg.obj
 0001:0004f540       ?OnBnClickedReadList6@CPlugininRegistrationPointDlg@@QAAXXZ 00060540 f   PlugininRegistrationPointDlg.obj
 0001:0004f55c       ?OnBnClickedReadList7@CPlugininRegistrationPointDlg@@QAAXXZ 0006055c f   PlugininRegistrationPointDlg.obj
 0001:0004f578       ?PreTranslateMessage@CPlugininRegistrationPointDlg@@MAAHPAUtagMSG@@@Z 00060578 f   PlugininRegistrationPointDlg.obj
 0001:0004f7e4       ?ListSelect@CPlugininRegistrationPointDlg@@AAAXH@Z 000607e4 f   PlugininRegistrationPointDlg.obj
 0001:0004f848       ?OnTelopClose_@CPlugininRegistrationPointDlg@@MAAXI@Z 00060848 f   PlugininRegistrationPointDlg.obj
 0001:0004fb2c       ?GetErrorMessage@CPlugininRegistrationPointDlg@@AAAPB_WIAAI@Z 00060b2c f   PlugininRegistrationPointDlg.obj
 0001:0004fbb4       ?GetRuntimeClass@CPlugininFileSystemDlg@@UBAPAUCRuntimeClass@@XZ 00060bb4 f   PlugininFileSystemDlg.obj
 0001:0004fbc8       ??0CPlugininFileSystemDlg@@QAA@PAVCWnd@@@Z 00060bc8 f   PlugininFileSystemDlg.obj
 0001:0004fd2c       ??_ECPlugininFileSystemDlg@@UAAPAXI@Z 00060d2c f i  CIL library: CIL module
 0001:0004fd2c       ??_GCPlugininFileSystemDlg@@UAAPAXI@Z 00060d2c f i PlugininFileSystemDlg.obj
 0001:0004fd58       ??1CPlugininFileSystemDlg@@UAA@XZ 00060d58 f   PlugininFileSystemDlg.obj
 0001:0004fe6c       ?GetMessageMap@CPlugininFileSystemDlg@@MBAPBUAFX_MSGMAP@@XZ 00060e6c f   PlugininFileSystemDlg.obj
 0001:0004fe80       ?OnInitDialog@CPlugininFileSystemDlg@@MAAHXZ 00060e80 f   PlugininFileSystemDlg.obj
 0001:00050978       ?OnBnClickedTest1@CPlugininFileSystemDlg@@QAAXXZ 00061978 f   PlugininFileSystemDlg.obj
 0001:000509e0       ?SDFileSystemTest@CPlugininFileSystemDlg@@AAAIXZ 000619e0 f   PlugininFileSystemDlg.obj
 0001:00050cdc       ?OnBnClickedTest2@CPlugininFileSystemDlg@@QAAXXZ 00061cdc f   PlugininFileSystemDlg.obj
 0001:00050d70       ?OnBnClickedTest3@CPlugininFileSystemDlg@@QAAXXZ 00061d70 f   PlugininFileSystemDlg.obj
 0001:00050e60       ?UpdateResultText@CPlugininFileSystemDlg@@AAAXII@Z 00061e60 f   PlugininFileSystemDlg.obj
 0001:00050f04       ?GetRuntimeClass@CPlugininUSBDeviceCheckDlg@@UBAPAUCRuntimeClass@@XZ 00061f04 f   PlugininUSBDeviceCheckDlg.obj
 0001:00050f10       ?GetUsbCh0PortInfo@@YAJAA_NAAW4EN_USB_DEVICE_DISP@@EK@Z 00061f10 f   PlugininUSBDeviceCheckDlg.obj
 0001:00051174       ?IsMscMouted@@YAJXZ        00062174 f   PlugininUSBDeviceCheckDlg.obj
 0001:00051298       ??0CPlugininUSBDeviceCheckDlg@@QAA@PAVCWnd@@@Z 00062298 f   PlugininUSBDeviceCheckDlg.obj
 0001:00051388       ??_ECPlugininUSBDeviceCheckDlg@@UAAPAXI@Z 00062388 f i  CIL library: CIL module
 0001:00051388       ??_GCPlugininUSBDeviceCheckDlg@@UAAPAXI@Z 00062388 f i PlugininUSBDeviceCheckDlg.obj
 0001:000513b4       ??1CPlugininUSBDeviceCheckDlg@@UAA@XZ 000623b4 f   PlugininUSBDeviceCheckDlg.obj
 0001:00051474       ?GetMessageMap@CPlugininUSBDeviceCheckDlg@@MBAPBUAFX_MSGMAP@@XZ 00062474 f   PlugininUSBDeviceCheckDlg.obj
 0001:00051480       ?OnInitDialog@CPlugininUSBDeviceCheckDlg@@MAAHXZ 00062480 f   PlugininUSBDeviceCheckDlg.obj
 0001:00051c4c       ?OnBnClickedIPodInfo@CPlugininUSBDeviceCheckDlg@@QAAXXZ 00062c4c f   PlugininUSBDeviceCheckDlg.obj
 0001:00051db0       ?OnBnClickedBack@CPlugininUSBDeviceCheckDlg@@QAAXXZ 00062db0 f   PlugininUSBDeviceCheckDlg.obj
 0001:00051e1c       ?UpdateInfo@CPlugininUSBDeviceCheckDlg@@AAAXXZ 00062e1c f   PlugininUSBDeviceCheckDlg.obj
 0001:0005203c       ?OnTimer@CPlugininUSBDeviceCheckDlg@@QAAXI@Z 0006303c f   PlugininUSBDeviceCheckDlg.obj
 0001:00052054       ?PreTranslateMessage@CPlugininUSBDeviceCheckDlg@@MAAHPAUtagMSG@@@Z 00063054 f   PlugininUSBDeviceCheckDlg.obj
 0001:000524a8       ?GetRuntimeClass@CPlugininMonitorEnduranceTestDlg@@UBAPAUCRuntimeClass@@XZ 000634a8 f   PlugininMonitorEnduranceTestDlg.obj
 0001:000524bc       ??0CPlugininMonitorEnduranceTestDlg@@QAA@PAVCWnd@@@Z 000634bc f   PlugininMonitorEnduranceTestDlg.obj
 0001:00052648       ??_ECPlugininMonitorEnduranceTestDlg@@UAAPAXI@Z 00063648 f i  CIL library: CIL module
 0001:00052648       ??_GCPlugininMonitorEnduranceTestDlg@@UAAPAXI@Z 00063648 f i PlugininMonitorEnduranceTestDlg.obj
 0001:00052674       ??1CPlugininMonitorEnduranceTestDlg@@UAA@XZ 00063674 f   PlugininMonitorEnduranceTestDlg.obj
 0001:000527cc       ?GetMessageMap@CPlugininMonitorEnduranceTestDlg@@MBAPBUAFX_MSGMAP@@XZ 000637cc f   PlugininMonitorEnduranceTestDlg.obj
 0001:000527e0       ?OnInitDialog@CPlugininMonitorEnduranceTestDlg@@MAAHXZ 000637e0 f   PlugininMonitorEnduranceTestDlg.obj
 0001:00052e0c       ?OnBnClickedMonitorStart@CPlugininMonitorEnduranceTestDlg@@QAAXXZ 00063e0c f   PlugininMonitorEnduranceTestDlg.obj
 0001:00052e78       ?OnBnClickedMonitorStop@CPlugininMonitorEnduranceTestDlg@@QAAXXZ 00063e78 f   PlugininMonitorEnduranceTestDlg.obj
 0001:00052e84       ?PreTranslateMessage@CPlugininMonitorEnduranceTestDlg@@MAAHPAUtagMSG@@@Z 00063e84 f   PlugininMonitorEnduranceTestDlg.obj
 0001:00052fd0       ?MonitorTestStop@CPlugininMonitorEnduranceTestDlg@@AAAXXZ 00063fd0 f   PlugininMonitorEnduranceTestDlg.obj
 0001:0005303c       ?OnDestroy@CPlugininMonitorEnduranceTestDlg@@QAAXXZ 0006403c f   PlugininMonitorEnduranceTestDlg.obj
 0001:00053064       ?OnReqNonDisplay@CPlugininMonitorEnduranceTestDlg@@MAAXIJ@Z 00064064 f   PlugininMonitorEnduranceTestDlg.obj
 0001:00053094       ?OnSmResMainData@CPlugininMonitorEnduranceTestDlg@@MAAXPBEK@Z 00064094 f   PlugininMonitorEnduranceTestDlg.obj
 0001:000531d8       ?UpdateTestLimit@CPlugininMonitorEnduranceTestDlg@@AAAXXZ 000641d8 f   PlugininMonitorEnduranceTestDlg.obj
 0001:00053280       ?OnBnClickedButton2@CPlugininMonitorEnduranceTestDlg@@QAAXXZ 00064280 f   PlugininMonitorEnduranceTestDlg.obj
 0001:000532a8       ?OnBnClickedButton3@CPlugininMonitorEnduranceTestDlg@@QAAXXZ 000642a8 f   PlugininMonitorEnduranceTestDlg.obj
 0001:000532cc       ?OnBnClickedButton4@CPlugininMonitorEnduranceTestDlg@@QAAXXZ 000642cc f   PlugininMonitorEnduranceTestDlg.obj
 0001:000532f0       ?OnBnClickedButton5@CPlugininMonitorEnduranceTestDlg@@QAAXXZ 000642f0 f   PlugininMonitorEnduranceTestDlg.obj
 0001:00053310       ?GetRuntimeClass@CPlugininLocationInfoDlg@@UBAPAUCRuntimeClass@@XZ 00064310 f   PlugininLocationInfoDlg.obj
 0001:0005331c       ??_GCPlugininLocationInfoDlg@@UAAPAXI@Z 0006431c f i PlugininLocationInfoDlg.obj
 0001:0005331c       ??_ECPlugininLocationInfoDlg@@UAAPAXI@Z 0006431c f i  CIL library: CIL module
 0001:0005334c       ?GetMessageMap@CPlugininLocationInfoDlg@@MBAPBUAFX_MSGMAP@@XZ 0006434c f   PlugininLocationInfoDlg.obj
 0001:00053360       ?OnInitDialog@CPlugininLocationInfoDlg@@MAAHXZ 00064360 f   PlugininLocationInfoDlg.obj
 0001:00053b04       ?GetRuntimeClass@CPlugininEMMCErrorLogDlg@@UBAPAUCRuntimeClass@@XZ 00064b04 f   PlugininEMMCErrorLogDlg.obj
 0001:00053b10       ??_GCPlugininEMMCErrorLogDlg@@UAAPAXI@Z 00064b10 f i PlugininEMMCErrorLogDlg.obj
 0001:00053b10       ??_ECPlugininEMMCErrorLogDlg@@UAAPAXI@Z 00064b10 f i  CIL library: CIL module
 0001:00053b3c       ??1CPlugininEMMCErrorLogDlg@@UAA@XZ 00064b3c f   PlugininEMMCErrorLogDlg.obj
 0001:00053ba0       ?GetMessageMap@CPlugininEMMCErrorLogDlg@@MBAPBUAFX_MSGMAP@@XZ 00064ba0 f   PlugininEMMCErrorLogDlg.obj
 0001:00053bac       ?OnInitDialog@CPlugininEMMCErrorLogDlg@@MAAHXZ 00064bac f   PlugininEMMCErrorLogDlg.obj
 0001:00053d5c       ?UpdateErrLog@CPlugininEMMCErrorLogDlg@@AAAXXZ 00064d5c f   PlugininEMMCErrorLogDlg.obj
 0001:00053e9c       ?GetRuntimeClass@CPlugininOpeningImageWriteDlg@@UBAPAUCRuntimeClass@@XZ 00064e9c f   PlugininOpeningImageWriteDlg.obj
 0001:00053eb0       ??0CPlugininOpeningImageWriteDlg@@QAA@PAVCWnd@@@Z 00064eb0 f   PlugininOpeningImageWriteDlg.obj
 0001:00054018       ??_GCPlugininOpeningImageWriteDlg@@UAAPAXI@Z 00065018 f i PlugininOpeningImageWriteDlg.obj
 0001:00054018       ??_ECPlugininOpeningImageWriteDlg@@UAAPAXI@Z 00065018 f i  CIL library: CIL module
 0001:00054044       ??1CPlugininOpeningImageWriteDlg@@UAA@XZ 00065044 f   PlugininOpeningImageWriteDlg.obj
 0001:00054128       ?GetMessageMap@CPlugininOpeningImageWriteDlg@@MBAPBUAFX_MSGMAP@@XZ 00065128 f   PlugininOpeningImageWriteDlg.obj
 0001:00054134       ?OnInitDialog@CPlugininOpeningImageWriteDlg@@MAAHXZ 00065134 f   PlugininOpeningImageWriteDlg.obj
 0001:0005422c       ?OnBnClickedButton1@CPlugininOpeningImageWriteDlg@@QAAXXZ 0006522c f   PlugininOpeningImageWriteDlg.obj
 0001:000542dc       ?OnBnClickedButton2@CPlugininOpeningImageWriteDlg@@QAAXXZ 000652dc f   PlugininOpeningImageWriteDlg.obj
 0001:00054490       ?OnBnClickedButton3@CPlugininOpeningImageWriteDlg@@QAAXXZ 00065490 f   PlugininOpeningImageWriteDlg.obj
 0001:000544ac       ?OpeningImageUpdate@CPlugininOpeningImageWriteDlg@@AAAJW4EN_OPENING_CUSTOM_IMAGE_TYPE@@@Z 000654ac f   PlugininOpeningImageWriteDlg.obj
 0001:000545cc       ?PreTranslateMessage@CPlugininOpeningImageWriteDlg@@MAAHPAUtagMSG@@@Z 000655cc f   PlugininOpeningImageWriteDlg.obj
 0001:00054844       ?DispRetTelop@CPlugininOpeningImageWriteDlg@@AAA?AV?$CStringT@_WV?$StrTraitMFC@_WV?$ChTraitsOS@_W@ATL@@@@@ATL@@W4EN_OPENING_CUSTOM_RESULT@@@Z 00065844 f   PlugininOpeningImageWriteDlg.obj
 0001:00054958       ?OnTelopClose_@CPlugininOpeningImageWriteDlg@@MAAXI@Z 00065958 f   PlugininOpeningImageWriteDlg.obj
 0001:000549b0       ?GetRuntimeClass@CPlugininInternaviDlg@@UBAPAUCRuntimeClass@@XZ 000659b0 f   PlugininInternaviDlg.obj
 0001:000549bc       ??_GCPlugininInternaviDlg@@UAAPAXI@Z 000659bc f i PlugininInternaviDlg.obj
 0001:000549bc       ??_ECPlugininInternaviDlg@@UAAPAXI@Z 000659bc f i  CIL library: CIL module
 0001:000549e8       ??1CPlugininInternaviDlg@@UAA@XZ 000659e8 f   PlugininInternaviDlg.obj
 0001:00054a7c       ?GetMessageMap@CPlugininInternaviDlg@@MBAPBUAFX_MSGMAP@@XZ 00065a7c f   PlugininInternaviDlg.obj
 0001:00054a88       ?OnInitDialog@CPlugininInternaviDlg@@MAAHXZ 00065a88 f   PlugininInternaviDlg.obj
 0001:00054c64       ?OnCtlColor@CPlugininInternaviDlg@@QAAPAUHBRUSH__@@PAVCDC@@PAVCWnd@@I@Z 00065c64 f   PlugininInternaviDlg.obj
 0001:00054d30       ?OnBnClickedButton1@CPlugininInternaviDlg@@QAAXXZ 00065d30 f   PlugininInternaviDlg.obj
 0001:00054f1c       ?OnTelopClose_@CPlugininUSBSignalDlg@@MAAXI@Z 00065f1c f   PlugininUSBSignalDlg.obj
 0001:00054f1c       ?OnTelopClose_@CPlugininInternaviDlg@@MAAXI@Z 00065f1c f   PlugininInternaviDlg.obj
 0001:00054f5c       ?OnBnClickedCheck2@CPlugininInternaviDlg@@QAAXXZ 00065f5c f   PlugininInternaviDlg.obj
 0001:00054f5c       ?OnBnClickedButtonDataInit@CPlugininMemmanagerMapUpdatePartsDlg@@QAAXXZ 00065f5c f   PlugininMemmanagerMapUpdatePartsDlg.obj
 0001:00054f5c       ?OnBnClickedButtonBkdataInit@CPlugininMemmanagerMapUpdatePartsDlg@@QAAXXZ 00065f5c f   PlugininMemmanagerMapUpdatePartsDlg.obj
 0001:00054f5c       ?OnBnClickedButtonAuto@CPlugininVersionUpDlg@@QAAXXZ 00065f5c f   PlugininVersionUpDlg.obj
 0001:00054f5c       ?OnBnClickedCheck3@CPlugininInternaviDlg@@QAAXXZ 00065f5c f   PlugininInternaviDlg.obj
 0001:00054f5c       ?OnBnClickedButtonPrev@CPlugininInstallKeyDlg@@QAAXXZ 00065f5c f   PlugininInstallKeyDlg.obj
 0001:00054f5c       ?OnBnClickedButton7@CPlugininUSBSignalDlg@@QAAXXZ 00065f5c f   PlugininUSBSignalDlg.obj
 0001:00054f5c       ?OnBnClickedButtonNext@CPlugininInstallKeyDlg@@QAAXXZ 00065f5c f   PlugininInstallKeyDlg.obj
 0001:00054f5c       ?OnBnClickedCheck4@CPlugininInternaviDlg@@QAAXXZ 00065f5c f   PlugininInternaviDlg.obj
 0001:00054f5c       ?OnBnClickedButtonGroupWrite@CPlugininMemmanagerMapUpdatePartsDlg@@QAAXXZ 00065f5c f   PlugininMemmanagerMapUpdatePartsDlg.obj
 0001:00054f5c       ?OnBnClickedCheck1@CPlugininInternaviDlg@@QAAXXZ 00065f5c f   PlugininInternaviDlg.obj
 0001:00054f5c       ?OnBnClickedButton23@CPlugininVicsLv3Dlg@@QAAXXZ 00065f5c f   PlugininVicsLv3Dlg.obj
 0001:00054f60       ?SetLUFLog@CPlugininInternaviDlg@@CA?AW4LUF_LOG_RESULT@1@KPAK@Z 00065f60 f   PlugininInternaviDlg.obj
 0001:0005509c       ?GetRuntimeClass@CPlugininMainMicomDlg@@UBAPAUCRuntimeClass@@XZ 0006609c f   PlugininMainMicomDlg.obj
 0001:000550b0       ??0CPlugininMainMicomDlg@@QAA@PAVCWnd@@@Z 000660b0 f   PlugininMainMicomDlg.obj
 0001:000551d0       ??_GCPlugininMainMicomDlg@@UAAPAXI@Z 000661d0 f i PlugininMainMicomDlg.obj
 0001:000551d0       ??_ECPlugininMainMicomDlg@@UAAPAXI@Z 000661d0 f i  CIL library: CIL module
 0001:000551fc       ??1CPlugininMainMicomDlg@@UAA@XZ 000661fc f   PlugininMainMicomDlg.obj
 0001:00055328       ?GetMessageMap@CPlugininMainMicomDlg@@MBAPBUAFX_MSGMAP@@XZ 00066328 f   PlugininMainMicomDlg.obj
 0001:00055334       ?OnInitDialog@CPlugininMainMicomDlg@@MAAHXZ 00066334 f   PlugininMainMicomDlg.obj
 0001:00055498       ?OnBnClickedButton1@CPlugininMainMicomDlg@@QAAXXZ 00066498 f   PlugininMainMicomDlg.obj
 0001:000554f0       ?OnBnClickedButton2@CPlugininMainMicomDlg@@QAAXXZ 000664f0 f   PlugininMainMicomDlg.obj
 0001:00055550       ?OnBnClickedButton4@CPlugininMainMicomDlg@@QAAXXZ 00066550 f   PlugininMainMicomDlg.obj
 0001:00055620       ?OnBnClickedButton7@CPlugininMainMicomDlg@@QAAXXZ 00066620 f   PlugininMainMicomDlg.obj
 0001:0005568c       ?OnBnClickedButton8@CPlugininMainMicomDlg@@QAAXXZ 0006668c f   PlugininMainMicomDlg.obj
 0001:000556e0       ?GetRuntimeClass@CPlugininLogSwitchDlg@@UBAPAUCRuntimeClass@@XZ 000666e0 f   PlugininLogSwitchDlg.obj
 0001:000556ec       ?UpdateButtonSelect@CPlugininLogSwitchDlg@@AAAXW4E_DIAG_LOG_MODE@@@Z 000666ec f   PlugininLogSwitchDlg.obj
 0001:000557a0       ??0CPlugininLogSwitchDlg@@QAA@PAVCWnd@@@Z 000667a0 f   PlugininLogSwitchDlg.obj
 0001:00055854       ??_ECPlugininLogSwitchDlg@@UAAPAXI@Z 00066854 f i  CIL library: CIL module
 0001:00055854       ??_GCPlugininLogSwitchDlg@@UAAPAXI@Z 00066854 f i PlugininLogSwitchDlg.obj
 0001:00055880       ??1CPlugininLogSwitchDlg@@UAA@XZ 00066880 f   PlugininLogSwitchDlg.obj
 0001:0005593c       ?GetMessageMap@CPlugininLogSwitchDlg@@MBAPBUAFX_MSGMAP@@XZ 0006693c f   PlugininLogSwitchDlg.obj
 0001:00055948       ?OnInitDialog@CPlugininLogSwitchDlg@@MAAHXZ 00066948 f   PlugininLogSwitchDlg.obj
 0001:00055ae0       ?OnBnClickedButton1@CPlugininLogSwitchDlg@@QAAXXZ 00066ae0 f   PlugininLogSwitchDlg.obj
 0001:00055b4c       ?OnBnClickedButton2@CPlugininLogSwitchDlg@@QAAXXZ 00066b4c f   PlugininLogSwitchDlg.obj
 0001:00055bb4       ?GetRuntimeClass@CPlugininIPerfDlg@@UBAPAUCRuntimeClass@@XZ 00066bb4 f   PlugininIPerfDlg.obj
 0001:00055bc0       ??_ECPlugininIPerfDlg@@UAAPAXI@Z 00066bc0 f i  CIL library: CIL module
 0001:00055bc0       ??_GCPlugininIPerfDlg@@UAAPAXI@Z 00066bc0 f i PlugininIPerfDlg.obj
 0001:00055bec       ??1CPlugininIPerfDlg@@UAA@XZ 00066bec f   PlugininIPerfDlg.obj
 0001:00055c80       ?GetMessageMap@CPlugininIPerfDlg@@MBAPBUAFX_MSGMAP@@XZ 00066c80 f   PlugininIPerfDlg.obj
 0001:00055c8c       ?OnInitDialog@CPlugininIPerfDlg@@MAAHXZ 00066c8c f   PlugininIPerfDlg.obj
 0001:00055d54       ?OnBnClickedButton1@CPlugininIPerfDlg@@QAAXXZ 00066d54 f   PlugininIPerfDlg.obj
 0001:00055e2c       ?OnReqNonDisplay@CPlugininIPerfDlg@@MAAXIJ@Z 00066e2c f   PlugininIPerfDlg.obj
 0001:00055e64       ?GetRuntimeClass@CPlugininEtcDlg@@UBAPAUCRuntimeClass@@XZ 00066e64 f   PlugininEtcDlg.obj
 0001:00055e78       ??0CPlugininEtcDlg@@QAA@PAVCWnd@@@Z 00066e78 f   PlugininEtcDlg.obj
 0001:00055fb0       ??_ECPlugininEtcDlg@@UAAPAXI@Z 00066fb0 f i  CIL library: CIL module
 0001:00055fb0       ??_GCPlugininEtcDlg@@UAAPAXI@Z 00066fb0 f i PlugininEtcDlg.obj
 0001:00055fdc       ??1CPlugininEtcDlg@@UAA@XZ 00066fdc f   PlugininEtcDlg.obj
 0001:00056108       ?GetMessageMap@CPlugininEtcDlg@@MBAPBUAFX_MSGMAP@@XZ 00067108 f   PlugininEtcDlg.obj
 0001:00056114       ?OnInitDialog@CPlugininEtcDlg@@MAAHXZ 00067114 f   PlugininEtcDlg.obj
 0001:0005628c       ?OnBnClickedButton1@CPlugininEtcDlg@@QAAXXZ 0006728c f   PlugininEtcDlg.obj
 0001:000562dc       ?OnBnClickedButton2@CPlugininEtcDlg@@QAAXXZ 000672dc f   PlugininEtcDlg.obj
 0001:0005632c       ?OnBnClickedButton3@CPlugininEtcDlg@@QAAXXZ 0006732c f   PlugininEtcDlg.obj
 0001:00056384       ?OnBnClickedButton4@CPlugininEtcDlg@@QAAXXZ 00067384 f   PlugininEtcDlg.obj
 0001:00056454       ?UpdateButtonState@CPlugininEtcDlg@@IAAXABUST_DIAG_BUTTON_STATE@@@Z 00067454 f   PlugininEtcDlg.obj
 0001:0005651c       ?OnBnClickedButton5@CPlugininEtcDlg@@QAAXXZ 0006751c f   PlugininEtcDlg.obj
 0001:00056564       ?GetRuntimeClass@CPlugininAccelerometerCalibrationDlg@@UBAPAUCRuntimeClass@@XZ 00067564 f   PlugininAccelerometerCalibrationDlg.obj
 0001:00056578       ??0CPlugininAccelerometerCalibrationDlg@@QAA@PAVCWnd@@@Z 00067578 f   PlugininAccelerometerCalibrationDlg.obj
 0001:000567b8       ??_ECPlugininAccelerometerCalibrationDlg@@UAAPAXI@Z 000677b8 f i  CIL library: CIL module
 0001:000567b8       ??_GCPlugininAccelerometerCalibrationDlg@@UAAPAXI@Z 000677b8 f i PlugininAccelerometerCalibrationDlg.obj
 0001:000567e4       ??1CPlugininAccelerometerCalibrationDlg@@UAA@XZ 000677e4 f   PlugininAccelerometerCalibrationDlg.obj
 0001:00056a00       ?GetMessageMap@CPlugininAccelerometerCalibrationDlg@@MBAPBUAFX_MSGMAP@@XZ 00067a00 f   PlugininAccelerometerCalibrationDlg.obj
 0001:00056a0c       ?OnInitDialog@CPlugininAccelerometerCalibrationDlg@@MAAHXZ 00067a0c f   PlugininAccelerometerCalibrationDlg.obj
 0001:00056ea8       ?OnSmResMainData@CPlugininAccelerometerCalibrationDlg@@MAAXPBEK_N@Z 00067ea8 f   PlugininAccelerometerCalibrationDlg.obj
 0001:000570ac       ?GenerateDisplayString@CPlugininAccelerometerCalibrationDlg@@IAA?AV?$CStringT@_WV?$StrTraitMFC@_WV?$ChTraitsOS@_W@ATL@@@@@ATL@@PBUAccelerometerCalibrationResponse@@@Z 000680ac f   PlugininAccelerometerCalibrationDlg.obj
 0001:00057188       ?StartMain@CPlugininAccelerometerCalibrationDlg@@AAAXI@Z 00068188 f   PlugininAccelerometerCalibrationDlg.obj
 0001:0005737c       ?OnTelopClose_@CPlugininAccelerometerCalibrationDlg@@MAAXI@Z 0006837c f   PlugininAccelerometerCalibrationDlg.obj
 0001:000573ac       ?StartTFT@CPlugininAccelerometerCalibrationDlg@@AAAXI@Z 000683ac f   PlugininAccelerometerCalibrationDlg.obj
 0001:000575fc       ?OnBnClickedButton1@CPlugininAccelerometerCalibrationDlg@@QAAXXZ 000685fc f   PlugininAccelerometerCalibrationDlg.obj
 0001:0005761c       ?OnBnClickedButton2@CPlugininAccelerometerCalibrationDlg@@QAAXXZ 0006861c f   PlugininAccelerometerCalibrationDlg.obj
 0001:0005763c       ?OnBnClickedButton3@CPlugininAccelerometerCalibrationDlg@@QAAXXZ 0006863c f   PlugininAccelerometerCalibrationDlg.obj
 0001:00057680       ?OnBnClickedButton7@CPlugininAccelerometerCalibrationDlg@@QAAXXZ 00068680 f   PlugininAccelerometerCalibrationDlg.obj
 0001:000576a0       ?OnBnClickedButton9@CPlugininAccelerometerCalibrationDlg@@QAAXXZ 000686a0 f   PlugininAccelerometerCalibrationDlg.obj
 0001:000576e4       ?OnBnClickedButton4@CPlugininAccelerometerCalibrationDlg@@QAAXXZ 000686e4 f   PlugininAccelerometerCalibrationDlg.obj
 0001:00057700       ?OnBnClickedButton5@CPlugininAccelerometerCalibrationDlg@@QAAXXZ 00068700 f   PlugininAccelerometerCalibrationDlg.obj
 0001:00057720       ?OnBnClickedButton6@CPlugininAccelerometerCalibrationDlg@@QAAXXZ 00068720 f   PlugininAccelerometerCalibrationDlg.obj
 0001:00057764       ?OnBnClickedButton8@CPlugininAccelerometerCalibrationDlg@@QAAXXZ 00068764 f   PlugininAccelerometerCalibrationDlg.obj
 0001:00057780       ?OnBnClickedButton10@CPlugininAccelerometerCalibrationDlg@@QAAXXZ 00068780 f   PlugininAccelerometerCalibrationDlg.obj
 0001:000577c4       ?GetRuntimeClass@CPlugininEtcLogDlg@@UBAPAUCRuntimeClass@@XZ 000687c4 f   PlugininEtcLogDlg.obj
 0001:000577d0       ??_GCPlugininEtcLogDlg@@UAAPAXI@Z 000687d0 f i PlugininEtcLogDlg.obj
 0001:000577d0       ??_ECPlugininEtcLogDlg@@UAAPAXI@Z 000687d0 f i  CIL library: CIL module
 0001:000577fc       ??1CPlugininEtcLogDlg@@UAA@XZ 000687fc f   PlugininEtcLogDlg.obj
 0001:00057890       ?GetMessageMap@CPlugininEtcLogDlg@@MBAPBUAFX_MSGMAP@@XZ 00068890 f   PlugininEtcLogDlg.obj
 0001:0005789c       ?OnInitDialog@CPlugininEtcLogDlg@@MAAHXZ 0006889c f   PlugininEtcLogDlg.obj
 0001:000579e4       ?OnCtlColor@CPlugininEtcLogDlg@@QAAPAUHBRUSH__@@PAVCDC@@PAVCWnd@@I@Z 000689e4 f   PlugininEtcLogDlg.obj
 0001:00057a68       ?OnBnClickedCheck1@CPlugininEtcLogDlg@@QAAXXZ 00068a68 f   PlugininEtcLogDlg.obj
 0001:00057b70       ?OnBnClickedButton1@CPlugininEtcLogDlg@@QAAXXZ 00068b70 f   PlugininEtcLogDlg.obj
 0001:00057be8       ?GetRuntimeClass@CPlugininSpkParamWriteDlg@@UBAPAUCRuntimeClass@@XZ 00068be8 f   PlugininSpkParamWriteDlg.obj
 0001:00057bfc       ??0CPlugininSpkParamWriteDlg@@QAA@PAVCWnd@@@Z 00068bfc f   PlugininSpkParamWriteDlg.obj
 0001:00057cd4       ??_ECPlugininSpkParamWriteDlg@@UAAPAXI@Z 00068cd4 f i  CIL library: CIL module
 0001:00057cd4       ??_GCPlugininSpkParamWriteDlg@@UAAPAXI@Z 00068cd4 f i PlugininSpkParamWriteDlg.obj
 0001:00057d00       ??1CPlugininSpkParamWriteDlg@@UAA@XZ 00068d00 f   PlugininSpkParamWriteDlg.obj
 0001:00057d94       ?GetMessageMap@CPlugininSpkParamWriteDlg@@MBAPBUAFX_MSGMAP@@XZ 00068d94 f   PlugininSpkParamWriteDlg.obj
 0001:00057da0       ?OnInitDialog@CPlugininSpkParamWriteDlg@@MAAHXZ 00068da0 f   PlugininSpkParamWriteDlg.obj
 0001:0005814c       ?OnBnClickedSpkParamWrite@CPlugininSpkParamWriteDlg@@QAAXXZ 0006914c f   PlugininSpkParamWriteDlg.obj
 0001:00058274       ?PreTranslateMessage@CPlugininSpkParamWriteDlg@@MAAHPAUtagMSG@@@Z 00069274 f   PlugininSpkParamWriteDlg.obj
 0001:000582ac       ?RetDisp@CPlugininSpkParamWriteDlg@@AAAXK@Z 000692ac f   PlugininSpkParamWriteDlg.obj
 0001:000583b0       ?UpdateVersion@CPlugininSpkParamWriteDlg@@AAAXXZ 000693b0 f   PlugininSpkParamWriteDlg.obj
 0001:00058690       ??$FixedSizeBufferToCString@PBD@@YA?AV?$CStringT@_WV?$StrTraitMFC@_WV?$ChTraitsOS@_W@ATL@@@@@ATL@@QBDI@Z 00069690 f i PlugininCameraDCompanyVersionDlg.obj
 0001:00058690       ??$FixedSizeBufferToCString@PBE@@YA?AV?$CStringT@_WV?$StrTraitMFC@_WV?$ChTraitsOS@_W@ATL@@@@@ATL@@QBEI@Z 00069690 f i PlugininVersionDlg.obj
 0001:00058690       ??$FixedSizeBufferToCString@PAE@@YA?AV?$CStringT@_WV?$StrTraitMFC@_WV?$ChTraitsOS@_W@ATL@@@@@ATL@@QAEI@Z 00069690 f i PlugininSpkParamWriteDlg.obj
 0001:000586a4       ?GetRuntimeClass@CPlugininCameraDataWriteDlg@@UBAPAUCRuntimeClass@@XZ 000696a4 f   PlugininCameraDataWriteDlg.obj
 0001:000586b8       ??0CPlugininCameraDataWriteDlg@@QAA@PAVCWnd@@@Z 000696b8 f   PlugininCameraDataWriteDlg.obj
 0001:0005877c       ??_ECPlugininCameraDataWriteDlg@@UAAPAXI@Z 0006977c f i  CIL library: CIL module
 0001:0005877c       ??_GCPlugininCameraDataWriteDlg@@UAAPAXI@Z 0006977c f i PlugininCameraDataWriteDlg.obj
 0001:000587a8       ??1CPlugininCameraDataWriteDlg@@UAA@XZ 000697a8 f   PlugininCameraDataWriteDlg.obj
 0001:0005883c       ?GetMessageMap@CPlugininCameraDataWriteDlg@@MBAPBUAFX_MSGMAP@@XZ 0006983c f   PlugininCameraDataWriteDlg.obj
 0001:00058848       ?OnInitDialog@CPlugininCameraDataWriteDlg@@MAAHXZ 00069848 f   PlugininCameraDataWriteDlg.obj
 0001:00058ab4       ?RetDisp@CPlugininCameraDataWriteDlg@@AAAXK@Z 00069ab4 f   PlugininCameraDataWriteDlg.obj
 0001:00058ba4       ?OnBnClickedFactCameraWrite@CPlugininCameraDataWriteDlg@@QAAXXZ 00069ba4 f   PlugininCameraDataWriteDlg.obj
 0001:00058c5c       ?GetRuntimeClass@CPlugininMasterImageWritingDlg@@UBAPAUCRuntimeClass@@XZ 00069c5c f   PlugininMasterImageWritingDlg.obj
 0001:00058c70       ??0CPlugininMasterImageWritingDlg@@QAA@PAVCWnd@@@Z 00069c70 f   PlugininMasterImageWritingDlg.obj
 0001:00058d38       ??_ECPlugininMasterImageWritingDlg@@UAAPAXI@Z 00069d38 f i  CIL library: CIL module
 0001:00058d38       ??_GCPlugininMasterImageWritingDlg@@UAAPAXI@Z 00069d38 f i PlugininMasterImageWritingDlg.obj
 0001:00058d64       ??1CPlugininMasterImageWritingDlg@@UAA@XZ 00069d64 f   PlugininMasterImageWritingDlg.obj
 0001:00058e20       ?GetMessageMap@CPlugininMasterImageWritingDlg@@MBAPBUAFX_MSGMAP@@XZ 00069e20 f   PlugininMasterImageWritingDlg.obj
 0001:00058e2c       ?OnInitDialog@CPlugininMasterImageWritingDlg@@MAAHXZ 00069e2c f   PlugininMasterImageWritingDlg.obj
 0001:00058f64       ?CheckEMMCMasterImageFile@@YA_NPB_WAAV?$CStringT@_WV?$StrTraitMFC@_WV?$ChTraitsOS@_W@ATL@@@@@ATL@@@Z 00069f64 f   PlugininMasterImageWritingDlg.obj
 0001:00059278       ?CheckNorMasterImageFile@@YA_NPB_WAAV?$CStringT@_WV?$StrTraitMFC@_WV?$ChTraitsOS@_W@ATL@@@@@ATL@@@Z 0006a278 f   PlugininMasterImageWritingDlg.obj
 0001:000593d4       ?OnBnEmmc@CPlugininMasterImageWritingDlg@@QAAXXZ 0006a3d4 f   PlugininMasterImageWritingDlg.obj
 0001:00059424       ?OnBnNor@CPlugininMasterImageWritingDlg@@QAAXXZ 0006a424 f   PlugininMasterImageWritingDlg.obj
 0001:00059478       ?OnTelopClose_@CPlugininMasterImageWritingDlg@@MAAXI@Z 0006a478 f   PlugininMasterImageWritingDlg.obj
 0001:00059584       ?StartSystemEnd@CPlugininMasterImageWritingDlg@@AAAXXZ 0006a584 f   PlugininMasterImageWritingDlg.obj
 0001:0005991c       ?OnResSystemEnd@CPlugininMasterImageWritingDlg@@EAAXIJ@Z 0006a91c f   PlugininMasterImageWritingDlg.obj
 0001:000599e0       ?OnNotifyMasterImageWriteStatus@CPlugininMasterImageWritingDlg@@EAAXIJ@Z 0006a9e0 f   PlugininMasterImageWritingDlg.obj
 0001:00059a30       ?OnResMasterImageWrite@CPlugininMasterImageWritingDlg@@EAAXIJ@Z 0006aa30 f   PlugininMasterImageWritingDlg.obj
 0001:00059cb8       ??HATL@@YA?AV?$CStringT@_WV?$StrTraitMFC@_WV?$ChTraitsOS@_W@ATL@@@@@0@PB_WABV10@@Z 0006acb8 f i PlugininMasterImageWritingDlg.obj
 0001:00059d94       ?GetRuntimeClass@CPlugininBtLogDlg@@UBAPAUCRuntimeClass@@XZ 0006ad94 f   PlugininBtLogDlg.obj
 0001:00059da8       ??0CPlugininBtLogDlg@@QAA@PAVCWnd@@@Z 0006ada8 f   PlugininBtLogDlg.obj
 0001:0005a05c       ??_GCPlugininBtLogDlg@@UAAPAXI@Z 0006b05c f i PlugininBtLogDlg.obj
 0001:0005a05c       ??_ECPlugininBtLogDlg@@UAAPAXI@Z 0006b05c f i  CIL library: CIL module
 0001:0005a088       ??1CPlugininBtLogDlg@@UAA@XZ 0006b088 f   PlugininBtLogDlg.obj
 0001:0005a208       ?DoDataExchange@CPlugininBtLogDlg@@MAAXPAVCDataExchange@@@Z 0006b208 f   PlugininBtLogDlg.obj
 0001:0005a244       ?GetMessageMap@CPlugininBtLogDlg@@MBAPBUAFX_MSGMAP@@XZ 0006b244 f   PlugininBtLogDlg.obj
 0001:0005a334       ?OnInitDialog@CPlugininBtLogDlg@@MAAHXZ 0006b334 f   PlugininBtLogDlg.obj
 0001:0005a8e4       ?OnBnClickedButton1@CPlugininBtLogDlg@@QAAXXZ 0006b8e4 f   PlugininBtLogDlg.obj
 0001:0005a924       ?OnBnClickedButton2@CPlugininBtLogDlg@@QAAXXZ 0006b924 f   PlugininBtLogDlg.obj
 0001:0005a964       ?OnBnClickedButton3@CPlugininBtLogDlg@@QAAXXZ 0006b964 f   PlugininBtLogDlg.obj
 0001:0005a98c       ?OnBnClickedButton4@CPlugininBtLogDlg@@QAAXXZ 0006b98c f   PlugininBtLogDlg.obj
 0001:0005aa00       ?OnBnClickedButton5@CPlugininBtLogDlg@@QAAXXZ 0006ba00 f   PlugininBtLogDlg.obj
 0001:0005aa40       ?OnBnClickedButtonBtStack@CPlugininBtLogDlg@@QAAXI@Z 0006ba40 f   PlugininBtLogDlg.obj
 0001:0005ab54       ?UpdateButtons@CPlugininBtLogDlg@@AAAXXZ 0006bb54 f   PlugininBtLogDlg.obj
 0001:0005af1c       ??3CObject@@SAXPAX0@Z      0006bf1c f i PlugininBtLogDlg.obj
 0001:0005af1c       ??3CObject@@SAXPAX@Z       0006bf1c f i DIAG_PageManager.obj
 0001:0005af20       ?GetRuntimeClass@CPlugininUSBSignalDlg@@UBAPAUCRuntimeClass@@XZ 0006bf20 f   PlugininUSBSignalDlg.obj
 0001:0005af2c       ??_GI2CDriverHandle@DIAG@@UAAPAXI@Z 0006bf2c f i DIAG_Tool.obj
 0001:0005af2c       ??_GDIAG_USBHostDriverHandle@@UAAPAXI@Z 0006bf2c f i PlugininUSBSignalDlg.obj
 0001:0005af2c       ??_EGpioDriverHandle@DIAG@@UAAPAXI@Z 0006bf2c f i  CIL library: CIL module
 0001:0005af2c       ??_EDIAG_USBHostDriverHandle@@UAAPAXI@Z 0006bf2c f i  CIL library: CIL module
 0001:0005af2c       ??_GGpioDriverHandle@DIAG@@UAAPAXI@Z 0006bf2c f i DIAG_Tool.obj
 0001:0005af2c       ??_EI2CDriverHandle@DIAG@@UAAPAXI@Z 0006bf2c f i  CIL library: CIL module
 0001:0005af64       ??0CPlugininUSBSignalDlg@@QAA@PAVCWnd@@@Z 0006bf64 f   PlugininUSBSignalDlg.obj
 0001:0005b120       ??_GCPlugininUSBSignalDlg@@UAAPAXI@Z 0006c120 f i PlugininUSBSignalDlg.obj
 0001:0005b120       ??_ECPlugininUSBSignalDlg@@UAAPAXI@Z 0006c120 f i  CIL library: CIL module
 0001:0005b14c       ??1CPlugininUSBSignalDlg@@UAA@XZ 0006c14c f   PlugininUSBSignalDlg.obj
 0001:0005b2fc       ?GetMessageMap@CPlugininUSBSignalDlg@@MBAPBUAFX_MSGMAP@@XZ 0006c2fc f   PlugininUSBSignalDlg.obj
 0001:0005b308       ?OnInitDialog@CPlugininUSBSignalDlg@@MAAHXZ 0006c308 f   PlugininUSBSignalDlg.obj
 0001:0005b6e8       ?OnBnClickedButton1@CPlugininUSBSignalDlg@@QAAXXZ 0006c6e8 f   PlugininUSBSignalDlg.obj
 0001:0005b8f4       ?SetUsbFuncTestMode@CPlugininUSBSignalDlg@@AAAXW4UsbFuncTestModeParam@1@@Z 0006c8f4 f   PlugininUSBSignalDlg.obj
 0001:0005b9ac       ?OnBnClickedButton2@CPlugininUSBSignalDlg@@QAAXXZ 0006c9ac f   PlugininUSBSignalDlg.obj
 0001:0005b9c8       ?OnBnClickedButton3@CPlugininUSBSignalDlg@@QAAXXZ 0006c9c8 f   PlugininUSBSignalDlg.obj
 0001:0005b9e4       ?OnBnClickedButton4@CPlugininUSBSignalDlg@@QAAXXZ 0006c9e4 f   PlugininUSBSignalDlg.obj
 0001:0005ba00       ?OnBnClickedButton5@CPlugininUSBSignalDlg@@QAAXXZ 0006ca00 f   PlugininUSBSignalDlg.obj
 0001:0005ba1c       ?OnBnClickedButton6@CPlugininUSBSignalDlg@@QAAXXZ 0006ca1c f   PlugininUSBSignalDlg.obj
 0001:0005ba38       ?GetRuntimeClass@CPlugininCarPlaySwitchDlg@@UBAPAUCRuntimeClass@@XZ 0006ca38 f   PlugininCarPlaySwitchDlg.obj
 0001:0005ba44       ?UpdateButtonSelect@CPlugininCarPlaySwitchDlg@@AAAX_N@Z 0006ca44 f   PlugininCarPlaySwitchDlg.obj
 0001:0005ba44       ?UpdateButtonSelect@CPlugininDemoModeDlg@@AAAX_N@Z 0006ca44 f   PlugininDemoModeDlg.obj
 0001:0005bab0       ??0CPlugininCarPlaySwitchDlg@@QAA@PAVCWnd@@@Z 0006cab0 f   PlugininCarPlaySwitchDlg.obj
 0001:0005bb64       ??_GCPlugininCarPlaySwitchDlg@@UAAPAXI@Z 0006cb64 f i PlugininCarPlaySwitchDlg.obj
 0001:0005bb64       ??_ECPlugininCarPlaySwitchDlg@@UAAPAXI@Z 0006cb64 f i  CIL library: CIL module
 0001:0005bb90       ??1CPlugininCarPlaySwitchDlg@@UAA@XZ 0006cb90 f   PlugininCarPlaySwitchDlg.obj
 0001:0005bc4c       ?GetMessageMap@CPlugininCarPlaySwitchDlg@@MBAPBUAFX_MSGMAP@@XZ 0006cc4c f   PlugininCarPlaySwitchDlg.obj
 0001:0005bc60       ?OnInitDialog@CPlugininCarPlaySwitchDlg@@MAAHXZ 0006cc60 f   PlugininCarPlaySwitchDlg.obj
 0001:0005bdb0       ?OnBnClickedButton1@CPlugininCarPlaySwitchDlg@@QAAXXZ 0006cdb0 f   PlugininCarPlaySwitchDlg.obj
 0001:0005bdd8       ?OnBnClickedButton2@CPlugininCarPlaySwitchDlg@@QAAXXZ 0006cdd8 f   PlugininCarPlaySwitchDlg.obj
 0001:0005be00       ?GetRuntimeClass@CPlugininCameraDCompanySettingDlg@@UBAPAUCRuntimeClass@@XZ 0006ce00 f   PlugininCameraDCompanySettingDlg.obj
 0001:0005be14       ??0CPlugininCameraDCompanySettingDlg@@QAA@PAVCWnd@@@Z 0006ce14 f   PlugininCameraDCompanySettingDlg.obj
 0001:0005bf4c       ??_GCPlugininCameraDCompanySettingDlg@@UAAPAXI@Z 0006cf4c f i PlugininCameraDCompanySettingDlg.obj
 0001:0005bf4c       ??_ECPlugininCameraDCompanySettingDlg@@UAAPAXI@Z 0006cf4c f i  CIL library: CIL module
 0001:0005bf78       ??1CPlugininCameraDCompanySettingDlg@@UAA@XZ 0006cf78 f   PlugininCameraDCompanySettingDlg.obj
 0001:0005c0d4       ?GetMessageMap@CPlugininCameraDCompanySettingDlg@@MBAPBUAFX_MSGMAP@@XZ 0006d0d4 f   PlugininCameraDCompanySettingDlg.obj
 0001:0005c0e0       ?OnInitDialog@CPlugininCameraDCompanySettingDlg@@MAAHXZ 0006d0e0 f   PlugininCameraDCompanySettingDlg.obj
 0001:0005c32c       ?ShowControl@CPlugininCameraDCompanySettingDlg@@IAAXI@Z 0006d32c f   PlugininCameraDCompanySettingDlg.obj
 0001:0005c434       ?GetInstance@CPlugininCameraDCompanySettingDlg@@IAAPAVCDialogBase@@I@Z 0006d434 f   PlugininCameraDCompanySettingDlg.obj
 0001:0005c5c0       ?ClickedMenu@CPlugininCameraDCompanySettingDlg@@QAAJABU_FUNCTIONINFO@@@Z 0006d5c0 f   PlugininCameraDCompanySettingDlg.obj
 0001:0005c704       ?OnBnClickedOk@CPlugininCameraDCompanySettingDlg@@QAAXXZ 0006d704 f   PlugininCameraDCompanySettingDlg.obj
 0001:0005c740       ?OnBnClickedButton1@CPlugininCameraDCompanySettingDlg@@QAAXXZ 0006d740 f   PlugininCameraDCompanySettingDlg.obj
 0001:0005c76c       ?OnBnClickedButton2@CPlugininCameraDCompanySettingDlg@@QAAXXZ 0006d76c f   PlugininCameraDCompanySettingDlg.obj
 0001:0005c79c       ?OnBnClickedButton3@CPlugininCameraDCompanySettingDlg@@QAAXXZ 0006d79c f   PlugininCameraDCompanySettingDlg.obj
 0001:0005c7e8       ?OnBnClickedButton4@CPlugininCameraDCompanySettingDlg@@QAAXXZ 0006d7e8 f   PlugininCameraDCompanySettingDlg.obj
 0001:0005c818       ?OnActivate@CPlugininCameraDCompanySettingDlg@@QAAXIPAVCWnd@@H@Z 0006d818 f   PlugininCameraDCompanySettingDlg.obj
 0001:0005c82c       ?PreTranslateMessage@CPlugininCameraDCompanySettingDlg@@UAAHPAUtagMSG@@@Z 0006d82c f   PlugininCameraDCompanySettingDlg.obj
 0001:0005c85c       ?GetRuntimeClass@CPlugininCameraDCompanyVersionDlg@@UBAPAUCRuntimeClass@@XZ 0006d85c f   PlugininCameraDCompanyVersionDlg.obj
 0001:0005c868       ??_ECPlugininCameraDCompanyVersionDlg@@UAAPAXI@Z 0006d868 f i  CIL library: CIL module
 0001:0005c868       ??_GCPlugininCameraDCompanyVersionDlg@@UAAPAXI@Z 0006d868 f i PlugininCameraDCompanyVersionDlg.obj
 0001:0005c894       ??1CPlugininCameraDCompanyVersionDlg@@UAA@XZ 0006d894 f   PlugininCameraDCompanyVersionDlg.obj
 0001:0005c910       ?GetMessageMap@CPlugininCameraDCompanyVersionDlg@@MBAPBUAFX_MSGMAP@@XZ 0006d910 f   PlugininCameraDCompanyVersionDlg.obj
 0001:0005c91c       ?OnInitDialog@CPlugininCameraDCompanyVersionDlg@@MAAHXZ 0006d91c f   PlugininCameraDCompanyVersionDlg.obj
 0001:0005c9d0       ?OnPaint@CPlugininCameraDCompanyVersionDlg@@QAAXXZ 0006d9d0 f   PlugininCameraDCompanyVersionDlg.obj
 0001:0005d4d0       ??$FixedSizeBufferToCString@E$0BA@@@YA?AV?$CStringT@_WV?$StrTraitMFC@_WV?$ChTraitsOS@_W@ATL@@@@@ATL@@AAY0BA@$$CBE@Z 0006e4d0 f i PlugininExBoxTestDlg.obj
 0001:0005d4d0       ??$FixedSizeBufferToCString@D$0BA@@@YA?AV?$CStringT@_WV?$StrTraitMFC@_WV?$ChTraitsOS@_W@ATL@@@@@ATL@@AAY0BA@$$CBD@Z 0006e4d0 f i PlugininCameraDCompanyVersionDlg.obj
 0001:0005d4e8       ??$FixedSizeBufferToCString@D$0CA@@@YA?AV?$CStringT@_WV?$StrTraitMFC@_WV?$ChTraitsOS@_W@ATL@@@@@ATL@@AAY0CA@$$CBD@Z 0006e4e8 f i PlugininCameraDCompanyVersionDlg.obj
 0001:0005d500       ?GetRuntimeClass@CPlugininCameraDCompanyHoseiDlg@@UBAPAUCRuntimeClass@@XZ 0006e500 f   PlugininCameraDCompanyHoseiDlg.obj
 0001:0005d50c       ??_ECPlugininCameraDCompanyHoseiDlg@@UAAPAXI@Z 0006e50c f i  CIL library: CIL module
 0001:0005d50c       ??_GCPlugininCameraDCompanyHoseiDlg@@UAAPAXI@Z 0006e50c f i PlugininCameraDCompanyHoseiDlg.obj
 0001:0005d538       ??1CPlugininCameraDCompanyHoseiDlg@@UAA@XZ 0006e538 f   PlugininCameraDCompanyHoseiDlg.obj
 0001:0005d608       ?GetMessageMap@CPlugininCameraDCompanyHoseiDlg@@MBAPBUAFX_MSGMAP@@XZ 0006e608 f   PlugininCameraDCompanyHoseiDlg.obj
 0001:0005d614       ?OnInitDialog@CPlugininCameraDCompanyHoseiDlg@@MAAHXZ 0006e614 f   PlugininCameraDCompanyHoseiDlg.obj
 0001:0005d734       ?OnPaint@CPlugininCameraDCompanyHoseiDlg@@QAAXXZ 0006e734 f   PlugininCameraDCompanyHoseiDlg.obj
 0001:0005dd9c       ?GetRuntimeClass@CPlugininA1ScalerDlg@@UBAPAUCRuntimeClass@@XZ 0006ed9c f   PlugininA1ScalerDlg.obj
 0001:0005dda8       ??_ECPlugininA1ScalerDlg@@UAAPAXI@Z 0006eda8 f i  CIL library: CIL module
 0001:0005dda8       ??_GCPlugininA1ScalerDlg@@UAAPAXI@Z 0006eda8 f i PlugininA1ScalerDlg.obj
 0001:0005ddd4       ??1CPlugininA1ScalerDlg@@UAA@XZ 0006edd4 f   PlugininA1ScalerDlg.obj
 0001:0005de68       ?GetMessageMap@CPlugininA1ScalerDlg@@MBAPBUAFX_MSGMAP@@XZ 0006ee68 f   PlugininA1ScalerDlg.obj
 0001:0005de74       ?OnInitDialog@CPlugininMapUpdateReminderDlg@@MAAHXZ 0006ee74 f   PlugininMapUpdateRemDlg.obj
 0001:0005de74       ?OnInitDialog@CPlugininA1ScalerDlg@@MAAHXZ 0006ee74 f   PlugininA1ScalerDlg.obj
 0001:0005df18       ?OnBnClickedButton1@CPlugininA1ScalerDlg@@QAAXXZ 0006ef18 f   PlugininA1ScalerDlg.obj
 0001:0005dfb4       ?PreTranslateMessage@CPlugininA1ScalerDlg@@MAAHPAUtagMSG@@@Z 0006efb4 f   PlugininA1ScalerDlg.obj
 0001:0005e050       ?GetRuntimeClass@CPlugininDemoModeDlg@@UBAPAUCRuntimeClass@@XZ 0006f050 f   PlugininDemoModeDlg.obj
 0001:0005e064       ??0CPlugininDemoModeDlg@@QAA@PAVCWnd@@@Z 0006f064 f   PlugininDemoModeDlg.obj
 0001:0005e118       ??_ECPlugininDemoModeDlg@@UAAPAXI@Z 0006f118 f i  CIL library: CIL module
 0001:0005e118       ??_GCPlugininDemoModeDlg@@UAAPAXI@Z 0006f118 f i PlugininDemoModeDlg.obj
 0001:0005e144       ??1CPlugininDemoModeDlg@@UAA@XZ 0006f144 f   PlugininDemoModeDlg.obj
 0001:0005e200       ?GetMessageMap@CPlugininDemoModeDlg@@MBAPBUAFX_MSGMAP@@XZ 0006f200 f   PlugininDemoModeDlg.obj
 0001:0005e214       ?OnInitDialog@CPlugininDemoModeDlg@@MAAHXZ 0006f214 f   PlugininDemoModeDlg.obj
 0001:0005e370       ?OnBnClickedButton1@CPlugininDemoModeDlg@@QAAXXZ 0006f370 f   PlugininDemoModeDlg.obj
 0001:0005e398       ?OnBnClickedButton2@CPlugininDemoModeDlg@@QAAXXZ 0006f398 f   PlugininDemoModeDlg.obj
 0001:0005e3c0       ?GetRuntimeClass@CPlugininNaviPathfindDlg@@UBAPAUCRuntimeClass@@XZ 0006f3c0 f   PlugininNaviPathfindDlg.obj
 0001:0005e3d4       ??0CPlugininNaviPathfindDlg@@QAA@PAVCWnd@@@Z 0006f3d4 f   PlugininNaviPathfindDlg.obj
 0001:0005e610       ??_ECPlugininNaviPathfindDlg@@UAAPAXI@Z 0006f610 f i  CIL library: CIL module
 0001:0005e610       ??_GCPlugininNaviPathfindDlg@@UAAPAXI@Z 0006f610 f i PlugininNaviPathfindDlg.obj
 0001:0005e63c       ??1CPlugininNaviPathfindDlg@@UAA@XZ 0006f63c f   PlugininNaviPathfindDlg.obj
 0001:0005e844       ?GetMessageMap@CPlugininNaviPathfindDlg@@MBAPBUAFX_MSGMAP@@XZ 0006f844 f   PlugininNaviPathfindDlg.obj
 0001:0005e850       ?OnInitDialog@CPlugininNaviPathfindDlg@@MAAHXZ 0006f850 f   PlugininNaviPathfindDlg.obj
 0001:0005ed64       ?DestroyWindow@CPlugininNaviPathfindDlg@@MAAHXZ 0006fd64 f   PlugininNaviPathfindDlg.obj
 0001:0005edc4       ?OnBnClickedButton1@CPlugininNaviPathfindDlg@@QAAXXZ 0006fdc4 f   PlugininNaviPathfindDlg.obj
 0001:0005ee18       ?OnBnClickedButton2@CPlugininNaviPathfindDlg@@QAAXXZ 0006fe18 f   PlugininNaviPathfindDlg.obj
 0001:0005ee34       ?OnBnClickedButton3@CPlugininNaviPathfindDlg@@QAAXXZ 0006fe34 f   PlugininNaviPathfindDlg.obj
 0001:0005ee50       ?OnBnClickedButton4@CPlugininNaviPathfindDlg@@QAAXXZ 0006fe50 f   PlugininNaviPathfindDlg.obj
 0001:0005ee6c       ?OnBnClickedButton5@CPlugininNaviPathfindDlg@@QAAXXZ 0006fe6c f   PlugininNaviPathfindDlg.obj
 0001:0005ee88       ?OnBnClickedButton6@CPlugininNaviPathfindDlg@@QAAXXZ 0006fe88 f   PlugininNaviPathfindDlg.obj
 0001:0005eef8       ?OnBnClickedButton7@CPlugininNaviPathfindDlg@@QAAXXZ 0006fef8 f   PlugininNaviPathfindDlg.obj
 0001:0005ef84       ?OnBnClickedButton8@CPlugininNaviPathfindDlg@@QAAXXZ 0006ff84 f   PlugininNaviPathfindDlg.obj
 0001:0005efdc       ?OnBnClickedButton9@CPlugininNaviPathfindDlg@@QAAXXZ 0006ffdc f   PlugininNaviPathfindDlg.obj
 0001:0005f04c       ?OnBnClickedButton10@CPlugininNaviPathfindDlg@@QAAXXZ 0007004c f   PlugininNaviPathfindDlg.obj
 0001:0005f0c4       ?IncrementRouteNum@CPlugininNaviPathfindDlg@@AAAXH@Z 000700c4 f   PlugininNaviPathfindDlg.obj
 0001:0005f1ac       ?UpdateStatus@CPlugininNaviPathfindDlg@@AAAXW4pathfind_status@1@H@Z 000701ac f   PlugininNaviPathfindDlg.obj
 0001:0005f27c       ?OnNaviPathfindResReadRouteFile@CPlugininNaviPathfindDlg@@MAAXIJ@Z 0007027c f   PlugininNaviPathfindDlg.obj
 0001:0005f338       ?OnNaviPathfindResExecuteRoute@CPlugininNaviPathfindDlg@@MAAXIJ@Z 00070338 f   PlugininNaviPathfindDlg.obj
 0001:0005f360       ?OnNaviPathfindNotifyRouteStatus@CPlugininNaviPathfindDlg@@MAAXIJ@Z 00070360 f   PlugininNaviPathfindDlg.obj
 0001:0005f360       ?OnNaviPathfindResStopRoute@CPlugininNaviPathfindDlg@@MAAXIJ@Z 00070360 f   PlugininNaviPathfindDlg.obj
 0001:0005f388       ?OnNaviPathfindResRouteStudyInfo@CPlugininNaviPathfindDlg@@MAAXIJ@Z 00070388 f   PlugininNaviPathfindDlg.obj
 0001:0005f478       ?GetRuntimeClass@CPlugininA1RecordingDlg@@UBAPAUCRuntimeClass@@XZ 00070478 f   PlugininA1RecordingDlg.obj
 0001:0005f48c       ??0CPlugininA1RecordingDlg@@QAA@PAVCWnd@@@Z 0007048c f   PlugininA1RecordingDlg.obj
 0001:0005f6c8       ??_GCPlugininA1RecordingDlg@@UAAPAXI@Z 000706c8 f i PlugininA1RecordingDlg.obj
 0001:0005f6c8       ??_ECPlugininA1RecordingDlg@@UAAPAXI@Z 000706c8 f i  CIL library: CIL module
 0001:0005f6f4       ??1CPlugininA1RecordingDlg@@UAA@XZ 000706f4 f   PlugininA1RecordingDlg.obj
 0001:0005f928       ?GetMessageMap@CPlugininA1RecordingDlg@@MBAPBUAFX_MSGMAP@@XZ 00070928 f   PlugininA1RecordingDlg.obj
 0001:0005f934       ?OnInitDialog@CPlugininA1RecordingDlg@@MAAHXZ 00070934 f   PlugininA1RecordingDlg.obj
 0001:0005fd20       ?OnBnClickedButton1@CPlugininA1RecordingDlg@@QAAXXZ 00070d20 f   PlugininA1RecordingDlg.obj
 0001:0005fd48       ?OnBnClickedButton2@CPlugininA1RecordingDlg@@QAAXXZ 00070d48 f   PlugininA1RecordingDlg.obj
 0001:0005fd70       ?OnBnClickedButton3@CPlugininA1RecordingDlg@@QAAXXZ 00070d70 f   PlugininA1RecordingDlg.obj
 0001:0005fd98       ?OnBnClickedButton4@CPlugininA1RecordingDlg@@QAAXXZ 00070d98 f   PlugininA1RecordingDlg.obj
 0001:0005fdc0       ?OnBnClickedButton5@CPlugininA1RecordingDlg@@QAAXXZ 00070dc0 f   PlugininA1RecordingDlg.obj
 0001:0005fde8       ?OnBnClickedButton6@CPlugininA1RecordingDlg@@QAAXXZ 00070de8 f   PlugininA1RecordingDlg.obj
 0001:0005fe10       ?OnBnClickedButton11@CPlugininA1RecordingDlg@@QAAXXZ 00070e10 f   PlugininA1RecordingDlg.obj
 0001:0005fe38       ?OnBnClickedButton12@CPlugininA1RecordingDlg@@QAAXXZ 00070e38 f   PlugininA1RecordingDlg.obj
 0001:0005fe60       ?OnBnClickedButton13@CPlugininA1RecordingDlg@@QAAXXZ 00070e60 f   PlugininA1RecordingDlg.obj
 0001:0005fe88       ?OnBnClickedButton14@CPlugininA1RecordingDlg@@QAAXXZ 00070e88 f   PlugininA1RecordingDlg.obj
 0001:0005feb8       ?StartRecording@CPlugininA1RecordingDlg@@IAA_NAAUDiagRecSetting@1@@Z 00070eb8 f   PlugininA1RecordingDlg.obj
 0001:00060054       ?OnBnClickedButtonStartRec@CPlugininA1RecordingDlg@@QAAXXZ 00071054 f   PlugininA1RecordingDlg.obj
 0001:00060090       ?UpdateButtons@CPlugininA1RecordingDlg@@IAAXXZ 00071090 f   PlugininA1RecordingDlg.obj
 0001:00060300       ?OnTimer@CPlugininA1RecordingDlg@@QAAXI@Z 00071300 f   PlugininA1RecordingDlg.obj
 0001:000603dc       ?GetRuntimeClass@CPlugininAutoMapScreenDlg@@UBAPAUCRuntimeClass@@XZ 000713dc f   PlugininAutoMapScreenDlg.obj
 0001:000603f0       ??0CPlugininAutoMapScreenDlg@@QAA@PAVCWnd@@@Z 000713f0 f   PlugininAutoMapScreenDlg.obj
 0001:00060510       ??_ECPlugininAutoMapScreenDlg@@UAAPAXI@Z 00071510 f i  CIL library: CIL module
 0001:00060510       ??_GCPlugininAutoMapScreenDlg@@UAAPAXI@Z 00071510 f i PlugininAutoMapScreenDlg.obj
 0001:0006053c       ??1CPlugininAutoMapScreenDlg@@UAA@XZ 0007153c f   PlugininAutoMapScreenDlg.obj
 0001:00060668       ?GetMessageMap@CPlugininAutoMapScreenDlg@@MBAPBUAFX_MSGMAP@@XZ 00071668 f   PlugininAutoMapScreenDlg.obj
 0001:00060674       ?OnInitDialog@CPlugininAutoMapScreenDlg@@MAAHXZ 00071674 f   PlugininAutoMapScreenDlg.obj
 0001:000608fc       ?OnBnClickedButton8@CPlugininAutoMapScreenDlg@@QAAXXZ 000718fc f   PlugininAutoMapScreenDlg.obj
 0001:00060984       ?OnBnClickedButton9@CPlugininAutoMapScreenDlg@@QAAXXZ 00071984 f   PlugininAutoMapScreenDlg.obj
 0001:00060a18       ?OnBnClickedButton10@CPlugininAutoMapScreenDlg@@QAAXXZ 00071a18 f   PlugininAutoMapScreenDlg.obj
 0001:00060ab0       ?OnBnClickedButton11@CPlugininAutoMapScreenDlg@@QAAXXZ 00071ab0 f   PlugininAutoMapScreenDlg.obj
 0001:00060b7c       ?OnBnClickedButton12@CPlugininAutoMapScreenDlg@@QAAXXZ 00071b7c f   PlugininAutoMapScreenDlg.obj
 0001:00060c04       ?GetRuntimeClass@CPlugininFactoryWriteDataListDlg@@UBAPAUCRuntimeClass@@XZ 00071c04 f   PlugininFactoryWriteDataListDlg.obj
 0001:00060c10       ??0CPlugininFactoryWriteDataListDlg@@QAA@PAVCWnd@@@Z 00071c10 f   PlugininFactoryWriteDataListDlg.obj
 0001:00060ccc       ??_ECPlugininFactoryWriteDataListDlg@@UAAPAXI@Z 00071ccc f i  CIL library: CIL module
 0001:00060ccc       ??_GCPlugininFactoryWriteDataListDlg@@UAAPAXI@Z 00071ccc f i PlugininFactoryWriteDataListDlg.obj
 0001:00060cf8       ??1CPlugininFactoryWriteDataListDlg@@UAA@XZ 00071cf8 f   PlugininFactoryWriteDataListDlg.obj
 0001:00060dac       ?GetMessageMap@CPlugininFactoryWriteDataListDlg@@MBAPBUAFX_MSGMAP@@XZ 00071dac f   PlugininFactoryWriteDataListDlg.obj
 0001:00060db8       ?OnInitDialog@CPlugininFactoryWriteDataListDlg@@MAAHXZ 00071db8 f   PlugininFactoryWriteDataListDlg.obj
 0001:000610a8       ?UpdateDisplay@CPlugininFactoryWriteDataListDlg@@AAAXXZ 000720a8 f   PlugininFactoryWriteDataListDlg.obj
 0001:000614ec       ??0factoryData@@QAA@XZ     000724ec f i PlugininFactoryWriteDataListDlg.obj
 0001:00061508       ??1factoryData@@QAA@XZ     00072508 f i PlugininFactoryWriteDataListDlg.obj
 0001:00061564       ?OnBnClickedButtonPrev@CPlugininFactoryWriteDataListDlg@@QAAXXZ 00072564 f   PlugininFactoryWriteDataListDlg.obj
 0001:00061594       ?OnBnClickedButtonNext@CPlugininFactoryWriteDataListDlg@@QAAXXZ 00072594 f   PlugininFactoryWriteDataListDlg.obj
 0001:00061850       ?textClear@CPlugininFactoryWriteDataListDlg@@AAAXI@Z 00072850 f   PlugininFactoryWriteDataListDlg.obj
 0001:0006194c       ?DefineElement@CPlugininFactoryWriteDataListDlg@@AAA?AUfactoryData@@V?$CStringT@_WV?$StrTraitMFC@_WV?$ChTraitsOS@_W@ATL@@@@@ATL@@0@Z 0007294c f   PlugininFactoryWriteDataListDlg.obj
 0001:00061b4c       ?FactoryDataSet@CPlugininFactoryWriteDataListDlg@@AAAXXZ 00072b4c f   PlugininFactoryWriteDataListDlg.obj
 0001:0006408c       ?GetDrawingTextHeight@CPlugininFactoryWriteDataListDlg@@AAAHAAV?$CStringT@_WV?$StrTraitMFC@_WV?$ChTraitsOS@_W@ATL@@@@@ATL@@AAUtagRECT@@PAVCFont@@@Z 0007508c f   PlugininFactoryWriteDataListDlg.obj
 0001:00064168       ?AddTail@?$CList@UfactoryData@@ABU1@@@QAAPAU__POSITION@@ABUfactoryData@@@Z 00075168 f i PlugininFactoryWriteDataListDlg.obj
 0001:00064258       ??1?$CList@UfactoryData@@ABU1@@@UAA@XZ 00075258 f i PlugininFactoryWriteDataListDlg.obj
 0001:000642b8       ?Serialize@?$CList@UfactoryData@@ABU1@@@UAAXAAVCArchive@@@Z 000752b8 f i PlugininFactoryWriteDataListDlg.obj
 0001:000644f0       ??$FixedSizeBufferToCString@E$0P@@@YA?AV?$CStringT@_WV?$StrTraitMFC@_WV?$ChTraitsOS@_W@ATL@@@@@ATL@@AAY0P@$$CBE@Z 000754f0 f i PlugininFactoryWriteDataListDlg.obj
 0001:00064508       ??$FixedSizeBufferToCString@E$0N@@@YA?AV?$CStringT@_WV?$StrTraitMFC@_WV?$ChTraitsOS@_W@ATL@@@@@ATL@@AAY0N@$$CBE@Z 00075508 f i PlugininFactoryWriteDataListDlg.obj
 0001:00064520       ??$FixedSizeBufferToCString@E$07@@YA?AV?$CStringT@_WV?$StrTraitMFC@_WV?$ChTraitsOS@_W@ATL@@@@@ATL@@AAY07$$CBE@Z 00075520 f i PlugininFactoryWriteDataListDlg.obj
 0001:00064538       ??$FixedSizeBufferToCString@E$01@@YA?AV?$CStringT@_WV?$StrTraitMFC@_WV?$ChTraitsOS@_W@ATL@@@@@ATL@@AAY01$$CBE@Z 00075538 f i PlugininFactoryWriteDataListDlg.obj
 0001:00064550       ??$FixedSizeBufferToCString@E$02@@YA?AV?$CStringT@_WV?$StrTraitMFC@_WV?$ChTraitsOS@_W@ATL@@@@@ATL@@AAY02$$CBE@Z 00075550 f i PlugininFactoryWriteDataListDlg.obj
 0001:00064568       ??$FixedSizeBufferToCString@E$0BI@@@YA?AV?$CStringT@_WV?$StrTraitMFC@_WV?$ChTraitsOS@_W@ATL@@@@@ATL@@AAY0BI@$$CBE@Z 00075568 f i PlugininFactoryWriteDataListDlg.obj
 0001:00064580       ??$FixedSizeBufferToCString@E$09@@YA?AV?$CStringT@_WV?$StrTraitMFC@_WV?$ChTraitsOS@_W@ATL@@@@@ATL@@AAY09$$CBE@Z 00075580 f i PlugininFactoryWriteDataListDlg.obj
 0001:00064598       ??$FixedSizeBufferToCString@E$0M@@@YA?AV?$CStringT@_WV?$StrTraitMFC@_WV?$ChTraitsOS@_W@ATL@@@@@ATL@@AAY0M@$$CBE@Z 00075598 f i PlugininFactoryWriteDataListDlg.obj
 0001:000645b0       ??_E?$CList@UfactoryData@@ABU1@@@UAAPAXI@Z 000755b0 f i  CIL library: CIL module
 0001:000645b0       ??_G?$CList@UfactoryData@@ABU1@@@UAAPAXI@Z 000755b0 f i PlugininFactoryWriteDataListDlg.obj
 0001:000645d4       ??$SerializeElements@UfactoryData@@@@YAXAAVCArchive@@PAUfactoryData@@H@Z 000755d4 f i PlugininFactoryWriteDataListDlg.obj
 0001:00064680       ?GetRuntimeClass@CPlugininDriveRecording17Dlg@@UBAPAUCRuntimeClass@@XZ 00075680 f   PlugininDriveRecording17Dlg.obj
 0001:00064694       ??0CPlugininDriveRecording17Dlg@@QAA@PAVCWnd@@@Z 00075694 f   PlugininDriveRecording17Dlg.obj
 0001:000648d0       ??_GCPlugininDriveRecording17Dlg@@UAAPAXI@Z 000758d0 f i PlugininDriveRecording17Dlg.obj
 0001:000648d0       ??_ECPlugininDriveRecording17Dlg@@UAAPAXI@Z 000758d0 f i  CIL library: CIL module
 0001:000648fc       ??1CPlugininDriveRecording17Dlg@@UAA@XZ 000758fc f   PlugininDriveRecording17Dlg.obj
 0001:00064b04       ?GetMessageMap@CPlugininDriveRecording17Dlg@@MBAPBUAFX_MSGMAP@@XZ 00075b04 f   PlugininDriveRecording17Dlg.obj
 0001:00064b18       ?OnInitDialog@CPlugininDriveRecording17Dlg@@MAAHXZ 00075b18 f   PlugininDriveRecording17Dlg.obj
 0001:0006546c       ?UpdateDumpLogStatus@CPlugininDriveRecording17Dlg@@AAAXXZ 0007646c f   PlugininDriveRecording17Dlg.obj
 0001:0006556c       ?ClearConfigValues@CPlugininDriveRecording17Dlg@@AAAXXZ 0007656c f   PlugininDriveRecording17Dlg.obj
 0001:00065658       ?UpdateConfigValues@CPlugininDriveRecording17Dlg@@AAAXXZ 00076658 f   PlugininDriveRecording17Dlg.obj
 0001:00065784       ?UpdateVoltageValue@CPlugininDriveRecording17Dlg@@AAAXXZ 00076784 f   PlugininDriveRecording17Dlg.obj
 0001:000658d4       ?UpdateRearCameraDispStatus@CPlugininDriveRecording17Dlg@@AAAXXZ 000768d4 f   PlugininDriveRecording17Dlg.obj
 0001:00065990       ?OnBnClickedDumpLogOn@CPlugininDriveRecording17Dlg@@QAAXXZ 00076990 f   PlugininDriveRecording17Dlg.obj
 0001:000659e4       ?OnBnClickedDumpLogOff@CPlugininDriveRecording17Dlg@@QAAXXZ 000769e4 f   PlugininDriveRecording17Dlg.obj
 0001:00065a38       ?OnBnClickedPrintConfigStart@CPlugininDriveRecording17Dlg@@QAAXXZ 00076a38 f   PlugininDriveRecording17Dlg.obj
 0001:00065a94       ?OnBnClickedCommand1@CPlugininDriveRecording17Dlg@@QAAXXZ 00076a94 f   PlugininDriveRecording17Dlg.obj
 0001:00065ae8       ?OnBnClickedCommand2@CPlugininDriveRecording17Dlg@@QAAXXZ 00076ae8 f   PlugininDriveRecording17Dlg.obj
 0001:00065b3c       ?OnBnClickedCommand3@CPlugininDriveRecording17Dlg@@QAAXXZ 00076b3c f   PlugininDriveRecording17Dlg.obj
 0001:00065b90       ?OnBnCliecedVoltageUp@CPlugininDriveRecording17Dlg@@QAAXXZ 00076b90 f   PlugininDriveRecording17Dlg.obj
 0001:00065be4       ?OnBnCliecedVoltageDown@CPlugininDriveRecording17Dlg@@QAAXXZ 00076be4 f   PlugininDriveRecording17Dlg.obj
 0001:00065c38       ?OnBnCliecedMirrorImage@CPlugininDriveRecording17Dlg@@QAAXXZ 00076c38 f   PlugininDriveRecording17Dlg.obj
 0001:00065c8c       ?OnBnCliecedNormalImage@CPlugininDriveRecording17Dlg@@QAAXXZ 00076c8c f   PlugininDriveRecording17Dlg.obj
 0001:00065ce0       ?OnDvrNotifyOutputLogChanged@CPlugininDriveRecording17Dlg@@MAAXIJ@Z 00076ce0 f   PlugininDriveRecording17Dlg.obj
 0001:00065ce4       ?OnDvrResAcquireSettingValue@CPlugininDriveRecording17Dlg@@MAAXIJ@Z 00076ce4 f   PlugininDriveRecording17Dlg.obj
 0001:00065cf4       ?OnDvrResVoltageSetting@CPlugininDriveRecording17Dlg@@MAAXIJ@Z 00076cf4 f   PlugininDriveRecording17Dlg.obj
 0001:00065d20       ?OnDvrResSwitchRearCameraDisp@CPlugininDriveRecording17Dlg@@MAAXIJ@Z 00076d20 f   PlugininDriveRecording17Dlg.obj
 0001:00065d4c       ?GetRuntimeClass@CPlugininLocationDiagDlg@@UBAPAUCRuntimeClass@@XZ 00076d4c f   PlugininLocationDiagDlg.obj
 0001:00065d60       ??0CPlugininLocationDiagDlg@@QAA@PAVCWnd@@@Z 00076d60 f   PlugininLocationDiagDlg.obj
 0001:00065f64       ??_GCPlugininLocationDiagDlg@@UAAPAXI@Z 00076f64 f i PlugininLocationDiagDlg.obj
 0001:00065f64       ??_ECPlugininLocationDiagDlg@@UAAPAXI@Z 00076f64 f i  CIL library: CIL module
 0001:00065f90       ??1CPlugininLocationDiagDlg@@UAA@XZ 00076f90 f   PlugininLocationDiagDlg.obj
 0001:0006616c       ?GetMessageMap@CPlugininLocationDiagDlg@@MBAPBUAFX_MSGMAP@@XZ 0007716c f   PlugininLocationDiagDlg.obj
 0001:00066178       ?OnInitDialog@CPlugininLocationDiagDlg@@MAAHXZ 00077178 f   PlugininLocationDiagDlg.obj
 0001:0006655c       ?OnBnClickedButton1@CPlugininLocationDiagDlg@@QAAXXZ 0007755c f   PlugininLocationDiagDlg.obj
 0001:0006657c       ?OnBnClickedButton2@CPlugininLocationDiagDlg@@QAAXXZ 0007757c f   PlugininLocationDiagDlg.obj
 0001:0006659c       ?OnBnClickedButton3@CPlugininLocationDiagDlg@@QAAXXZ 0007759c f   PlugininLocationDiagDlg.obj
 0001:000665b8       ?OnBnClickedButton4@CPlugininLocationDiagDlg@@QAAXXZ 000775b8 f   PlugininLocationDiagDlg.obj
 0001:000665d4       ?OnBnClickedButton5@CPlugininLocationDiagDlg@@QAAXXZ 000775d4 f   PlugininLocationDiagDlg.obj
 0001:000665f0       ?OnBnClickedButton6@CPlugininLocationDiagDlg@@QAAXXZ 000775f0 f   PlugininLocationDiagDlg.obj
 0001:0006660c       ?ReqSetCsvNoReverseList@CPlugininLocationDiagDlg@@IAAXE@Z 0007760c f   PlugininLocationDiagDlg.obj
 0001:000666a0       ?OnBnClickedButton7@CPlugininLocationDiagDlg@@QAAXXZ 000776a0 f   PlugininLocationDiagDlg.obj
 0001:000666bc       ?OnBnClickedButton8@CPlugininLocationDiagDlg@@QAAXXZ 000776bc f   PlugininLocationDiagDlg.obj
 0001:000666d8       ?OnBnClickedButton9@CPlugininLocationDiagDlg@@QAAXXZ 000776d8 f   PlugininLocationDiagDlg.obj
 0001:000666f4       ?UpdateButtons@CPlugininLocationDiagDlg@@IAAXXZ 000776f4 f   PlugininLocationDiagDlg.obj
 0001:00066760       ?OnLocResSetCsvNoreverse@CPlugininLocationDiagDlg@@MAAXIJ@Z 00077760 f   PlugininLocationDiagDlg.obj
 0001:00066774       ?RetDisp@CPlugininLocationDiagDlg@@IAAXW4DIAG_CSV_NO_REVERSE_LIST_RESULT@1@@Z 00077774 f   PlugininLocationDiagDlg.obj
 0001:0006685c       ?GetRuntimeClass@CPlugininHMILogCfgDlg@@UBAPAUCRuntimeClass@@XZ 0007785c f   PlugininHMILogCfgDlg.obj
 0001:00066870       ??0CPlugininHMILogCfgDlg@@QAA@PAVCWnd@@@Z 00077870 f   PlugininHMILogCfgDlg.obj
 0001:0006692c       ??_GCPlugininHMILogCfgDlg@@UAAPAXI@Z 0007792c f i PlugininHMILogCfgDlg.obj
 0001:0006692c       ??_ECPlugininHMILogCfgDlg@@UAAPAXI@Z 0007792c f i  CIL library: CIL module
 0001:00066958       ??0ST_BUTTON_PAIR@@QAA@XZ  00077958 f i PlugininHMILogCfgDlg.obj
 0001:000669a8       ??1ST_BUTTON_PAIR@@QAA@XZ  000779a8 f i PlugininHMILogCfgDlg.obj
 0001:00066a04       ??1CPlugininHMILogCfgDlg@@UAA@XZ 00077a04 f   PlugininHMILogCfgDlg.obj
 0001:00066a94       ?GetMessageMap@CPlugininHMILogCfgDlg@@MBAPBUAFX_MSGMAP@@XZ 00077a94 f   PlugininHMILogCfgDlg.obj
 0001:00066aa0       ?OnInitDialog@CPlugininHMILogCfgDlg@@MAAHXZ 00077aa0 f   PlugininHMILogCfgDlg.obj
 0001:00066eb4       ?OnBnClickedButtonAstLogAllOff@CPlugininHMILogCfgDlg@@QAAXXZ 00077eb4 f   PlugininHMILogCfgDlg.obj
 0001:00066ef8       ?OnBnClickedButtonAstLogAllOn@CPlugininHMILogCfgDlg@@QAAXXZ 00077ef8 f   PlugininHMILogCfgDlg.obj
 0001:00066f3c       ?OnBnClickedButtonAstLogMsgOff@CPlugininHMILogCfgDlg@@QAAXXZ 00077f3c f   PlugininHMILogCfgDlg.obj
 0001:00066f48       ?OnBnClickedButtonAstLogMsgOn@CPlugininHMILogCfgDlg@@QAAXXZ 00077f48 f   PlugininHMILogCfgDlg.obj
 0001:00066f54       ?OnBnClickedButtonAstLogUsrActOff@CPlugininHMILogCfgDlg@@QAAXXZ 00077f54 f   PlugininHMILogCfgDlg.obj
 0001:00066f60       ?OnBnClickedButtonAstLogUsrActOn@CPlugininHMILogCfgDlg@@QAAXXZ 00077f60 f   PlugininHMILogCfgDlg.obj
 0001:00066f6c       ?OnBnClickedButtonAstLogScrChgnOff@CPlugininHMILogCfgDlg@@QAAXXZ 00077f6c f   PlugininHMILogCfgDlg.obj
 0001:00066f78       ?OnBnClickedButtonAstLogScrChgnOn@CPlugininHMILogCfgDlg@@QAAXXZ 00077f78 f   PlugininHMILogCfgDlg.obj
 0001:00066f84       ?OnBnClickedButtonAstLogOnsOff@CPlugininHMILogCfgDlg@@QAAXXZ 00077f84 f   PlugininHMILogCfgDlg.obj
 0001:00066f90       ?OnBnClickedButtonAstLogOnsOn@CPlugininHMILogCfgDlg@@QAAXXZ 00077f90 f   PlugininHMILogCfgDlg.obj
 0001:00066f9c       ?OnBnClickedButtonAstLogStatusOff@CPlugininHMILogCfgDlg@@QAAXXZ 00077f9c f   PlugininHMILogCfgDlg.obj
 0001:00066fa8       ?OnBnClickedButtonAstLogStatusOn@CPlugininHMILogCfgDlg@@QAAXXZ 00077fa8 f   PlugininHMILogCfgDlg.obj
 0001:00066fbc       ?setLogConfig@CPlugininHMILogCfgDlg@@QAAXW4__E_AST_LOG_TYPE__@@_N@Z 00077fbc f   PlugininHMILogCfgDlg.obj
 0001:00067154       ?GetLogSysAstConfig@CPlugininHMILogCfgDlg@@QAAXAAK@Z 00078154 f   PlugininHMILogCfgDlg.obj
 0001:00067428       ?OnBnClickedButtonAstLogSave@CPlugininHMILogCfgDlg@@QAAXXZ 00078428 f   PlugininHMILogCfgDlg.obj
 0001:00067474       ??_ECBitmap2@@UAAPAXI@Z    00078474 f i  CIL library: CIL module
 0001:00067474       ??_GCBitmap2@@UAAPAXI@Z    00078474 f i Bitmap2.obj
 0001:00067498       ??1CBitmap2@@UAA@XZ        00078498 f   Bitmap2.obj
 0001:000674e8       ?LoadFromResource@CBitmap2@@QAAHIPB_WPAUHINSTANCE__@@@Z 000784e8 f   Bitmap2.obj
 0001:0006773c       ?GetRuntimeClass@CBmpButton@@UBAPAUCRuntimeClass@@XZ 0007873c f   BmpButton.obj
 0001:00067748       ??0CBmpButton@@QAA@XZ      00078748 f   BmpButton.obj
 0001:00067814       ??_GCBmpButton@@UAAPAXI@Z  00078814 f i BmpButton.obj
 0001:00067814       ??_ECBmpButton@@UAAPAXI@Z  00078814 f i  CIL library: CIL module
 0001:00067838       ??1CBmpButton@@UAA@XZ      00078838 f   BmpButton.obj
 0001:0006786c       ?AutoLoad@CBmpButton@@QAAXIIII@Z 0007886c f   BmpButton.obj
 0001:000678c0       ?DrawItem@CBmpButton@@UAAXPAUtagDRAWITEMSTRUCT@@@Z 000788c0 f   BmpButton.obj
 0001:00067984       ?DrawBitmap@CBmpButton@@AAAHPAVCDC@@AAVCBitmap2@@ABVCRect@@KK@Z 00078984 f   BmpButton.obj
 0001:00067b8c       ??_ECButton@@UAAPAXI@Z     00078b8c f i  CIL library: CIL module
 0001:00067b8c       ??_GCButton@@UAAPAXI@Z     00078b8c f i BmpButton.obj
 0001:00067bb0       ?GetRuntimeClass@CBmpButtonPushHold@@UBAPAUCRuntimeClass@@XZ 00078bb0 f   BmpButtonPushHold.obj
 0001:00067bbc       ??_GCBmpButtonPushHold@@UAAPAXI@Z 00078bbc f i BmpButtonPushHold.obj
 0001:00067bbc       ??_ECBmpButtonPushHold@@UAAPAXI@Z 00078bbc f i  CIL library: CIL module
 0001:00067c18       ??1CBmpButtonPushHold@@UAA@XZ 00078c18 f   BmpButtonPushHold.obj
 0001:00067c60       ?GetMessageMap@CBmpButtonPushHold@@MBAPBUAFX_MSGMAP@@XZ 00078c60 f   BmpButtonPushHold.obj
 0001:00067c6c       ?OnLButtonDblClk@CColorButton@@QAAXIVCPoint@@@Z 00078c6c f   ColorButton.obj
 0001:00067c6c       ?OnLButtonDblClk@CBmpButtonPushHold@@QAAXIVCPoint@@@Z 00078c6c f   BmpButtonPushHold.obj
 0001:00067c6c       ?OnLButtonDblClk@CBmpButton@@QAAXIVCPoint@@@Z 00078c6c f   BmpButton.obj
 0001:00067ca8       ?DrawItem@CBmpButtonPushHold@@UAAXPAUtagDRAWITEMSTRUCT@@@Z 00078ca8 f   BmpButtonPushHold.obj
 0001:00067d6c       ?DrawBitmap@CBmpButtonPushHold@@AAAHPAVCDC@@AAVCBitmap2@@ABVCRect@@KK@Z 00078d6c f   BmpButtonPushHold.obj
 0001:00067f88       ?OnLButtonUp@CBmpButtonPushHold@@QAAXIVCPoint@@@Z 00078f88 f   BmpButtonPushHold.obj
 0001:00067fc0       ?OnLButtonDown@CBmpButtonPushHold@@QAAXIVCPoint@@@Z 00078fc0 f   BmpButtonPushHold.obj
 0001:00068008       ?OnTimer@CBmpButtonPushHold@@QAAXI@Z 00079008 f   BmpButtonPushHold.obj
 0001:0006806c       ?GetRuntimeClass@CColorButton@@UBAPAUCRuntimeClass@@XZ 0007906c f   ColorButton.obj
 0001:00068078       ??0CColorButton@@QAA@XZ    00079078 f   ColorButton.obj
 0001:000680bc       ??_GCColorButton@@UAAPAXI@Z 000790bc f i ColorButton.obj
 0001:000680bc       ??_ECColorButton@@UAAPAXI@Z 000790bc f i  CIL library: CIL module
 0001:000680ec       ??1CColorButton@@UAA@XZ    000790ec f   ColorButton.obj
 0001:00068100       ?GetMessageMap@CBmpButton@@MBAPBUAFX_MSGMAP@@XZ 00079100 f   BmpButton.obj
 0001:00068100       ?GetMessageMap@CColorButton@@MBAPBUAFX_MSGMAP@@XZ 00079100 f   ColorButton.obj
 0001:0006810c       ?AutoLoad@CColorButton@@QAAHIPAVCWnd@@@Z 0007910c f   ColorButton.obj
 0001:00068160       ?DrawItem@CColorButton@@MAAXPAUtagDRAWITEMSTRUCT@@@Z 00079160 f   ColorButton.obj
 0001:000684cc       ?DrawBkGround@CColorButton@@IAAXPAVCDC@@VCRect@@K@Z 000794cc f   ColorButton.obj
 0001:00068520       ?DrawCaption@CColorButton@@IAAXPAVCDC@@VCRect@@KKABV?$CStringT@_WV?$StrTraitMFC@_WV?$ChTraitsOS@_W@ATL@@@@@ATL@@@Z 00079520 f   ColorButton.obj
 0001:00068834       ?DrawCaption2@CColorButton@@IAAXPAVCDC@@VCRect@@KKABV?$CStringT@_WV?$StrTraitMFC@_WV?$ChTraitsOS@_W@ATL@@@@@ATL@@@Z 00079834 f   ColorButton.obj
 0001:00068b48       ?StaticProc@@YAJPAUHWND__@@IIJ@Z 00079b48 f   Common.obj
 0001:00068da4       ?StaticProcBold@@YAJPAUHWND__@@IIJ@Z 00079da4 f   Common.obj
 0001:00069070       ?StaticProc_Gray@@YAJPAUHWND__@@IIJ@Z 0007a070 f   Common.obj
 0001:00069254       ?StaticProc_Black@@YAJPAUHWND__@@IIJ@Z 0007a254 f   Common.obj
 0001:00069434       ?StaticProc_Title@@YAJPAUHWND__@@IIJ@Z 0007a434 f   Common.obj
 0001:00069614       ?StaticProc_DateTimeCaption@@YAJPAUHWND__@@IIJ@Z 0007a614 f   Common.obj
 0001:000697f8       ?StaticProc_DateTimeTitle@@YAJPAUHWND__@@IIJ@Z 0007a7f8 f   Common.obj
 0001:000699d8       ?StartProcess@@YAPAXPB_WAAPAUHWND__@@0@Z 0007a9d8 f   Common.obj
 0001:00069b18       ?EnumWindowsProc@@YAHPAUHWND__@@J@Z 0007ab18 f   Common.obj
 0001:00069b58       ?GetMessageMap@CDiagApp@@MBAPBUAFX_MSGMAP@@XZ 0007ab58 f   Diag.obj
 0001:00069b64       ??_ECDiagApp@@UAAPAXI@Z    0007ab64 f i  CIL library: CIL module
 0001:00069b64       ??_GCDiagApp@@UAAPAXI@Z    0007ab64 f i Diag.obj
 0001:00069b90       ?InitInstance@CDiagApp@@UAAHXZ 0007ab90 f   Diag.obj
 0001:00069d78       ??1CDiagDlg@@UAA@XZ        0007ad78 f i Diag.obj
 0001:0006a0c4       ??0CDiagDlg@@QAA@PAVCWnd@@@Z 0007b0c4 f   DiagDlg.obj
 0001:0006a3fc       ??_GCDiagDlg@@UAAPAXI@Z    0007b3fc f i DiagDlg.obj
 0001:0006a3fc       ??_ECDiagDlg@@UAAPAXI@Z    0007b3fc f i  CIL library: CIL module
 0001:0006a420       ?GetMessageMap@CDiagDlg@@MBAPBUAFX_MSGMAP@@XZ 0007b420 f   DiagDlg.obj
 0001:0006a434       ?OnInitDialog@CDiagDlg@@MAAHXZ 0007b434 f   DiagDlg.obj
 0001:0006adc8       ?OnCtlColor@CDiagDlg@@QAAPAUHBRUSH__@@PAVCDC@@PAVCWnd@@I@Z 0007bdc8 f   DiagDlg.obj
 0001:0006aeb4       ?PreTranslateMessage@CDiagDlg@@MAAHPAUtagMSG@@@Z 0007beb4 f   DiagDlg.obj
 0001:0006b6ac       ?OnBnClickedButton1@CDiagDlg@@QAAXXZ 0007c6ac f   DiagDlg.obj
 0001:0006b710       ?OnBnClickedButton2@CDiagDlg@@QAAXXZ 0007c710 f   DiagDlg.obj
 0001:0006b774       ?OnBnClickedButton3@CDiagDlg@@QAAXXZ 0007c774 f   DiagDlg.obj
 0001:0006b7d8       ?OnBnClickedButton4@CDiagDlg@@QAAXXZ 0007c7d8 f   DiagDlg.obj
 0001:0006b83c       ?OnBnClickedButton5@CDiagDlg@@QAAXXZ 0007c83c f   DiagDlg.obj
 0001:0006b8a0       ?OnBnClickedButton6@CDiagDlg@@QAAXXZ 0007c8a0 f   DiagDlg.obj
 0001:0006b904       ?OnBnClickedButton7@CDiagDlg@@QAAXXZ 0007c904 f   DiagDlg.obj
 0001:0006b968       ?OnButtonLoskMessage@CDiagDlg@@IAAJPAUtagMSG@@@Z 0007c968 f   DiagDlg.obj
 0001:0006baf0       ?OnButtonUnLoskMessage@CDiagDlg@@IAAJPAUtagMSG@@@Z 0007caf0 f   DiagDlg.obj
 0001:0006bc7c       ?OnBnClickedButtonNext@CDiagDlg@@QAAXXZ 0007cc7c f   DiagDlg.obj
 0001:0006bce0       ?OnBnClickedButtonPrev@CDiagDlg@@QAAXXZ 0007cce0 f   DiagDlg.obj
 0001:0006bd44       ?OnBnClickedButtonBack@CDiagDlg@@QAAXXZ 0007cd44 f   DiagDlg.obj
 0001:0006bda8       ?OnBnClickedButtonYes@CDiagDlg@@QAAXXZ 0007cda8 f   DiagDlg.obj
 0001:0006be0c       ?OnBnClickedButtonNo@CDiagDlg@@QAAXXZ 0007ce0c f   DiagDlg.obj
 0001:0006be70       ?OnSmResMainData@CDiagDlg@@QAAJIJ@Z 0007ce70 f   DiagDlg.obj
 0001:0006bfe4       ?PalyClickSound@CDiagDlg@@IAAXXZ 0007cfe4 f   DiagDlg.obj
 0001:0006c024       ?OnClose@CDiagDlg@@QAAXXZ  0007d024 f   DiagDlg.obj
 0001:0006c058       ?EnumChildWindows@ATL@@YAHPAUHWND__@@P6AH0J@ZJ@Z 0007d058 f i DiagDlg.obj
 0001:0006c0c4       ?GetRuntimeClass@CDialogBase@@UBAPAUCRuntimeClass@@XZ 0007d0c4 f   DialogEx.obj
 0001:0006c0d8       ??0CDialogBase@@QAA@HPAVCWnd@@@Z 0007d0d8 f   DialogEx.obj
 0001:0006c354       ??_ECDialogBase@@UAAPAXI@Z 0007d354 f i  CIL library: CIL module
 0001:0006c354       ??_GCDialogBase@@UAAPAXI@Z 0007d354 f i DialogEx.obj
 0001:0006c380       ??1CDialogBase@@UAA@XZ     0007d380 f   DialogEx.obj
 0001:0006c4bc       ?GetMessageMap@CDialogBase@@MBAPBUAFX_MSGMAP@@XZ 0007d4bc f   DialogEx.obj
 0001:0006c4bc       ?GetThisMessageMap@CDialogBase@@KAPBUAFX_MSGMAP@@XZ 0007d4bc f   DialogEx.obj
 0001:0006c4d0       ?ShowTelop_@CDialogBase@@MAAXPB_WI@Z 0007d4d0 f   DialogEx.obj
 0001:0006c538       ?CloseTelop_@CDialogBase@@MAAXXZ 0007d538 f   DialogEx.obj
 0001:0006c564       ?PreTranslateMessage@CDialogBase@@MAAHPAUtagMSG@@@Z 0007d564 f   DialogEx.obj
 0001:0006ca18       ?OnInitDialog@CDialogBase@@MAAHXZ 0007da18 f   DialogEx.obj
 0001:0006ca74       ?DestroyWindowEx@CDialogBase@@IAAHXZ 0007da74 f   DialogEx.obj
 0001:0006cab0       ?CreateFont@CDialogBase@@IAAHPAVCFont@@HPB_WH@Z 0007dab0 f   DialogEx.obj
 0001:0006cb7c       ?SetProcUserData@CDialogBase@@KAXPAU_WNDPROC_USERDATA@@HPB_WKKIPBUtagRECT@@@Z 0007db7c f   DialogEx.obj
 0001:0006cbc8       ?NumToZenkaku@CDialogBase@@KAXHPA_W@Z 0007dbc8 f   DialogEx.obj
 0001:0006cd18       ?PalyClickSound@CDialogBase@@IAAXXZ 0007dd18 f   DialogEx.obj
 0001:0006cd78       ?GradientFill@CDialogBase@@IAAXPAVCDC@@ABVCRect@@EEEEEEH@Z 0007dd78 f   DialogEx.obj
 0001:0006cfb0       ?UpdateCtrl@CDialogBase@@IAAHPBUtagRECT@@H@Z 0007dfb0 f   DialogEx.obj
 0001:0006d014       ?DrawTextW@CDialogBase@@IAAXPAVCDC@@PB_WHPAUtagRECT@@IKKPAUHFONT__@@PAI4@Z 0007e014 f   DialogEx.obj
 0001:0006d134       ?DrawLine@CDialogBase@@IAAXPAVCDC@@HHKPAUtagPOINT@@1@Z 0007e134 f   DialogEx.obj
 0001:0006d1ec       ?SetBackButton@CDialogBase@@IAAXI@Z 0007e1ec f   DialogEx.obj
 0001:0006d28c       ?OnSmResMainData@CDialogBase@@MAAXPBEK_N@Z 0007e28c f   DialogEx.obj
 0001:0006d2a4       ??_9CPlugininFlicAdjustDlg@@$BOI@AA 0007e2a4 f i PlugininFlicAdjustDlg.obj
 0001:0006d2a4       ??_9CPlugininCamCameraPosDlg@@$BOI@AA 0007e2a4 f i PlugininCamCameraPosDlg.obj
 0001:0006d2a4       ??_9CPlugininTouchPanelConfDlg@@$BOI@AA 0007e2a4 f i PlugininTouchPanelConfDlg.obj
 0001:0006d2a4       ??_9CPlugininCameraPosDlg@@$BOI@AA 0007e2a4 f i PlugininCameraPosDlg.obj
 0001:0006d2a4       ??_9CPlugininGradationDlg@@$BOI@AA 0007e2a4 f i PlugininGradationDlg.obj
 0001:0006d2a4       ??_9CDialogBase@@$BOI@AA   0007e2a4 f i DialogEx.obj
 0001:0006d2a4       ??_9CPlugininTouchPanelAdjustDlg@@$BOI@AA 0007e2a4 f i PlugininTouchPanelAdjustDlg.obj
 0001:0006d2b0       ?m_LocDiagLogSaveStart@@YAXXZ 0007e2b0 f   NaviLocationDiag:NaviLocationDiag.obj
 0001:0006d2c8       ?m_LocDiagLogSaveStop@@YAXXZ 0007e2c8 f   NaviLocationDiag:NaviLocationDiag.obj
 0001:0006d2e0       ?m_LocDiagNmeaChgDate@@YAXJJJJJJ@Z 0007e2e0 f   NaviLocationDiag:NaviLocationDiag.obj
 0001:0006d40c       ??_GCCommonBaseIF@MEMMANAGERBASEDLL@@UAAPAXI@Z 0007e40c f i NaviLocationDiag:NaviLocationDiag.obj
 0001:0006d40c       ??_ECCommonBaseIF@MEMMANAGERBASEDLL@@UAAPAXI@Z 0007e40c f i  CIL library: CIL module
 0001:0006d440       ?m_LocNotifyExecReverse@@YAXEG@Z 0007e440 f   NaviLocationDiag:NaviLocationDiag.obj
 0001:0006d458       ?m_LocReqSetCsvNoReverseList@@YAXE@Z 0007e458 f   NaviLocationDiag:NaviLocationDiag.obj
 0001:0006d5f4       ?m_VicsDiagSaveFmData@@YAXXZ 0007e5f4 f   NaviVicsDiag:NaviVicsDiag.obj
 0001:0006d608       ?m_VicsDiagLoadFmData@@YAXXZ 0007e608 f   NaviVicsDiag:NaviVicsDiag.obj
 0001:0006d61c       ?m_VicsDiagSaveBeaconData@@YAXXZ 0007e61c f   NaviVicsDiag:NaviVicsDiag.obj
 0001:0006d630       ?m_VicsDiagLoadBeaconData@@YAXXZ 0007e630 f   NaviVicsDiag:NaviVicsDiag.obj
 0001:0006d644       ?m_VicsDiagSaveCarwingsData@@YAXXZ 0007e644 f   NaviVicsDiag:NaviVicsDiag.obj
 0001:0006d658       ?m_VicsDiagLoadCarwingsData@@YAXXZ 0007e658 f   NaviVicsDiag:NaviVicsDiag.obj
 0001:0006d66c       ?m_VicsDiagSaveVLinkData@@YAXXZ 0007e66c f   NaviVicsDiag:NaviVicsDiag.obj
 0001:0006d680       ?m_VicsDiagLoadVLinkData@@YAXXZ 0007e680 f   NaviVicsDiag:NaviVicsDiag.obj
 0001:0006d694       ?m_VicsDiagDebugOn@@YAXXZ  0007e694 f   NaviVicsDiag:NaviVicsDiag.obj
 0001:0006d6a8       ?m_VicsDiagDebugOff@@YAXXZ 0007e6a8 f   NaviVicsDiag:NaviVicsDiag.obj
 0001:0006d6bc       ?m_VicsDiagLvMeterOn@@YAXXZ 0007e6bc f   NaviVicsDiag:NaviVicsDiag.obj
 0001:0006d6d0       ?m_VicsDiagLvMeterOff@@YAXXZ 0007e6d0 f   NaviVicsDiag:NaviVicsDiag.obj
 0001:0006d6ec       ?m_VicsDiagReqConnectFm@@YAXE@Z 0007e6ec f   NaviVicsDiag:NaviVicsDiag.obj
 0001:0006d784       ?m_VicsReceiveDebugFmUrge@@YAXXZ 0007e784 f   NaviVicsDiag:NaviVicsDiag.obj
 0001:0006d798       ?m_VicsDiagSendDsrcData@@YAXXZ 0007e798 f   NaviVicsDiag:NaviVicsDiag.obj
 0001:0006d7ac       ?m_VicsDiagSendBeaconDataInfo@@YAXXZ 0007e7ac f   NaviVicsDiag:NaviVicsDiag.obj
 0001:0006d7c0       LoadDevice                 0007e7c0 f   astlogapi:AstLogApi.obj
 0001:0006d850       AstLogCopyFile             0007e850 f   astlogapi:AstLogApi.obj
 0001:0006d8b8       ??0MEM_MemoryManager@@QAA@XZ 0007e8b8 f   memmanagerlibrary:MEM_MemoryManager.obj
 0001:0006e1b8       ??_GCCommonBaseUIIF@MEMMANAGERBASEDLL@@UAAPAXI@Z 0007f1b8 f i memmanagerlibrary:MEM_MemoryManager.obj
 0001:0006e1b8       ??_ECCommonBaseUIIF@MEMMANAGERBASEDLL@@UAAPAXI@Z 0007f1b8 f i memmanagerlibrary:MEM_MemoryManager.obj
 0001:0006e1e8       ??_GCHmiCtrlNaviBaseIF@MEMMANAGERBASEDLL@@UAAPAXI@Z 0007f1e8 f i memmanagerlibrary:MEM_MemoryManager.obj
 0001:0006e1e8       ??_ECHmiCtrlNaviBaseIF@MEMMANAGERBASEDLL@@UAAPAXI@Z 0007f1e8 f i memmanagerlibrary:MEM_MemoryManager.obj
 0001:0006e218       ??_ECCommonIF@MEMMANAGERNAVIDLL@@UAAPAXI@Z 0007f218 f i memmanagerlibrary:MEM_MemoryManager.obj
 0001:0006e218       ??_GCCommonIF@MEMMANAGERNAVIDLL@@UAAPAXI@Z 0007f218 f i memmanagerlibrary:MEM_MemoryManager.obj
 0001:0006e248       ??_ECCommonUIIF@MEMMANAGERNAVIDLL@@UAAPAXI@Z 0007f248 f i memmanagerlibrary:MEM_MemoryManager.obj
 0001:0006e248       ??_GCCommonUIIF@MEMMANAGERNAVIDLL@@UAAPAXI@Z 0007f248 f i memmanagerlibrary:MEM_MemoryManager.obj
 0001:0006e278       ??_ECHmiControlIF@MEMMANAGERNAVIDLL@@UAAPAXI@Z 0007f278 f i memmanagerlibrary:MEM_MemoryManager.obj
 0001:0006e278       ??_GCHmiControlIF@MEMMANAGERNAVIDLL@@UAAPAXI@Z 0007f278 f i memmanagerlibrary:MEM_MemoryManager.obj
 0001:0006e2a8       ??_GCCommonCnfUIIF@MEMMANAGERSMDLL@@UAAPAXI@Z 0007f2a8 f i memmanagerlibrary:MEM_MemoryManager.obj
 0001:0006e2a8       ??_ECCommonCnfUIIF@MEMMANAGERSMDLL@@UAAPAXI@Z 0007f2a8 f i memmanagerlibrary:MEM_MemoryManager.obj
 0001:0006e2d8       ??_GCCommonSmIF@MEMMANAGERSMDLL@@UAAPAXI@Z 0007f2d8 f i memmanagerlibrary:MEM_MemoryManager.obj
 0001:0006e2d8       ??_ECCommonSmIF@MEMMANAGERSMDLL@@UAAPAXI@Z 0007f2d8 f i memmanagerlibrary:MEM_MemoryManager.obj
 0001:0006e308       ??_ECHmiCtrlCnfBaseIF@MEMMANAGERBASEDLL@@UAAPAXI@Z 0007f308 f i memmanagerlibrary:MEM_MemoryManager.obj
 0001:0006e308       ??_GCHmiCtrlCnfBaseIF@MEMMANAGERBASEDLL@@UAAPAXI@Z 0007f308 f i memmanagerlibrary:MEM_MemoryManager.obj
 0001:0006e338       ??_GCHmiControlCnfIF@MEMMANAGERSMDLL@@UAAPAXI@Z 0007f338 f i memmanagerlibrary:MEM_MemoryManager.obj
 0001:0006e338       ??_ECHmiControlCnfIF@MEMMANAGERSMDLL@@UAAPAXI@Z 0007f338 f i memmanagerlibrary:MEM_MemoryManager.obj
 0001:0006e368       ??_GCCommonMmIF@MEMMANAGERMMDLL@@UAAPAXI@Z 0007f368 f i memmanagerlibrary:MEM_MemoryManager.obj
 0001:0006e368       ??_ECCommonMmIF@MEMMANAGERMMDLL@@UAAPAXI@Z 0007f368 f i memmanagerlibrary:MEM_MemoryManager.obj
 0001:0006e398       ??_GCCommonMmUIIF@MEMMANAGERMMDLL@@UAAPAXI@Z 0007f398 f i memmanagerlibrary:MEM_MemoryManager.obj
 0001:0006e398       ??_ECCommonMmUIIF@MEMMANAGERMMDLL@@UAAPAXI@Z 0007f398 f i memmanagerlibrary:MEM_MemoryManager.obj
 0001:0006e3c8       ??_ECHmiControlMmIF@MEMMANAGERMMDLL@@UAAPAXI@Z 0007f3c8 f i memmanagerlibrary:MEM_MemoryManager.obj
 0001:0006e3c8       ??_GCHmiControlMmIF@MEMMANAGERMMDLL@@UAAPAXI@Z 0007f3c8 f i memmanagerlibrary:MEM_MemoryManager.obj
 0001:0006e3f8       ??_GCAudioControlMmIF@MEMMANAGERMMDLL@@UAAPAXI@Z 0007f3f8 f i memmanagerlibrary:MEM_MemoryManager.obj
 0001:0006e3f8       ??_ECAudioControlMmIF@MEMMANAGERMMDLL@@UAAPAXI@Z 0007f3f8 f i memmanagerlibrary:MEM_MemoryManager.obj
 0001:0006e428       ??_ECIPodMmIF@MEMMANAGERMMDLL@@UAAPAXI@Z 0007f428 f i memmanagerlibrary:MEM_MemoryManager.obj
 0001:0006e428       ??_GCIPodMmIF@MEMMANAGERMMDLL@@UAAPAXI@Z 0007f428 f i memmanagerlibrary:MEM_MemoryManager.obj
 0001:0006e458       ??_ECCommonDtvIF@MEMMANAGERDTVDLL@@UAAPAXI@Z 0007f458 f i memmanagerlibrary:MEM_MemoryManager.obj
 0001:0006e458       ??_GCCommonDtvIF@MEMMANAGERDTVDLL@@UAAPAXI@Z 0007f458 f i memmanagerlibrary:MEM_MemoryManager.obj
 0001:0006e488       ??_ECCommonDtvUIIF@MEMMANAGERDTVDLL@@UAAPAXI@Z 0007f488 f i memmanagerlibrary:MEM_MemoryManager.obj
 0001:0006e488       ??_GCCommonDtvUIIF@MEMMANAGERDTVDLL@@UAAPAXI@Z 0007f488 f i memmanagerlibrary:MEM_MemoryManager.obj
 0001:0006e4b8       ??_ECHmiControlDtvIF@MEMMANAGERDTVDLL@@UAAPAXI@Z 0007f4b8 f i memmanagerlibrary:MEM_MemoryManager.obj
 0001:0006e4b8       ??_GCHmiControlDtvIF@MEMMANAGERDTVDLL@@UAAPAXI@Z 0007f4b8 f i memmanagerlibrary:MEM_MemoryManager.obj
 0001:0006e4e8       ??_GCCommonUIIF@MEMMANAGERDVRDLL@@UAAPAXI@Z 0007f4e8 f i memmanagerlibrary:MEM_MemoryManager.obj
 0001:0006e4e8       ??_ECCommonUIIF@MEMMANAGERDVRDLL@@UAAPAXI@Z 0007f4e8 f i memmanagerlibrary:MEM_MemoryManager.obj
 0001:0006e518       ??_ECCommonIF@MEMMANAGERDVRDLL@@UAAPAXI@Z 0007f518 f i memmanagerlibrary:MEM_MemoryManager.obj
 0001:0006e518       ??_GCCommonIF@MEMMANAGERDVRDLL@@UAAPAXI@Z 0007f518 f i memmanagerlibrary:MEM_MemoryManager.obj
 0001:0006e548       ??_ECHmiControlIF@MEMMANAGERDVRDLL@@UAAPAXI@Z 0007f548 f i memmanagerlibrary:MEM_MemoryManager.obj
 0001:0006e548       ??_GCHmiControlIF@MEMMANAGERDVRDLL@@UAAPAXI@Z 0007f548 f i memmanagerlibrary:MEM_MemoryManager.obj
 0001:0006e578       ??_ECDvrMngIF@MEMMANAGERDVRDLL@@UAAPAXI@Z 0007f578 f i memmanagerlibrary:MEM_MemoryManager.obj
 0001:0006e578       ??_GCDvrMngIF@MEMMANAGERDVRDLL@@UAAPAXI@Z 0007f578 f i memmanagerlibrary:MEM_MemoryManager.obj
 0001:0006e5b0       ??1MEM_MemoryManager@@UAA@XZ 0007f5b0 f   memmanagerlibrary:MEM_MemoryManager.obj
 0001:0006e83c       ?GethWndSystemManager@MEM_MemoryManager@@QAAXAAPAUHWND__@@@Z 0007f83c f   memmanagerlibrary:MEM_MemoryManager.obj
 0001:0006e85c       ?ExitMemoryManager@MEM_MemoryManager@@QAAXXZ 0007f85c f   memmanagerlibrary:MEM_MemoryManager.obj
 0001:0006e8c4       ?ResHeartBeat@MEM_MemoryManager@@QAAHIJ@Z 0007f8c4 f   memmanagerlibrary:MEM_MemoryManager.obj
 0001:0006e8ec       ?SetstHmiReminder@MEM_MemoryManager@@QAAXABUST_HMI_REMINDER@@@Z 0007f8ec f   memmanagerlibrary:MEM_MemoryManager.obj
 0001:0006e90c       ??_EMEM_MemoryManager@@UAAPAXI@Z 0007f90c f i memmanagerlibrary:MEM_MemoryManager.obj
 0001:0006e90c       ??_GMEM_MemoryManager@@UAAPAXI@Z 0007f90c f i memmanagerlibrary:MEM_MemoryManager.obj
 0001:0006e930       ??_ESYS_Object@@UAAPAXI@Z  0007f930 f i memmanagerlibrary:MEM_Ole32.obj
 0001:0006e930       ??_EMEM_Ole32@@UAAPAXI@Z   0007f930 f i memmanagerlibrary:MEM_Ole32.obj
 0001:0006e930       ??_GSYS_Object@@UAAPAXI@Z  0007f930 f i memmanagerlibrary:MEM_Ole32.obj
 0001:0006e930       ??_GMEM_Ole32@@UAAPAXI@Z   0007f930 f i memmanagerlibrary:MEM_Ole32.obj
 0001:0006e954       ??0MEM_Ole32@@QAA@XZ       0007f954 f   memmanagerlibrary:MEM_Ole32.obj
 0001:0006e968       ??1MEM_Ole32@@UAA@XZ       0007f968 f   memmanagerlibrary:MEM_Ole32.obj
 0001:0006e968       ??1SYS_Object@@UAA@XZ      0007f968 f   memmanagerlibrary:MEM_Ole32.obj
 0001:0006e978       ??0SYS_LOG@@QAA@XZ         0007f978 f   syslibrary:SYS_LOG.obj
 0001:0006e9ac       ??1SYS_LOG@@UAA@XZ         0007f9ac f   syslibrary:SYS_LOG.obj
 0001:0006ea28       ?LogRotate@SYS_LOG@@AAAPAXPAXPBDKKK@Z 0007fa28 f   syslibrary:SYS_LOG.obj
 0001:0006eeb0       ?LimitFileWrite@SYS_LOG@@AAAKPAXKKPADK@Z 0007feb0 f   syslibrary:SYS_LOG.obj
 0001:0006f050       ??_ESYS_LOG@@UAAPAXI@Z     00080050 f i syslibrary:SYS_LOG.obj
 0001:0006f050       ??_GSYS_LOG@@UAAPAXI@Z     00080050 f i syslibrary:SYS_LOG.obj
 0001:0006f07c       ?_SubModuleWrite@SYS_LOG@@AAAXEEPADZZ 0008007c f   syslibrary:SYS_LOG.obj
 0001:0006f2b4       ?SubModuleWrite@SYS_LOG@@QAAXEEPADZZ 000802b4 f   syslibrary:SYS_LOG.obj
 0001:0006f370       ??1SYS_INIFile@@UAA@XZ     00080370 f   syslibrary:SYS_INIFile.obj
 0001:0006f3e4       ?InifileGetValue@SYS_INIFile@@AAAHPAD00KPA_W@Z 000803e4 f   syslibrary:SYS_INIFile.obj
 0001:0006f7e0       ?InifileStrLen@SYS_INIFile@@AAAKPADK@Z 000807e0 f   syslibrary:SYS_INIFile.obj
 0001:0006f818       ?InifileStrLen@SYS_INIFile@@AAAKPA_WK@Z 00080818 f   syslibrary:SYS_INIFile.obj
 0001:0006f854       ??_ESYS_INIFile@@UAAPAXI@Z 00080854 f i syslibrary:SYS_INIFile.obj
 0001:0006f854       ??_GSYS_INIFile@@UAAPAXI@Z 00080854 f i syslibrary:SYS_INIFile.obj
 0001:0006f878       ?InifileGetDefault@SYS_INIFile@@AAAKPAD0K@Z 00080878 f   syslibrary:SYS_INIFile.obj
 0001:0006f8fc       ??0SYS_INIFile@@QAA@XZ     000808fc f   syslibrary:SYS_INIFile.obj
 0001:0006f970       ?GetPrivateProfileString@SYS_INIFile@@QAAJPAD000KPA_W@Z 00080970 f   syslibrary:SYS_INIFile.obj
 0001:0006fb88       ?GetPrivateProfileInt@SYS_INIFile@@QAAIPAD0IPA_W@Z 00080b88 f   syslibrary:SYS_INIFile.obj
 0001:0006fc40       ??BSYS_String@@QAAPB_WXZ   00080c40 f   syslibrary:SYS_String.obj
 0001:0006fc48       ??0SYS_String@@QAA@XZ      00080c48 f   syslibrary:SYS_String.obj
 0001:0006fc80       ??1SYS_String@@QAA@XZ      00080c80 f   syslibrary:SYS_String.obj
 0001:0006fcbc       ?FormatV@?$CStringT@_WV?$StrTraitATL@_WV?$ChTraitsOS@_W@ATL@@@ATL@@@ATL@@QAAXPB_WPAD@Z 00080cbc f i syslibrary:SYS_String.obj
 0001:0006fcbc       ?FormatV@?$CStringT@_WV?$StrTraitMFC@_WV?$ChTraitsOS@_W@ATL@@@@@ATL@@QAAXPB_WPAD@Z 00080cbc f i DIAG_PageManager.obj
 0001:0006fd38       ?Format@?$CStringT@_WV?$StrTraitMFC@_WV?$ChTraitsOS@_W@ATL@@@@@ATL@@QAAXPB_WZZ 00080d38 f   DIAG_PageManager.obj
 0001:0006fd38       ?Format@SYS_String@@QAAXPB_WZZ 00080d38 f   syslibrary:SYS_String.obj
 0001:0006fd54       ?DebugStringFormatLine@SYS_String@@QAAXPB_WZZ 00080d54 f   syslibrary:SYS_String.obj
 0001:0006fd90       ??0SYS_String@@QAA@PB_W@Z  00080d90 f   syslibrary:SYS_String.obj
 0001:0006fe28       ??YSYS_String@@QAAAAV0@ABV0@@Z 00080e28 f   syslibrary:SYS_String.obj
 0001:0006fe44       ??4SYS_String@@QAAAAV0@QB_W@Z 00080e44 f   syslibrary:SYS_String.obj
 0001:0006fe74       ??0SYS_Sync@@QAA@XZ        00080e74 f   syslibrary:SYS_Sync.obj
 0001:0006fe94       ??1SYS_Sync@@UAA@XZ        00080e94 f   syslibrary:SYS_Sync.obj
 0001:0006febc       ?SyncStart@SYS_Sync@@QAAXXZ 00080ebc f   syslibrary:SYS_Sync.obj
 0001:0006fec4       ?SyncEnd@SYS_Sync@@QAAXXZ  00080ec4 f   syslibrary:SYS_Sync.obj
 0001:0006fecc       ??_ESYS_Sync@@UAAPAXI@Z    00080ecc f i syslibrary:SYS_Sync.obj
 0001:0006fecc       ??_GSYS_Sync@@UAAPAXI@Z    00080ecc f i syslibrary:SYS_Sync.obj
 0001:0006ff08       ?OnAmbientProperty@CWnd@@UAAHPAVCOleControlSite@@JPAUtagVARIANT@@@Z 00080f08 f   uafxcw:winocc.obj
 0001:0006ff28       ?GetControlUnknown@CWnd@@QAAPAUIUnknown@@XZ 00080f28 f   uafxcw:winocc.obj
 0001:0006ff3c       ?PaintWindowlessControls@CWnd@@QAAHPAVCDC@@@Z 00080f3c f   uafxcw:winocc.obj
 0001:0006ff74       ?GetOleControlSite@CWnd@@QBAPAVCOleControlSite@@I@Z 00080f74 f   uafxcw:winocc.obj
 0001:0006ffac       ?GetDlgItem@CWnd@@QBAPAV1@H@Z 00080fac f   uafxcw:winocc.obj
 0001:0006ffec       ?GetDlgItem@CWnd@@QBAXHPAPAUHWND__@@@Z 00080fec f   uafxcw:winocc.obj
 0001:00070034       ?SetDlgItemTextW@CWnd@@QAAXHPB_W@Z 00081034 f   uafxcw:winocc.obj
 0001:00070070       ?IsDialogMessageW@CWnd@@QAAHPAUtagMSG@@@Z 00081070 f   uafxcw:winocc.obj
 0001:000700c4       ?GetStyle@CWnd@@QBAKXZ     000810c4 f   uafxcw:winocc.obj
 0001:00070104       ?GetExStyle@CWnd@@QBAKXZ   00081104 f   uafxcw:winocc.obj
 0001:00070144       ?SetWindowTextW@CWnd@@QAAXPB_W@Z 00081144 f   uafxcw:winocc.obj
 0001:000701b4       ?GetDlgCtrlID@CWnd@@QBAHXZ 000811b4 f   uafxcw:winocc.obj
 0001:000701f0       ?MoveWindow@CWnd@@QAAXHHHHH@Z 000811f0 f   uafxcw:winocc.obj
 0001:00070248       ?ShowWindow@CWnd@@QAAHH@Z  00081248 f   uafxcw:winocc.obj
 0001:00070284       ?IsWindowEnabled@CWnd@@QBAHXZ 00081284 f   uafxcw:winocc.obj
 0001:000702c0       ?EnableWindow@CWnd@@QAAHH@Z 000812c0 f   uafxcw:winocc.obj
 0001:000702fc       ?SetFocus@CWnd@@QAAPAV1@XZ 000812fc f   uafxcw:winocc.obj
 0001:0007033c       ?AttachControlSite@CWnd@@QAAXPAV1@I@Z 0008133c f   uafxcw:winocc.obj
 0001:00070378       ??$CompareElements@PAXPAX@@YAHPBQAX0@Z 00081378 f i uafxcw:winocc.obj
 0001:000703b0       ?SetWindowPos@CWnd@@QAAHPBV1@HHHHI@Z 000813b0 f   uafxcw:winocc.obj
 0001:00070444       ?GetAssocAt@?$CMap@PAXPAXPAXPAX@@IBAPAVCAssoc@1@PAXAAI1@Z 00081444 f i uafxcw:winocc.obj
 0001:000704e0       ?GetWindowTextW@CWnd@@QBAHPA_WH@Z 000814e0 f   uafxcw:winocc.obj
 0001:000705c0       ?AttachControlSite@CWnd@@IAAXPAVCHandleMap@@@Z 000815c0 f   uafxcw:winocc.obj
 0001:0007063c       ?GetRuntimeClass@COleException@@UBAPAUCRuntimeClass@@XZ 0008163c f   uafxcw:olemisc.obj
 0001:00070648       ?IsMenu@ATL@@YAHPAUHMENU__@@@Z 00081648 f i uafxcw:olemisc.obj
 0001:000706bc       ?GetMenuItemCount@ATL@@YAHPAUHMENU__@@@Z 000816bc f i uafxcw:olemisc.obj
 0001:00070738       ?GetMenuItemID@ATL@@YAIPAUHMENU__@@H@Z 00081738 f i uafxcw:olemisc.obj
 0001:000707a4       ?GetMenuState@ATL@@YAIPAUHMENU__@@II@Z 000817a4 f i uafxcw:olemisc.obj
 0001:00070814       ?AfxThrowOleException@@YAXJ@Z 00081814 f   uafxcw:olemisc.obj
 0001:00070888       ?GetErrorMessage@COleException@@UBAHPA_WIPAI@Z 00081888 f   uafxcw:olemisc.obj
 0001:00070908       ??_ECOleException@@UAAPAXI@Z 00081908 f i uafxcw:olemisc.obj
 0001:00070908       ??_GCOleException@@UAAPAXI@Z 00081908 f i uafxcw:olemisc.obj
 0001:00070930       ?Delete@CException@@QAAXXZ 00081930 f   uafxcw:except.obj
 0001:00070958       ?GetErrorMessage@CException@@UAAHPA_WIPAI@Z 00081958 f   uafxcw:except.obj
 0001:0007097c       ?ReportError@CException@@UAAHII@Z 0008197c f   uafxcw:except.obj
 0001:00070a1c       ?GetRuntimeClass@CSimpleException@@UBAPAUCRuntimeClass@@XZ 00081a1c f   uafxcw:except.obj
 0001:00070a28       ?GetRuntimeClass@CMemoryException@@UBAPAUCRuntimeClass@@XZ 00081a28 f   uafxcw:except.obj
 0001:00070a34       ?GetRuntimeClass@CNotSupportedException@@UBAPAUCRuntimeClass@@XZ 00081a34 f   uafxcw:except.obj
 0001:00070a40       ?GetRuntimeClass@CInvalidArgException@@UBAPAUCRuntimeClass@@XZ 00081a40 f   uafxcw:except.obj
 0001:00070a4c       ?InitString@CSimpleException@@QAAXXZ 00081a4c f   uafxcw:except.obj
 0001:00070a84       ?AfxThrowMemoryException@@YAXXZ 00081a84 f   uafxcw:except.obj
 0001:00070aa8       ?AfxThrowNotSupportedException@@YAXXZ 00081aa8 f   uafxcw:except.obj
 0001:00070acc       ?AfxThrowInvalidArgException@@YAXXZ 00081acc f   uafxcw:except.obj
 0001:00070af8       ?CreateObject@?$CThreadLocal@V_AFX_THREAD_STATE@@@@SAPAVCNoTrackObject@@XZ 00081af8 f i uafxcw:except.obj
 0001:00070b44       ??0CException@@QAA@XZ      00081b44 f   uafxcw:except.obj
 0001:00070b50       ??0CException@@QAA@H@Z     00081b50 f   uafxcw:except.obj
 0001:00070b50       ?SetOutputDC@CDC@@UAAXPAUHDC__@@@Z 00081b50 f   uafxcw:wingdi.obj
 0001:00070b58       ?GetErrorMessage@CSimpleException@@UBAHPA_WIPAI@Z 00081b58 f   uafxcw:except.obj
 0001:00070bdc       ??_ECNotSupportedException@@UAAPAXI@Z 00081bdc f i uafxcw:except.obj
 0001:00070bdc       ??_GCUserException@@UAAPAXI@Z 00081bdc f i uafxcw:wingdi.obj
 0001:00070bdc       ??_ECUserException@@UAAPAXI@Z 00081bdc f i uafxcw:wingdi.obj
 0001:00070bdc       ??_ECResourceException@@UAAPAXI@Z 00081bdc f i uafxcw:wingdi.obj
 0001:00070bdc       ??_GCResourceException@@UAAPAXI@Z 00081bdc f i uafxcw:wingdi.obj
 0001:00070bdc       ??_GCInvalidArgException@@UAAPAXI@Z 00081bdc f i uafxcw:except.obj
 0001:00070bdc       ??_ECMemoryException@@UAAPAXI@Z 00081bdc f i uafxcw:except.obj
 0001:00070bdc       ??_GCNotSupportedException@@UAAPAXI@Z 00081bdc f i uafxcw:except.obj
 0001:00070bdc       ??_GCMemoryException@@UAAPAXI@Z 00081bdc f i uafxcw:except.obj
 0001:00070bdc       ??_ECInvalidArgException@@UAAPAXI@Z 00081bdc f i uafxcw:except.obj
 0001:00070c04       ?AfxGetStringManager@@YAPAUIAtlStringMgr@ATL@@XZ 00081c04 f   uafxcw:strcore.obj
 0001:00070c10       ?Allocate@CAfxStringMgr@@UAAPAUCStringData@ATL@@HH@Z 00081c10 f   uafxcw:strcore.obj
 0001:00070c64       ?Free@CAfxStringMgr@@UAAXPAUCStringData@ATL@@@Z 00081c64 f   uafxcw:strcore.obj
 0001:00070c78       ?Reallocate@CAfxStringMgr@@UAAPAUCStringData@ATL@@PAU23@HH@Z 00081c78 f   uafxcw:strcore.obj
 0001:00070cbc       ?GetNilString@CAfxStringMgr@@UAAPAUCStringData@ATL@@XZ 00081cbc f   uafxcw:strcore.obj
 0001:00070cd8       ?AfxGetMainWnd@@YAPAVCWnd@@XZ 00081cd8 f i uafxcw:appui1.obj
 0001:00070d0c       ?DoEnableModeless@CWinApp@@SAXH@Z 00081d0c f   uafxcw:appui1.obj
 0001:00070d50       ?GetSafeOwner_@CWnd@@SAPAUHWND__@@PAU2@PAPAU2@@Z 00081d50 f   uafxcw:appui1.obj
 0001:00070e64       ?EnableModeless@CWinApp@@QAAXH@Z 00081e64 f   uafxcw:appui1.obj
 0001:00070e80       ?ShowAppMessageBox@CWinApp@@SAHPAV1@PB_WII@Z 00081e80 f   uafxcw:appui1.obj
 0001:00070f78       ?AfxMessageBox@@YAHPB_WII@Z 00081f78 f   uafxcw:appui1.obj
 0001:00070fcc       ?DoMessageBox@CWinApp@@UAAHPB_WII@Z 00081fcc f   uafxcw:appui1.obj
 0001:00070fe4       ?AfxMessageBox@@YAHIII@Z   00081fe4 f   uafxcw:appui1.obj
 0001:00071094       ?SetAttribDC@CDC@@UAAXPAUHDC__@@@Z 00082094 f   uafxcw:wingdi.obj
 0001:0007109c       ?ReleaseAttribDC@CDC@@UAAXXZ 0008209c f   uafxcw:wingdi.obj
 0001:000710a8       ?ReleaseOutputDC@CDC@@UAAXXZ 000820a8 f   uafxcw:wingdi.obj
 0001:000710b4       ?SaveDC@CDC@@UAAHXZ        000820b4 f   uafxcw:wingdi.obj
 0001:00071100       ?RestoreDC@CDC@@UAAHH@Z    00082100 f   uafxcw:wingdi.obj
 0001:00071160       ?SetBkColor@CDC@@UAAKK@Z   00082160 f   uafxcw:wingdi.obj
 0001:000711a0       ?SetBkMode@CDC@@QAAHH@Z    000821a0 f   uafxcw:wingdi.obj
 0001:000711e0       ?SetTextColor@CDC@@UAAKK@Z 000821e0 f   uafxcw:wingdi.obj
 0001:00071220       ?GetClipBox@CDC@@UBAHPAUtagRECT@@@Z 00082220 f   uafxcw:wingdi.obj
 0001:00071234       ?LineTo@CDC@@QAAHHH@Z      00082234 f   uafxcw:wingdi.obj
 0001:00071274       ?GetRuntimeClass@CResourceException@@UBAPAUCRuntimeClass@@XZ 00082274 f   uafxcw:wingdi.obj
 0001:00071280       ?GetRuntimeClass@CUserException@@UBAPAUCRuntimeClass@@XZ 00082280 f   uafxcw:wingdi.obj
 0001:0007128c       ?GetRuntimeClass@CDC@@UBAPAUCRuntimeClass@@XZ 0008228c f   uafxcw:wingdi.obj
 0001:00071298       ?GetRuntimeClass@CPaintDC@@UBAPAUCRuntimeClass@@XZ 00082298 f   uafxcw:wingdi.obj
 0001:000712a4       ?GetRuntimeClass@CGdiObject@@UBAPAUCRuntimeClass@@XZ 000822a4 f   uafxcw:wingdi.obj
 0001:000712b0       ?GetRuntimeClass@CPen@@UBAPAUCRuntimeClass@@XZ 000822b0 f   uafxcw:wingdi.obj
 0001:000712bc       ?GetRuntimeClass@CBrush@@UBAPAUCRuntimeClass@@XZ 000822bc f   uafxcw:wingdi.obj
 0001:000712c8       ?GetRuntimeClass@CFont@@UBAPAUCRuntimeClass@@XZ 000822c8 f   uafxcw:wingdi.obj
 0001:000712d4       ?GetRuntimeClass@CBitmap@@UBAPAUCRuntimeClass@@XZ 000822d4 f   uafxcw:wingdi.obj
 0001:000712e0       ?AfxThrowResourceException@@YAXXZ 000822e0 f   uafxcw:wingdi.obj
 0001:00071304       ?AfxThrowUserException@@YAXXZ 00082304 f   uafxcw:wingdi.obj
 0001:00071328       ?Destruct@?$ConstructDestruct@VCWnd@@@@SAXPAVCObject@@@Z 00082328 f i uafxcw:wincore.obj
 0001:00071328       ?Destruct@?$ConstructDestruct@VCGdiObject@@@@SAXPAVCObject@@@Z 00082328 f i uafxcw:wingdi.obj
 0001:00071328       ?Destruct@?$ConstructDestruct@VCDC@@@@SAXPAVCObject@@@Z 00082328 f i uafxcw:wingdi.obj
 0001:00071328       ?Destruct@?$ConstructDestruct@VCMenu@@@@SAXPAVCObject@@@Z 00082328 f i uafxcw:winmenu.obj
 0001:00071328       ?Destruct@?$ConstructDestruct@VCImageList@@@@SAXPAVCObject@@@Z 00082328 f i uafxcw:winctrl2.obj
 0001:00071348       ?CreatePen@ATL@@YAPAUHPEN__@@HHK@Z 00082348 f i uafxcw:wingdi.obj
 0001:00071390       ?RemoveAll@?$CMap@PAXPAXPAXPAX@@QAAXXZ 00082390 f i uafxcw:wingdi.obj
 0001:00071400       ?InitHashTable@?$CMap@PAXPAXPAXPAX@@QAAXIH@Z 00082400 f i uafxcw:wingdi.obj
 0001:00071470       ??0CDC@@QAA@XZ             00082470 f   uafxcw:wingdi.obj
 0001:00071498       ?RectVisible@CDC@@UBAHPBUtagRECT@@@Z 00082498 f i uafxcw:wingdi.obj
 0001:000714ac       ?ExtTextOutW@CDC@@UAAHHHIPBUtagRECT@@PB_WIPAH@Z 000824ac f i uafxcw:wingdi.obj
 0001:000714e8       ?MoveTo@CDC@@QAA?AVCPoint@@HH@Z 000824e8 f   uafxcw:wingdi.obj
 0001:0007153c       ?CreateObject@CDC@@SAPAVCObject@@XZ 0008253c f   uafxcw:wingdi.obj
 0001:00071588       ?CreateObject@CGdiObject@@SAPAVCObject@@XZ 00082588 f   uafxcw:wingdi.obj
 0001:000715bc       ?Construct@?$ConstructDestruct@VCDC@@@@SAXPAVCObject@@@Z 000825bc f i uafxcw:wingdi.obj
 0001:000715e8       ?Construct@?$ConstructDestruct@VCGdiObject@@@@SAXPAVCObject@@@Z 000825e8 f i uafxcw:wingdi.obj
 0001:00071604       ?RemoveKey@?$CMap@PAXPAXPAXPAX@@QAAHPAX@Z 00082604 f i uafxcw:wingdi.obj
 0001:000716c4       ?afxMapHDC@@YAPAVCHandleMap@@H@Z 000826c4 f   uafxcw:wingdi.obj
 0001:00071784       ?FromHandle@CDC@@SAPAV1@PAUHDC__@@@Z 00082784 f   uafxcw:wingdi.obj
 0001:000717ac       ?afxMapHGDIOBJ@@YAPAVCHandleMap@@H@Z 000827ac f   uafxcw:wingdi.obj
 0001:0007186c       ?FromHandle@CGdiObject@@SAPAV1@PAX@Z 0008286c f   uafxcw:wingdi.obj
 0001:0007188c       ?NewAssoc@?$CMap@PAXPAXPAXPAX@@IAAPAVCAssoc@1@PAX@Z 0008288c f i uafxcw:wingdi.obj
 0001:00071930       ?Detach@CDC@@QAAPAUHDC__@@XZ 00082930 f   uafxcw:wingdi.obj
 0001:00071984       ??1CDC@@UAA@XZ             00082984 f   uafxcw:wingdi.obj
 0001:000719b0       ?SelectGdiObject@CDC@@KAPAVCGdiObject@@PAUHDC__@@PAX@Z 000829b0 f   uafxcw:wingdi.obj
 0001:000719d4       ?SelectStockObject@CDC@@UAAPAVCGdiObject@@H@Z 000829d4 f   uafxcw:wingdi.obj
 0001:00071a40       ?SelectObject@CDC@@QAAPAVCBrush@@PAV2@@Z 00082a40 f   uafxcw:wingdi.obj
 0001:00071a40       ?SelectObject@CDC@@QAAPAVCPen@@PAV2@@Z 00082a40 f   uafxcw:wingdi.obj
 0001:00071a40       ?SelectObject@CDC@@UAAPAVCFont@@PAV2@@Z 00082a40 f   uafxcw:wingdi.obj
 0001:00071ab8       ??1CPaintDC@@UAA@XZ        00082ab8 f   uafxcw:wingdi.obj
 0001:00071b38       ?Detach@CGdiObject@@QAAPAXXZ 00082b38 f   uafxcw:wingdi.obj
 0001:00071b78       ?DeleteObject@CGdiObject@@QAAHXZ 00082b78 f   uafxcw:wingdi.obj
 0001:00071ba0       ??A?$CMap@PAXPAXPAXPAX@@QAAAAPAXPAX@Z 00082ba0 f i uafxcw:wingdi.obj
 0001:00071c2c       ??_GCDC@@UAAPAXI@Z         00082c2c f i uafxcw:wingdi.obj
 0001:00071c2c       ??_ECDC@@UAAPAXI@Z         00082c2c f i uafxcw:wingdi.obj
 0001:00071c70       ??_GCPaintDC@@UAAPAXI@Z    00082c70 f i uafxcw:wingdi.obj
 0001:00071c70       ??_ECPaintDC@@UAAPAXI@Z    00082c70 f i uafxcw:wingdi.obj
 0001:00071c98       ?Attach@CDC@@QAAHPAUHDC__@@@Z 00082c98 f   uafxcw:wingdi.obj
 0001:00071cf8       ??0CPaintDC@@QAA@PAVCWnd@@@Z 00082cf8 f   uafxcw:wingdi.obj
 0001:00071da8       ?Attach@CGdiObject@@QAAHPAX@Z 00082da8 f   uafxcw:wingdi.obj
 0001:00071df0       ??0CPen@@QAA@HHK@Z         00082df0 f   uafxcw:wingdi.obj
 0001:00071e98       ??0CBrush@@QAA@K@Z         00082e98 f   uafxcw:wingdi.obj
 0001:00071f28       ??0CWnd@@QAA@XZ            00082f28 f   uafxcw:wincore.obj
 0001:00071f70       ??0CWnd@@AAA@PAUHWND__@@@Z 00082f70 f   uafxcw:wincore.obj
 0001:00071fbc       ?PostNcDestroy@CWnd@@MAAXXZ 00082fbc f   uafxcw:wincore.obj
 0001:00071fbc       ?PreSubclassWindow@CWnd@@UAAXXZ 00082fbc f   uafxcw:wincore.obj
 0001:00071fbc       ?InitLibId@CWinApp@@UAAXXZ 00082fbc f   uafxcw:appui2.obj
 0001:00071fbc       ?GetActiveFrame@CFrameWnd@@UAAPAV1@XZ 00082fbc f   uafxcw:winfrm.obj
 0001:00071fbc       ?SetCheck@CTestCmdUI@@UAAXH@Z 00082fbc f   uafxcw:wincore.obj
 0001:00071fbc       ?PreInitDialog@CDialog@@MAAXXZ 00082fbc f   uafxcw:dlgcore.obj
 0001:00071fbc       ?DrawItem@CButton@@UAAXPAUtagDRAWITEMSTRUCT@@@Z 00082fbc f   uafxcw:winctrl1.obj
 0001:00071fbc       ??0AFX_MAINTAIN_STATE2@@QAA@PAVAFX_MODULE_STATE@@@Z 00082fbc f   uafxcw:afxstate.obj
 0001:00071fbc       ?DrawItem@CMenu@@UAAXPAUtagDRAWITEMSTRUCT@@@Z 00082fbc f   uafxcw:winmenu.obj
 0001:00071fbc       ?DrawItem@CListCtrl@@UAAXPAUtagDRAWITEMSTRUCT@@@Z 00082fbc f   uafxcw:winctrl2.obj
 0001:00071fbc       ?MeasureItem@CMenu@@UAAXPAUtagMEASUREITEMSTRUCT@@@Z 00082fbc f   uafxcw:winmenu.obj
 0001:00071fbc       ??3@YAXPAX0@Z              00082fbc f   uafxcw:wingdi.obj
 0001:00071fbc       ?SetText@CTestCmdUI@@UAAXPB_W@Z 00082fbc f   uafxcw:wincore.obj
 0001:00071fbc       ?Clone@CAtlStringMgr@ATL@@UAAPAUIAtlStringMgr@2@XZ 00082fbc f   atls:atlstr.obj
 0001:00071fbc       ?Clone@CAfxStringMgr@@UAAPAUIAtlStringMgr@ATL@@XZ 00082fbc f   uafxcw:strcore.obj
 0001:00071fbc       ?OnSetFont@CDialog@@UAAXPAVCFont@@@Z 00082fbc f   uafxcw:dlgcore.obj
 0001:00071fbc       ?SetRadio@CTestCmdUI@@UAAXH@Z 00082fbc f   uafxcw:wincore.obj
 0001:00071fc0       ?OnFinalRelease@CWnd@@UAAXXZ 00082fc0 f   uafxcw:wincore.obj
 0001:00071ffc       ?GetSuperWndProcAddr@CWnd@@MAAPAP6AJPAUHWND__@@IIJ@ZXZ 00082ffc f   uafxcw:wincore.obj
 0001:00072004       ?IsFrameWnd@CWnd@@UBAHXZ   00083004 f   uafxcw:wincore.obj
 0001:00072004       ?GetOccDialogInfo@CWnd@@MAAPAU_AFX_OCC_DIALOG_INFO@@XZ 00083004 f   uafxcw:wincore.obj
 0001:00072004       ?PreTranslateMessage@CWnd@@UAAHPAUtagMSG@@@Z 00083004 f   uafxcw:wincore.obj
 0001:00072004       ?InitInstance@CWinThread@@UAAHXZ 00083004 f   uafxcw:thrdcore.obj
 0001:00072004       ?GetBufferPtr@CFile@@UAAIIIPAPAX0@Z 00083004 f   uafxcw:filecore.obj
 0001:00072004       ?GetTypeLibCache@CCmdTarget@@UAAPAVCTypeLibCache@@XZ 00083004 f   uafxcw:cmdtarg.obj
 0001:00072004       ?GetInterfaceHook@CCmdTarget@@UAAPAUIUnknown@@PBX@Z 00083004 f   uafxcw:cmdtarg.obj
 0001:00072004       ?GetDispatchIID@CCmdTarget@@UAAHPAU_GUID@@@Z 00083004 f   uafxcw:cmdtarg.obj
 0001:00072004       ?GetTypeInfoCount@CCmdTarget@@UAAIXZ 00083004 f   uafxcw:cmdtarg.obj
 0001:00072004       ?OnActivateTopLevel@CWnd@@IAAJIJ@Z 00083004 f   uafxcw:wincore.obj
 0001:00072004       ?GetScrollBarCtrl@CWnd@@UBAPAVCScrollBar@@H@Z 00083004 f   uafxcw:wincore.obj
 0001:00072004       ?AfxNullWndProc@@YAJPAUHWND__@@IIJ@Z 00083004 f   uafxcw:wincore.obj
 0001:00072004       ?GetConnectionHook@CCmdTarget@@MAAPAUIConnectionPoint@@ABU_GUID@@@Z 00083004 f   uafxcw:cmdtarg.obj
 0001:00072004       ?GetExtraConnectionPoints@CCmdTarget@@MAAHPAV?$CArray@PAXPAX@@@Z 00083004 f   uafxcw:cmdtarg.obj
 0001:00072004       ?SetOccDialogInfo@CWnd@@MAAHPAU_AFX_OCC_DIALOG_INFO@@@Z 00083004 f   uafxcw:wincore.obj
 0001:0007200c       ?AfxFindMessageEntry@@YAPBUAFX_MSGMAP_ENTRY@@PBU1@III@Z 0008300c f   uafxcw:wincore.obj
 0001:00072074       ?WindowProc@CWnd@@MAAJIIJ@Z 00083074 f   uafxcw:wincore.obj
 0001:000720e8       ?Enable@CTestCmdUI@@UAAXH@Z 000830e8 f   uafxcw:wincore.obj
 0001:000720f8       ?MapToProcess@CePtrBase_t@ATL@@QAAXPAX@Z 000830f8 f i uafxcw:wincore.obj
 0001:00072178       ?CalcWindowRect@CWnd@@UAAXPAUtagRECT@@I@Z 00083178 f   uafxcw:wincore.obj
 0001:000721bc       ?PreTranslateInput@CWnd@@QAAHPAUtagMSG@@@Z 000831bc f   uafxcw:wincore.obj
 0001:00072204       ?ContinueModal@CWnd@@UAAHXZ 00083204 f   uafxcw:wincore.obj
 0001:00072210       ?CreateControlContainer@CWnd@@MAAHPAPAVCOleControlContainer@@@Z 00083210 f   uafxcw:wincore.obj
 0001:00072234       ?CreateControlSite@CWnd@@MAAHPAVCOleControlContainer@@PAPAVCOleControlSite@@IABU_GUID@@@Z 00083234 f   uafxcw:wincore.obj
 0001:00072258       ?GetRuntimeClass@CWnd@@UBAPAUCRuntimeClass@@XZ 00083258 f   uafxcw:wincore.obj
 0001:00072264       ?CreateEx@CWnd@@UAAHKPB_W0KABUtagRECT@@PAV1@IPAX@Z 00083264 f   uafxcw:wincore.obj
 0001:000722fc       ?Create@CWnd@@UAAHPB_W0KABUtagRECT@@PAV1@IPAUCCreateContext@@@Z 000832fc f   uafxcw:wincore.obj
 0001:00072394       ?_AfxFindPopupMenuFromID@@YAPAVCMenu@@PAV1@I@Z 00083394 f   uafxcw:wincore.obj
 0001:00072434       ?AfxRepositionWindow@@YAXPAUAFX_SIZEPARENTPARAMS@@PAUHWND__@@PBUtagRECT@@@Z 00083434 f   uafxcw:wincore.obj
 0001:00072514       ?UpdateData@CWnd@@QAAHH@Z  00083514 f   uafxcw:wincore.obj
 0001:000725f4       ?CenterWindow@CWnd@@QAAXPAV1@@Z 000835f4 f   uafxcw:wincore.obj
 0001:00072810       ?RunModalLoop@CWnd@@QAAHK@Z 00083810 f   uafxcw:wincore.obj
 0001:000729e8       ?EndModalLoop@CWnd@@UAAXH@Z 000839e8 f   uafxcw:wincore.obj
 0001:00072a20       ?SHRecognizeGesture@CWnd@@QAAHVCPoint@@H@Z 00083a20 f   uafxcw:wincore.obj
 0001:00072ae0       ?CreateObject@CWnd@@SAPAVCObject@@XZ 00083ae0 f   uafxcw:wincore.obj
 0001:00072b34       ?Construct@?$ConstructDestruct@VCWnd@@@@SAXPAVCObject@@@Z 00083b34 f i uafxcw:wincore.obj
 0001:00072b80       ?GetModuleHandleW@CDllIsolationWrapperBase@@QAAPAUHINSTANCE__@@XZ 00083b80 f i uafxcw:wincore.obj
 0001:00072bd0       ?GetProcAddress_InitCommonControls@CComCtlWrapper@@QAA?AUInitCommonControls_Type@1@XZ 00083bd0 f i uafxcw:wincore.obj
 0001:00072c20       ?GetProcAddress_InitCommonControlsEx@CComCtlWrapper@@QAA?AUInitCommonControlsEx_Type@1@XZ 00083c20 f i uafxcw:wincore.obj
 0001:00072c70       ?_InitCommonControlsEx@CComCtlWrapper@@QAAHPAUtagINITCOMMONCONTROLSEX@@@Z 00083c70 f i uafxcw:wincore.obj
 0001:00072cb0       ?AfxInitCommonControls@@YAXXZ 00083cb0 f i uafxcw:wincore.obj
 0001:00072cf0       ??1CInternalGlobalLock@@QAA@XZ 00083cf0 f i uafxcw:wincore.obj
 0001:00072d18       ?ReleaseBuffer@?$CSimpleStringT@_W$0A@@ATL@@QAAXH@Z 00083d18 f i uafxcw:wincore.obj
 0001:00072d58       ?GetCurrentMessage@CWnd@@KAPBUtagMSG@@XZ 00083d58 f   uafxcw:wincore.obj
 0001:00072da8       ?Default@CWnd@@IAAJXZ      00083da8 f   uafxcw:wincore.obj
 0001:00072e00       ?afxMapHWND@@YAPAVCHandleMap@@H@Z 00083e00 f   uafxcw:wincore.obj
 0001:00072ec0       ?FromHandle@CWnd@@SAPAV1@PAUHWND__@@@Z 00083ec0 f   uafxcw:wincore.obj
 0001:00072ef4       ?AfxHookWindowCreate@@YAXPAVCWnd@@@Z 00083ef4 f   uafxcw:wincore.obj
 0001:00072f30       ?AfxUnhookWindowCreate@@YAHXZ 00083f30 f   uafxcw:wincore.obj
 0001:00072f78       ?DefWindowProcW@CWnd@@MAAJIIJ@Z 00083f78 f   uafxcw:wincore.obj
 0001:00073034       ?OnNTCtlColor@CWnd@@IAAJIJ@Z 00084034 f   uafxcw:wincore.obj
 0001:000730ac       ?SendChildNotifyLastMsg@CWnd@@QAAHPAJ@Z 000840ac f   uafxcw:wincore.obj
 0001:0007310c       ?OnSetFocus@CWnd@@IAAXPAV1@@Z 0008410c f   uafxcw:wincore.obj
 0001:0007314c       ?OnHScroll@CWnd@@IAAXIIPAVCScrollBar@@@Z 0008414c f   uafxcw:wincore.obj
 0001:0007314c       ?OnVScroll@CWnd@@IAAXIIPAVCScrollBar@@@Z 0008414c f   uafxcw:wincore.obj
 0001:00073180       ?OnCtlColor@CWnd@@IAAPAUHBRUSH__@@PAVCDC@@PAV1@I@Z 00084180 f   uafxcw:wincore.obj
 0001:000731b4       ?_AfxInitCommonControls@@YAJPAUtagINITCOMMONCONTROLSEX@@J@Z 000841b4 f   uafxcw:wincore.obj
 0001:00073228       ?OnLButtonDown@CWnd@@IAAXIVCPoint@@@Z 00084228 f   uafxcw:wincore.obj
 0001:00073288       ?_AfxPostInitDialog@@YAXPAVCWnd@@ABUtagRECT@@K@Z 00084288 f   uafxcw:wincore.obj
 0001:00073334       ?AfxCallWndProc@@YAJPAVCWnd@@PAUHWND__@@IIJ@Z 00084334 f   uafxcw:wincore.obj
 0001:0007350c       ?Detach@CWnd@@QAAPAUHWND__@@XZ 0008450c f   uafxcw:wincore.obj
 0001:00073550       ?OnNcDestroy@CWnd@@IAAXXZ  00084550 f   uafxcw:wincore.obj
 0001:00073674       ?OnCharToItem@CWnd@@IAAHIPAVCListBox@@I@Z 00084674 f   uafxcw:wincore.obj
 0001:00073674       ?OnVKeyToItem@CWnd@@IAAHIPAVCListBox@@I@Z 00084674 f   uafxcw:wincore.obj
 0001:000736b4       ?GetParentFrame@CWnd@@QBAPAVCFrameWnd@@XZ 000846b4 f   uafxcw:wincore.obj
 0001:00073710       ?GetTopLevelFrame@CWnd@@QBAPAVCFrameWnd@@XZ 00084710 f   uafxcw:wincore.obj
 0001:00073788       ?SHDoneButton@CWnd@@QAAHH@Z 00084788 f   uafxcw:wincore.obj
 0001:00073878       ?GetBufferSetLength@?$CSimpleStringT@_W$0A@@ATL@@QAAPA_WH@Z 00084878 f i uafxcw:wincore.obj
 0001:000738c0       ?FromHandlePermanent@CWnd@@SAPAV1@PAUHWND__@@@Z 000848c0 f   uafxcw:wincore.obj
 0001:0007390c       ?AfxWndProc@@YAJPAUHWND__@@IIJ@Z 0008490c f   uafxcw:wincore.obj
 0001:000739c8       ?AfxGetAfxWndProc@@YAP6AJPAUHWND__@@IIJ@ZXZ 000849c8 f   uafxcw:wincore.obj
 0001:000739d4       ?OnDestroy@CWnd@@IAAXXZ    000849d4 f   uafxcw:wincore.obj
 0001:00073a24       ?DestroyWindow@CWnd@@UAAHXZ 00084a24 f   uafxcw:wincore.obj
 0001:00073ad0       ?GetWindowTextW@CWnd@@QBAXAAV?$CStringT@_WV?$StrTraitMFC@_WV?$ChTraitsOS@_W@ATL@@@@@ATL@@@Z 00084ad0 f   uafxcw:wincore.obj
 0001:00073b5c       ?AfxGetParentOwner@@YAPAUHWND__@@PAU1@@Z 00084b5c f   uafxcw:wincore.obj
 0001:00073bd4       ?GetTopLevelParent@CWnd@@QBAPAV1@XZ 00084bd4 f   uafxcw:wincore.obj
 0001:00073c24       ?GetDescendantWindow@CWnd@@SAPAV1@PAUHWND__@@HH@Z 00084c24 f   uafxcw:wincore.obj
 0001:00073cd4       ?SendMessageToDescendants@CWnd@@SAXPAUHWND__@@IIJHH@Z 00084cd4 f   uafxcw:wincore.obj
 0001:00073e1c       ?RepositionBars@CWnd@@QAAXIIIIPAUtagRECT@@PBU2@H@Z 00084e1c f   uafxcw:wincore.obj
 0001:00074088       ?WalkPreTranslateTree@CWnd@@SAHPAUHWND__@@PAUtagMSG@@@Z 00085088 f   uafxcw:wincore.obj
 0001:000740fc       ?_AfxHandleActivate@@YAXPAVCWnd@@I0@Z 000850fc f   uafxcw:wincore.obj
 0001:00074190       ?_AfxHandleSetCursor@@YAHPAVCWnd@@II@Z 00085190 f   uafxcw:wincore.obj
 0001:00074220       ?Attach@CWnd@@QAAHPAUHWND__@@@Z 00085220 f   uafxcw:wincore.obj
 0001:00074274       ?_AfxCbtFilterHook@@YAJHIJ@Z 00085274 f   uafxcw:wincore.obj
 0001:00074340       ?DefWindowProcEx@@YAJPAUHWND__@@IIJ@Z 00085340 f   uafxcw:wincore.obj
 0001:000743dc       ?PostCreateWindowEx@@YAXAAUtagCREATESTRUCTW@@PAUHWND__@@PAUHMENU__@@@Z 000853dc f   uafxcw:wincore.obj
 0001:00074490       ??1CWnd@@UAA@XZ            00085490 f   uafxcw:wincore.obj
 0001:00074560       ?OnMeasureItem@CWnd@@IAAXHPAUtagMEASUREITEMSTRUCT@@@Z 00085560 f   uafxcw:wincore.obj
 0001:00074638       ?OnWndMsg@CWnd@@MAAHIIJPAJ@Z 00085638 f   uafxcw:wincore.obj
 0001:00075244       ?ReflectLastMsg@CWnd@@KAHPAUHWND__@@PAJ@Z 00086244 f   uafxcw:wincore.obj
 0001:00075368       ?ReflectChildNotify@CWnd@@IAAHIIJPAJ@Z 00086368 f   uafxcw:wincore.obj
 0001:000754b4       ?OnSysColorChange@CWnd@@IAAXXZ 000864b4 f   uafxcw:wincore.obj
 0001:00075524       ?OnDisplayChange@CWnd@@IAAJIJ@Z 00086524 f   uafxcw:wincore.obj
 0001:000755ac       ?ExecuteDlgInit@CWnd@@QAAHPAX@Z 000865ac f   uafxcw:wincore.obj
 0001:00075710       ?SubclassWindow@CWnd@@QAAHPAUHWND__@@@Z 00086710 f   uafxcw:wincore.obj
 0001:00075788       ?SubclassDlgItem@CWnd@@QAAHIPAV1@@Z 00086788 f   uafxcw:wincore.obj
 0001:0007582c       ??_GCWnd@@UAAPAXI@Z        0008682c f i uafxcw:wincore.obj
 0001:0007582c       ??_ECWnd@@UAAPAXI@Z        0008682c f i uafxcw:wincore.obj
 0001:00075854       ?OnDrawItem@CWnd@@IAAXHPAUtagDRAWITEMSTRUCT@@@Z 00086854 f   uafxcw:wincore.obj
 0001:000758b8       ?OnCompareItem@CWnd@@IAAHHPAUtagCOMPAREITEMSTRUCT@@@Z 000868b8 f   uafxcw:wincore.obj
 0001:000758ec       ?OnDeleteItem@CWnd@@IAAXHPAUtagDELETITEMSTRUCT@@@Z 000868ec f   uafxcw:wincore.obj
 0001:00075914       ?OnCommand@CWnd@@MAAHIJ@Z  00086914 f   uafxcw:wincore.obj
 0001:00075a24       ?OnNotify@CWnd@@MAAHIJPAJ@Z 00086a24 f   uafxcw:wincore.obj
 0001:00075adc       ?OnChildNotify@CWnd@@MAAHIIJPAJ@Z 00086adc f   uafxcw:wincore.obj
 0001:00075b50       ?OnSettingChange@CWnd@@IAAXIPB_W@Z 00086b50 f   uafxcw:wincore.obj
 0001:00075ba0       ?ExecuteDlgInit@CWnd@@QAAHPB_W@Z 00086ba0 f   uafxcw:wincore.obj
 0001:00075c0c       ?AfxRegisterClass@@YAHPAUtagWNDCLASSW@@@Z 00086c0c f   uafxcw:wincore.obj
 0001:00075cd8       ?AfxRegisterWndClass@@YAPB_WIPAUHICON__@@PAUHBRUSH__@@0@Z 00086cd8 f   uafxcw:wincore.obj
 0001:00075ddc       ?GetMessageMap@CWnd@@MBAPBUAFX_MSGMAP@@XZ 00086ddc f   uafxcw:wincore.obj
 0001:00075ddc       ?GetThisMessageMap@CWnd@@KAPBUAFX_MSGMAP@@XZ 00086ddc f   uafxcw:wincore.obj
 0001:00075de8       ?AfxEndDeferRegisterClass@@YAHJ@Z 00086de8 f   uafxcw:wincore.obj
 0001:000760ac       ?PreCreateWindow@CWnd@@UAAHAAUtagCREATESTRUCTW@@@Z 000870ac f   uafxcw:wincore.obj
 0001:000760e8       ?PreCreateWindowEx@@YAHAAUtagCREATESTRUCTW@@@Z 000870e8 f   uafxcw:wincore.obj
 0001:00076258       ?CreateEx@CWnd@@UAAHKPB_W0KHHHHPAUHWND__@@PAUHMENU__@@PAX@Z 00087258 f   uafxcw:wincore.obj
 0001:00076470       ?AfxDlgProc@@YAHPAUHWND__@@IIJ@Z 00087470 f   uafxcw:dlgcore.obj
 0001:000764d0       ??1CDialog@@UAA@XZ         000874d0 f   uafxcw:dlgcore.obj
 0001:00076534       ?OnPaint@CDialog@@IAAXXZ   00087534 f   uafxcw:dlgcore.obj
 0001:000765b0       ?GetDisplayMode@DRA@@YA?AW4DisplayMode@1@XZ 000875b0 f i uafxcw:dlgcore.obj
 0001:000765ec       ?SetOccDialogInfo@CDialog@@MAAHPAU_AFX_OCC_DIALOG_INFO@@@Z 000875ec f   uafxcw:dlgcore.obj
 0001:000765f8       ?GetOccDialogInfo@CDialog@@MAAPAU_AFX_OCC_DIALOG_INFO@@XZ 000875f8 f   uafxcw:dlgcore.obj
 0001:00076600       ?SHInitDialog@CDialog@@AAAXXZ 00087600 f   uafxcw:dlgcore.obj
 0001:0007664c       ?EndDialog@CDialog@@QAAXH@Z 0008764c f   uafxcw:dlgcore.obj
 0001:00076684       ?FixupDialogItem@DRA@@YAXPAUHINSTANCE__@@PAUHWND__@@PAUDLGITEMTEMPLATE@@PAG3@Z 00087684 f i uafxcw:dlgcore.obj
 0001:0007687c       ?OnOK@CDialog@@MAAXXZ      0008787c f   uafxcw:dlgcore.obj
 0001:000768a4       ?OnCancel@CDialog@@MAAXXZ  000878a4 f   uafxcw:dlgcore.obj
 0001:000768b8       ?RelayoutDialog@DRA@@YAHPAUHINSTANCE__@@PAUHWND__@@PB_W@Z 000878b8 f i uafxcw:dlgcore.obj
 0001:00076b6c       ?GetRuntimeClass@CDialog@@UBAPAUCRuntimeClass@@XZ 00087b6c f   uafxcw:dlgcore.obj
 0001:00076b78       ??_9CDialog@@$BNM@AA       00087b78 f i uafxcw:dlgcore.obj
 0001:00076b84       ??_9CDialog@@$BOA@AA       00087b84 f i uafxcw:dlgcore.obj
 0001:00076b90       ?SHHandleWMActivate@AYGSHELL@@YAHPAUHWND__@@IJPAUSHACTIVATEINFO@@K@Z 00087b90 f i uafxcw:dlgcore.obj
 0001:00076be4       ?_AfxSendDlgCreateMsg@@YAXPAUHWND__@@@Z 00087be4 f   uafxcw:dlgcore.obj
 0001:00076d38       ?AfxDlgProcEx@@YAHPAUHWND__@@IIJ@Z 00087d38 f   uafxcw:dlgcore.obj
 0001:00076e40       ?PreTranslateMessage@CDialog@@UAAHPAUtagMSG@@@Z 00087e40 f   uafxcw:dlgcore.obj
 0001:00076f00       ?OnCmdMsg@CDialog@@UAAHIHPAXPAUAFX_CMDHANDLERINFO@@@Z 00087f00 f   uafxcw:dlgcore.obj
 0001:00076fd4       ??_GCDialog@@UAAPAXI@Z     00087fd4 f i uafxcw:dlgcore.obj
 0001:00076fd4       ??_ECDialog@@UAAPAXI@Z     00087fd4 f i uafxcw:dlgcore.obj
 0001:00077004       ??0CDialog@@QAA@IPAVCWnd@@@Z 00088004 f   uafxcw:dlgcore.obj
 0001:00077088       ?PreModal@CDialog@@IAAPAUHWND__@@XZ 00088088 f   uafxcw:dlgcore.obj
 0001:000770d8       ?PostModal@CDialog@@IAAXXZ 000880d8 f   uafxcw:dlgcore.obj
 0001:0007712c       ?HandleSetFont@CDialog@@IAAJIJ@Z 0008812c f   uafxcw:dlgcore.obj
 0001:00077164       ?HandleInitDialog@CDialog@@IAAJIJ@Z 00088164 f   uafxcw:dlgcore.obj
 0001:00077240       ?AfxHelpEnabled@@YAHXZ     00088240 f   uafxcw:dlgcore.obj
 0001:000772f4       ?OnInitDialog@CDialog@@UAAHXZ 000882f4 f   uafxcw:dlgcore.obj
 0001:00077414       ?OnSize@CDialog@@IAAXIHH@Z 00088414 f   uafxcw:dlgcore.obj
 0001:00077464       ?CheckAutoCenter@CDialog@@UAAHXZ 00088464 f   uafxcw:dlgcore.obj
 0001:00077560       ?OnSettingChange@CDialog@@IAAXIPB_W@Z 00088560 f   uafxcw:dlgcore.obj
 0001:000775f8       ?OnActivate@CDialog@@IAAXIPAVCWnd@@H@Z 000885f8 f   uafxcw:dlgcore.obj
 0001:00077678       ?GetMessageMap@CDialog@@MBAPBUAFX_MSGMAP@@XZ 00088678 f   uafxcw:dlgcore.obj
 0001:00077678       ?GetThisMessageMap@CDialog@@KAPBUAFX_MSGMAP@@XZ 00088678 f   uafxcw:dlgcore.obj
 0001:0007768c       ?CreateDlgIndirect@CWnd@@IAAHPBUDLGTEMPLATE@@PAV1@PAUHINSTANCE__@@@Z 0008868c f   uafxcw:dlgcore.obj
 0001:000779cc       ?DoModal@CDialog@@UAAHXZ   000889cc f   uafxcw:dlgcore.obj
 0001:00077c64       ?CreateIndirect@CDialog@@IAAHPBUDLGTEMPLATE@@PAVCWnd@@PAXPAUHINSTANCE__@@@Z 00088c64 f   uafxcw:dlgcore.obj
 0001:00077cc0       ?CreateIndirect@CDialog@@UAAHPBUDLGTEMPLATE@@PAVCWnd@@PAX@Z 00088cc0 f   uafxcw:dlgcore.obj
 0001:00077ce0       ?Create@CDialog@@UAAHPB_WPAVCWnd@@@Z 00088ce0 f   uafxcw:dlgcore.obj
 0001:00077d60       ?CreateIndirect@CDialog@@UAAHPAXPAVCWnd@@@Z 00088d60 f   uafxcw:dlgcore.obj
 0001:00077d84       ?FillSolidRect@CDC@@QAAXPBUtagRECT@@K@Z 00088d84 f   uafxcw:wingdix.obj
 0001:00077df8       ?FillSolidRect@CDC@@QAAXHHHHK@Z 00088df8 f   uafxcw:wingdix.obj
 0001:00077e70       ?_AfxDispatchCmdMsg@@YAHPAVCCmdTarget@@IHP81@AAXXZPAXIPAUAFX_CMDHANDLERINFO@@@Z 00088e70 f   uafxcw:cmdtarg.obj
 0001:00078034       ?OnCmdMsg@CCmdTarget@@UAAHIHPAXPAUAFX_CMDHANDLERINFO@@@Z 00089034 f   uafxcw:cmdtarg.obj
 0001:00078144       ?GetTypeLib@CCmdTarget@@UAAJKPAPAUITypeLib@@@Z 00089144 f   uafxcw:cmdtarg.obj
 0001:00078150       ?GetMessageMap@CCmdTarget@@MBAPBUAFX_MSGMAP@@XZ 00089150 f   uafxcw:cmdtarg.obj
 0001:00078150       ?GetThisMessageMap@CCmdTarget@@KAPBUAFX_MSGMAP@@XZ 00089150 f   uafxcw:cmdtarg.obj
 0001:0007815c       ?GetDispatchMap@CCmdTarget@@MBAPBUAFX_DISPMAP@@XZ 0008915c f   uafxcw:cmdtarg.obj
 0001:00078168       ?GetEventSinkMap@CCmdTarget@@MBAPBUAFX_EVENTSINKMAP@@XZ 00089168 f   uafxcw:cmdtarg.obj
 0001:00078174       ?GetInterfaceMap@CCmdTarget@@MBAPBUAFX_INTERFACEMAP@@XZ 00089174 f   uafxcw:cmdtarg.obj
 0001:00078180       ?OnFinalRelease@CCmdTarget@@UAAXXZ 00089180 f   uafxcw:cmdtarg.obj
 0001:000781d4       ?IsFrameWnd@CFrameWnd@@UBAHXZ 000891d4 f   uafxcw:wincore.obj
 0001:000781d4       ?CheckAutoCenter@CWnd@@UAAHXZ 000891d4 f   uafxcw:wincore.obj
 0001:000781d4       ?OnCreateAggregates@CCmdTarget@@UAAHXZ 000891d4 f   uafxcw:cmdtarg.obj
 0001:000781d4       ?Register@CWinApp@@UAAHXZ  000891d4 f   uafxcw:appui2.obj
 0001:000781d4       ?IsInvokeAllowed@CCmdTarget@@UAAHJ@Z 000891d4 f   uafxcw:cmdtarg.obj
 0001:000781dc       ?GetConnectionMap@CCmdTarget@@MBAPBUAFX_CONNECTIONMAP@@XZ 000891dc f   uafxcw:cmdtarg.obj
 0001:000781e8       ??0CCmdUI@@QAA@XZ          000891e8 f   uafxcw:cmdtarg.obj
 0001:00078220       ?SetRadio@CCmdUI@@UAAXH@Z  00089220 f   uafxcw:cmdtarg.obj
 0001:000782ec       ?DoUpdate@CCmdUI@@QAAHPAVCCmdTarget@@H@Z 000892ec f   uafxcw:cmdtarg.obj
 0001:000783cc       ?ModifyMenuW@ATL@@YAHPAUHMENU__@@IIIPB_W@Z 000893cc f i uafxcw:cmdtarg.obj
 0001:000784b0       ??0CCmdTarget@@QAA@XZ      000894b0 f   uafxcw:cmdtarg.obj
 0001:000784ec       ??1CCmdTarget@@UAA@XZ      000894ec f   uafxcw:cmdtarg.obj
 0001:0007851c       ?Enable@CCmdUI@@UAAXH@Z    0008951c f   uafxcw:cmdtarg.obj
 0001:000785d8       ?SetCheck@CCmdUI@@UAAXH@Z  000895d8 f   uafxcw:cmdtarg.obj
 0001:00078678       ?SetText@CCmdUI@@UAAXPB_W@Z 00089678 f   uafxcw:cmdtarg.obj
 0001:00078714       ?AfxLoadString@@YAHIPA_WI@Z 00089714 f   uafxcw:winstr.obj
 0001:00078798       ?AfxFindStringResourceHandle@@YAPAUHINSTANCE__@@I@Z 00089798 f   uafxcw:winstr.obj
 0001:000787ac       ?AfxExtractSubString@@YAHAAV?$CStringT@_WV?$StrTraitMFC@_WV?$ChTraitsOS@_W@ATL@@@@@ATL@@PB_WH_W@Z 000897ac f   uafxcw:winstr.obj
 0001:00078894       ??1CListCtrl@@UAA@XZ       00089894 f   uafxcw:winctrl2.obj
 0001:000788e8       ?GetItemText@CListCtrl@@QBAHHHPA_WH@Z 000898e8 f   uafxcw:winctrl2.obj
 0001:00078944       ?OnChildNotify@CListCtrl@@MAAHIIJPAJ@Z 00089944 f   uafxcw:winctrl2.obj
 0001:0007898c       ?GetRuntimeClass@CListCtrl@@UBAPAUCRuntimeClass@@XZ 0008998c f   uafxcw:winctrl2.obj
 0001:00078998       ?GetRuntimeClass@CImageList@@UBAPAUCRuntimeClass@@XZ 00089998 f   uafxcw:winctrl2.obj
 0001:000789a4       ?GetProcAddress_ImageList_Create@CComCtlWrapper@@QAA?AUImageList_Create_Type@1@XZ 000899a4 f i uafxcw:winctrl2.obj
 0001:000789f4       ?_ImageList_Create@CComCtlWrapper@@QAAPAU_IMAGELIST@@HHIHH@Z 000899f4 f i uafxcw:winctrl2.obj
 0001:00078a50       ?GetProcAddress_ImageList_Destroy@CComCtlWrapper@@QAA?AUImageList_Destroy_Type@1@XZ 00089a50 f i uafxcw:winctrl2.obj
 0001:00078aa0       ?_ImageList_Destroy@CComCtlWrapper@@QAAHPAU_IMAGELIST@@@Z 00089aa0 f i uafxcw:winctrl2.obj
 0001:00078ae0       ??0CImageList@@QAA@XZ      00089ae0 f   uafxcw:winctrl2.obj
 0001:00078af8       ?CreateObject@CImageList@@SAPAVCObject@@XZ 00089af8 f   uafxcw:winctrl2.obj
 0001:00078b2c       ?Construct@?$ConstructDestruct@VCImageList@@@@SAXPAVCObject@@@Z 00089b2c f i uafxcw:winctrl2.obj
 0001:00078b50       ?afxMapHIMAGELIST@@YAPAVCHandleMap@@H@Z 00089b50 f   uafxcw:winctrl2.obj
 0001:00078c10       ?FromHandle@CImageList@@SAPAV1@PAU_IMAGELIST@@@Z 00089c10 f   uafxcw:winctrl2.obj
 0001:00078c30       ?Detach@CImageList@@QAAPAU_IMAGELIST@@XZ 00089c30 f   uafxcw:winctrl2.obj
 0001:00078c70       ?DeleteImageList@CImageList@@QAAHXZ 00089c70 f   uafxcw:winctrl2.obj
 0001:00078ca8       ?FromHandlePermanent@CImageList@@SAPAV1@PAU_IMAGELIST@@@Z 00089ca8 f   uafxcw:winctrl2.obj
 0001:00078cf4       ?RemoveImageList@CListCtrl@@IAAXH@Z 00089cf4 f   uafxcw:winctrl2.obj
 0001:00078d40       ?OnNcDestroy@CListCtrl@@IAAXXZ 00089d40 f   uafxcw:winctrl2.obj
 0001:00078d80       ??1CImageList@@UAA@XZ      00089d80 f   uafxcw:winctrl2.obj
 0001:00078ef4       ?Attach@CImageList@@QAAHPAU_IMAGELIST@@@Z 00089ef4 f   uafxcw:winctrl2.obj
 0001:00078f34       ??_ECImageList@@UAAPAXI@Z  00089f34 f i uafxcw:winctrl2.obj
 0001:00078f34       ??_GCImageList@@UAAPAXI@Z  00089f34 f i uafxcw:winctrl2.obj
 0001:00078f5c       ?Create@CImageList@@QAAHHHIHH@Z 00089f5c f   uafxcw:winctrl2.obj
 0001:00078fb4       ?GetMessageMap@CListCtrl@@MBAPBUAFX_MSGMAP@@XZ 00089fb4 f   uafxcw:winctrl2.obj
 0001:00078fc0       ?PrepareCtrl@CDataExchange@@QAAPAUHWND__@@H@Z 00089fc0 f   uafxcw:dlgdata.obj
 0001:0007901c       ?DDX_Control@@YAXPAVCDataExchange@@HAAVCWnd@@@Z 0008a01c f   uafxcw:dlgdata.obj
 0001:000790e4       ??1?$CThreadLocal@VAFX_MODULE_THREAD_STATE@@@@QAA@XZ 0008a0e4 f i uafxcw:afxstate.obj
 0001:000790f4       ?Unlock@CTypeLibCache@@QAAXXZ 0008a0f4 f   uafxcw:afxstate.obj
 0001:00079158       ?AfxGetPerUserRegistration@@YAHXZ 0008a158 f   uafxcw:afxstate.obj
 0001:00079168       ?GetNextAssoc@?$CMap@PAXPAXPAXPAX@@QBAXAAPAU__POSITION@@AAPAX1@Z 0008a168 f i uafxcw:afxstate.obj
 0001:00079248       ?RemoveAll@?$CList@PAXPAX@@QAAXXZ 0008a248 f i uafxcw:afxstate.obj
 0001:0007928c       ??0_AFX_THREAD_STATE@@QAA@XZ 0008a28c f   uafxcw:afxstate.obj
 0001:000792c0       ??0_AFX_AYGSHELL_STATE@@QAA@XZ 0008a2c0 f   uafxcw:afxstate.obj
 0001:0007959c       ??1_AFX_AYGSHELL_STATE@@UAA@XZ 0008a59c f   uafxcw:afxstate.obj
 0001:000795d4       ??_G_AFX_THREAD_STATE@@UAAPAXI@Z 0008a5d4 f i uafxcw:afxstate.obj
 0001:000795d4       ??_E_AFX_THREAD_STATE@@UAAPAXI@Z 0008a5d4 f i uafxcw:afxstate.obj
 0001:00079614       ??_G_AFX_AYGSHELL_STATE@@UAAPAXI@Z 0008a614 f i uafxcw:afxstate.obj
 0001:00079614       ??_E_AFX_AYGSHELL_STATE@@UAAPAXI@Z 0008a614 f i uafxcw:afxstate.obj
 0001:000796b0       ?_AfxGetAygshellState@@YAABU_AFX_AYGSHELL_STATE@@XZ 0008a6b0 f   uafxcw:afxstate.obj
 0001:000796c0       ?AfxIsAygshellSupported@@YAHXZ 0008a6c0 f   uafxcw:afxstate.obj
 0001:000796e4       ?AfxGetAygshellUIModel@@YAHXZ 0008a6e4 f   uafxcw:afxstate.obj
 0001:000796f8       ?AfxIsDRAEnabled@@YAHXZ    0008a6f8 f   uafxcw:afxstate.obj
 0001:0007970c       ?CreateObject@?$CThreadLocal@VAFX_MODULE_THREAD_STATE@@@@SAPAVCNoTrackObject@@XZ 0008a70c f i uafxcw:afxstate.obj
 0001:00079764       ?RemoveHead@?$CList@PAXPAX@@QAAPAXXZ 0008a764 f i uafxcw:afxstate.obj
 0001:000797b4       ?AfxGetThreadState@@YAPAV_AFX_THREAD_STATE@@XZ 0008a7b4 f   uafxcw:afxstate.obj
 0001:000797e8       ??1AFX_MODULE_STATE@@UAA@XZ 0008a7e8 f   uafxcw:afxstate.obj
 0001:000798dc       ??1AFX_MODULE_THREAD_STATE@@UAA@XZ 0008a8dc f   uafxcw:afxstate.obj
 0001:00079a04       ??1CDllIsolationWrapperBase@@UAA@XZ 0008aa04 f i uafxcw:afxstate.obj
 0001:00079a6c       ??_EAFX_MODULE_STATE@@UAAPAXI@Z 0008aa6c f i uafxcw:afxstate.obj
 0001:00079a6c       ??_GAFX_MODULE_STATE@@UAAPAXI@Z 0008aa6c f i uafxcw:afxstate.obj
 0001:00079a6c       ??_E_AFX_BASE_MODULE_STATE@@UAAPAXI@Z 0008aa6c f i uafxcw:afxstate.obj
 0001:00079a6c       ??_G_AFX_BASE_MODULE_STATE@@UAAPAXI@Z 0008aa6c f i uafxcw:afxstate.obj
 0001:00079a94       ??_GAFX_MODULE_THREAD_STATE@@UAAPAXI@Z 0008aa94 f i uafxcw:afxstate.obj
 0001:00079a94       ??_EAFX_MODULE_THREAD_STATE@@UAAPAXI@Z 0008aa94 f i uafxcw:afxstate.obj
 0001:00079abc       ??0CDllIsolationWrapperBase@@QAA@ABV?$CStringT@_WV?$StrTraitMFC@_WV?$ChTraitsOS@_W@ATL@@@@@ATL@@@Z 0008aabc f i uafxcw:afxstate.obj
 0001:00079b0c       ??0CComCtlWrapper@@QAA@XZ  0008ab0c f i uafxcw:afxstate.obj
 0001:00079c4c       ??_GCDllIsolationWrapperBase@@UAAPAXI@Z 0008ac4c f i uafxcw:afxstate.obj
 0001:00079c4c       ??_GCComCtlWrapper@@UAAPAXI@Z 0008ac4c f i uafxcw:afxstate.obj
 0001:00079c4c       ??_ECComCtlWrapper@@UAAPAXI@Z 0008ac4c f i uafxcw:afxstate.obj
 0001:00079c4c       ??_ECDllIsolationWrapperBase@@UAAPAXI@Z 0008ac4c f i uafxcw:afxstate.obj
 0001:00079c7c       ??0AFX_MODULE_STATE@@QAA@H@Z 0008ac7c f   uafxcw:afxstate.obj
 0001:00079e08       ?CreateObject@?$CProcessLocal@V_AFX_BASE_MODULE_STATE@@@@SAPAVCNoTrackObject@@XZ 0008ae08 f i uafxcw:afxstate.obj
 0001:00079e6c       ?AfxGetModuleState@@YAPAVAFX_MODULE_STATE@@XZ 0008ae6c f   uafxcw:afxstate.obj
 0001:00079ed4       ?AfxGetModuleThreadState@@YAPAVAFX_MODULE_THREAD_STATE@@XZ 0008aed4 f   uafxcw:afxstate.obj
 0001:00079f00       ?GetRuntimeClass@CFile@@UBAPAUCRuntimeClass@@XZ 0008af00 f   uafxcw:filecore.obj
 0001:00079f0c       ?FindFilePart@ATL@@YAPB_WPB_WAAPB_W@Z 0008af0c f i uafxcw:filecore.obj
 0001:00079f84       ?GetFullPathNameW@ATL@@YAKPB_WKPA_WPAPA_W@Z 0008af84 f i uafxcw:filecore.obj
 0001:0007a030       ?GetFileTitleW@ATL@@YAFPB_WPA_WG@Z 0008b030 f i uafxcw:filecore.obj
 0001:0007a0c0       ?Read@CFile@@UAAIPAXI@Z    0008b0c0 f   uafxcw:filecore.obj
 0001:0007a114       ?Write@CFile@@UAAXPBXI@Z   0008b114 f   uafxcw:filecore.obj
 0001:0007a180       ?Seek@CFile@@UAA_K_JI@Z    0008b180 f   uafxcw:filecore.obj
 0001:0007a1e0       ?GetPosition@CFile@@UBA_KXZ 0008b1e0 f   uafxcw:filecore.obj
 0001:0007a244       ?Flush@CFile@@UAAXXZ       0008b244 f   uafxcw:filecore.obj
 0001:0007a27c       ?SetLength@CFile@@UAAX_K@Z 0008b27c f   uafxcw:filecore.obj
 0001:0007a2c0       ?GetLength@CFile@@UBA_KXZ  0008b2c0 f   uafxcw:filecore.obj
 0001:0007a31c       ?AfxGetFileTitle@@YAIPB_WPA_WI@Z 0008b31c f   uafxcw:filecore.obj
 0001:0007a3c8       ?Close@CFile@@UAAXXZ       0008b3c8 f   uafxcw:filecore.obj
 0001:0007a428       ?Abort@CFile@@UAAXXZ       0008b428 f   uafxcw:filecore.obj
 0001:0007a458       ??0CFile@@QAA@XZ           0008b458 f   uafxcw:filecore.obj
 0001:0007a49c       ??0CFile@@QAA@PAX@Z        0008b49c f   uafxcw:filecore.obj
 0001:0007a4e0       ??1CFileException@@UAA@XZ  0008b4e0 f i uafxcw:filecore.obj
 0001:0007a528       ?AfxGetRoot@@YAXPB_WAAV?$CStringT@_WV?$StrTraitMFC@_WV?$ChTraitsOS@_W@ATL@@@@@ATL@@@Z 0008b528 f   uafxcw:filecore.obj
 0001:0007a5b4       ??_ECFileException@@UAAPAXI@Z 0008b5b4 f i uafxcw:filecore.obj
 0001:0007a5b4       ??_GCFileException@@UAAPAXI@Z 0008b5b4 f i uafxcw:filecore.obj
 0001:0007a5e4       ??1CFile@@UAA@XZ           0008b5e4 f   uafxcw:filecore.obj
 0001:0007a7d8       ??_GCFile@@UAAPAXI@Z       0008b7d8 f i uafxcw:filecore.obj
 0001:0007a7d8       ??_ECFile@@UAAPAXI@Z       0008b7d8 f i uafxcw:filecore.obj
 0001:0007a800       ?_AfxFillExceptionInfo@@YAXPAVCFileException@@PB_W@Z 0008b800 f   uafxcw:filecore.obj
 0001:0007a854       ?_AfxFullPath2@@YAHPA_WPB_WPAVCFileException@@@Z 0008b854 f   uafxcw:filecore.obj
 0001:0007a96c       ?AfxFullPath@@YAHPA_WPB_W@Z 0008b96c f   uafxcw:filecore.obj
 0001:0007a988       ??0CFileException@@QAA@HJPB_W@Z 0008b988 f i uafxcw:filecore.obj
 0001:0007aa24       ?SetFilePath@CFile@@UAAXPB_W@Z 0008ba24 f i uafxcw:filecore.obj
 0001:0007aa60       ?Open@CFile@@UAAHPB_WIPAVCFileException@@@Z 0008ba60 f   uafxcw:filecore.obj
 0001:0007ac60       ?IsValidFILETIME@CTime@ATL@@SAHABU_FILETIME@@@Z 0008bc60 f i uafxcw:filest.obj
 0001:0007aca4       ??0CTime@ATL@@QAA@HHHHHHH@Z 0008bca4 f i uafxcw:filest.obj
 0001:0007adac       ??0CTime@ATL@@QAA@ABU_SYSTEMTIME@@H@Z 0008bdac f i uafxcw:filest.obj
 0001:0007ae2c       ??0CTime@ATL@@QAA@ABU_FILETIME@@H@Z 0008be2c f i uafxcw:filest.obj
 0001:0007aecc       ?GetStatus@CFile@@SAHPB_WAAUCFileStatus@@@Z 0008becc f   uafxcw:filest.obj
 0001:0007b080       ?GetStatus@CFile@@QBAHAAUCFileStatus@@@Z 0008c080 f   uafxcw:filest.obj
 0001:0007b258       ?GetFileName@CFile@@UBA?AV?$CStringT@_WV?$StrTraitMFC@_WV?$ChTraitsOS@_W@ATL@@@@@ATL@@XZ 0008c258 f   uafxcw:filest.obj
 0001:0007b388       ?GetFileTitleW@CFile@@UBA?AV?$CStringT@_WV?$StrTraitMFC@_WV?$ChTraitsOS@_W@ATL@@@@@ATL@@XZ 0008c388 f   uafxcw:filest.obj
 0001:0007b4b8       ?GetFilePath@CFile@@UBA?AV?$CStringT@_WV?$StrTraitMFC@_WV?$ChTraitsOS@_W@ATL@@@@@ATL@@XZ 0008c4b8 f   uafxcw:filest.obj
 0001:0007b530       ?Read@CArchive@@QAAIPAXI@Z 0008c530 f   uafxcw:arccore.obj
 0001:0007b714       ?Flush@CArchive@@QAAXXZ    0008c714 f   uafxcw:arccore.obj
 0001:0007b810       ?FillBuffer@CArchive@@QAAXI@Z 0008c810 f   uafxcw:arccore.obj
 0001:0007b97c       ??6CArchive@@QAAAAV0@G@Z   0008c97c f i uafxcw:arccore.obj
 0001:0007b9e0       ??6CArchive@@QAAAAV0@K@Z   0008c9e0 f i uafxcw:arccore.obj
 0001:0007ba54       ??5CArchive@@QAAAAV0@AAG@Z 0008ca54 f i uafxcw:arccore.obj
 0001:0007bac4       ??5CArchive@@QAAAAV0@AAK@Z 0008cac4 f i uafxcw:arccore.obj
 0001:0007bb44       ?Write@CArchive@@QAAXPBXI@Z 0008cb44 f   uafxcw:arccore.obj
 0001:0007bc98       ?WriteCount@CArchive@@QAAXK@Z 0008cc98 f   uafxcw:arccore.obj
 0001:0007bce0       ?ReadCount@CArchive@@QAAKXZ 0008cce0 f   uafxcw:arccore.obj
 0001:0007bd24       ?Create@CPlex@@SAPAU1@AAPAU1@II@Z 0008cd24 f   uafxcw:plex.obj
 0001:0007bd60       ?FreeDataChain@CPlex@@QAAXXZ 0008cd60 f   uafxcw:plex.obj
 0001:0007bd88       ?GetRuntimeClass@CArchiveException@@UBAPAUCRuntimeClass@@XZ 0008cd88 f   uafxcw:arcex.obj
 0001:0007bd9c       ?GetErrorMessage@CArchiveException@@UBAHPA_WIPAI@Z 0008cd9c f   uafxcw:arcex.obj
 0001:0007bf10       ??0CArchiveException@@QAA@HPB_W@Z 0008cf10 f i uafxcw:arcex.obj
 0001:0007bfa4       ??1CArchiveException@@UAA@XZ 0008cfa4 f i uafxcw:arcex.obj
 0001:0007bfec       ??_GCArchiveException@@UAAPAXI@Z 0008cfec f i uafxcw:arcex.obj
 0001:0007bfec       ??_ECArchiveException@@UAAPAXI@Z 0008cfec f i uafxcw:arcex.obj
 0001:0007c01c       ?AfxThrowArchiveException@@YAXHPB_W@Z 0008d01c f   uafxcw:arcex.obj
 0001:0007c084       ?GetRuntimeClass@CObject@@UBAPAUCRuntimeClass@@XZ 0008d084 f   uafxcw:objcore.obj
 0001:0007c098       ?CreateObject@CRuntimeClass@@QAAPAVCObject@@XZ 0008d098 f   uafxcw:objcore.obj
 0001:0007c10c       ?IsDerivedFrom@CRuntimeClass@@QBAHPBU1@@Z 0008d10c f   uafxcw:objcore.obj
 0001:0007c154       ?IsKindOf@CObject@@QBAHPBUCRuntimeClass@@@Z 0008d154 f   uafxcw:objcore.obj
 0001:0007c194       ?AfxDynamicDownCast@@YAPAVCObject@@PAUCRuntimeClass@@PAV1@@Z 0008d194 f   uafxcw:objcore.obj
 0001:0007c1c4       ?Create@CButton@@UAAHPB_WKABUtagRECT@@PAVCWnd@@I@Z 0008d1c4 f   uafxcw:winctrl1.obj
 0001:0007c220       ??1CButton@@UAA@XZ         0008d220 f   uafxcw:winctrl1.obj
 0001:0007c274       ?OnChildNotify@CButton@@MAAHIIJPAJ@Z 0008d274 f   uafxcw:winctrl1.obj
 0001:0007c2bc       ?GetRuntimeClass@CButton@@UBAPAUCRuntimeClass@@XZ 0008d2bc f   uafxcw:winctrl1.obj
 0001:0007c2c8       ?_LoadSysPolicies@CWinApp@@IAAHXZ 0008d2c8 f   uafxcw:appcore.obj
 0001:0007c3ec       ?InitApplication@CWinApp@@UAAHXZ 0008d3ec f   uafxcw:appcore.obj
 0001:0007c470       ?ExitInstance@CWinApp@@UAAHXZ 0008d470 f   uafxcw:appcore.obj
 0001:0007c500       ?AfxPostQuitMessage@@YAXH@Z 0008d500 f   uafxcw:appcore.obj
 0001:0007c538       ?ProcessWndProcException@CWinApp@@UAAJPAVCException@@PBUtagMSG@@@Z 0008d538 f   uafxcw:appcore.obj
 0001:0007c61c       ?OnIdle@CWinApp@@UAAHJ@Z   0008d61c f   uafxcw:appcore.obj
 0001:0007c6d0       ?GetRuntimeClass@CWinApp@@UBAPAUCRuntimeClass@@XZ 0008d6d0 f   uafxcw:appcore.obj
 0001:0007c6dc       ?PathFindExtensionW@ATL@@YAPA_WPB_W@Z 0008d6dc f i uafxcw:appcore.obj
 0001:0007c770       ?GetThisMessageMap@CWinApp@@KAPBUAFX_MSGMAP@@XZ 0008d770 f   uafxcw:appcore.obj
 0001:0007c770       ?GetMessageMap@CWinApp@@MBAPBUAFX_MSGMAP@@XZ 0008d770 f   uafxcw:appcore.obj
 0001:0007c784       ?AfxLoadLangResourceDLL@@YAPAUHINSTANCE__@@PB_W0@Z 0008d784 f   uafxcw:appcore.obj
 0001:0007c948       ?LoadSysPolicies@CWinApp@@UAAHXZ 0008d948 f   uafxcw:appcore.obj
 0001:0007c958       ?InitInstance@CWinApp@@UAAHXZ 0008d958 f   uafxcw:appcore.obj
 0001:0007c9c0       ?LoadAppLangResourceDLL@CWinApp@@UAAPAUHINSTANCE__@@XZ 0008d9c0 f   uafxcw:appcore.obj
 0001:0007ca58       ?Run@CWinApp@@UAAHXZ       0008da58 f   uafxcw:appcore.obj
 0001:0007ca94       ??0CWinApp@@QAA@PB_W@Z     0008da94 f   uafxcw:appcore.obj
 0001:0007cb98       ??1CWinApp@@UAA@XZ         0008db98 f   uafxcw:appcore.obj
 0001:0007ce7c       ??_GCWinApp@@UAAPAXI@Z     0008de7c f i uafxcw:appcore.obj
 0001:0007ce7c       ??_ECWinApp@@UAAPAXI@Z     0008de7c f i uafxcw:appcore.obj
 0001:0007cea4       ?SetRegistryKey@CWinApp@@IAAXPB_W@Z 0008dea4 f   uafxcw:appui3.obj
 0001:0007cee4       ?AfxGetThread@@YAPAVCWinThread@@XZ 0008dee4 f   uafxcw:thrdcore.obj
 0001:0007cef8       ?AfxGetCurrentMessage@@YAPAUtagMSG@@XZ 0008def8 f   uafxcw:thrdcore.obj
 0001:0007cf0c       ?AfxInternalProcessWndProcException@@YAJPAVCException@@PBUtagMSG@@@Z 0008df0c f   uafxcw:thrdcore.obj
 0001:0007cf40       ?AfxProcessWndProcException@@YAJPAVCException@@PBUtagMSG@@@Z 0008df40 f   uafxcw:thrdcore.obj
 0001:0007cf90       ?AfxIsIdleMessage@@YAHPAUtagMSG@@@Z 0008df90 f   uafxcw:thrdcore.obj
 0001:0007cfe4       ?AfxInitThread@@YAXXZ      0008dfe4 f   uafxcw:thrdcore.obj
 0001:0007cff4       ?CommonConstruct@CWinThread@@QAAXXZ 0008dff4 f   uafxcw:thrdcore.obj
 0001:0007d044       ??1CWinThread@@UAA@XZ      0008e044 f   uafxcw:thrdcore.obj
 0001:0007d0b8       ?Delete@CWinThread@@UAAXXZ 0008e0b8 f   uafxcw:thrdcore.obj
 0001:0007d0e0       ?Run@CWinThread@@UAAHXZ    0008e0e0 f   uafxcw:thrdcore.obj
 0001:0007d1cc       ?IsIdleMessage@CWinThread@@UAAHPAUtagMSG@@@Z 0008e1cc f   uafxcw:thrdcore.obj
 0001:0007d1e4       ?ExitInstance@CWinThread@@UAAHXZ 0008e1e4 f   uafxcw:thrdcore.obj
 0001:0007d1f8       ?DispatchThreadMessageEx@CWinThread@@IAAHPAUtagMSG@@@Z 0008e1f8 f   uafxcw:thrdcore.obj
 0001:0007d2b8       ?ProcessWndProcException@CWinThread@@UAAJPAVCException@@PBUtagMSG@@@Z 0008e2b8 f   uafxcw:thrdcore.obj
 0001:0007d2d0       ?GetRuntimeClass@CWinThread@@UBAPAUCRuntimeClass@@XZ 0008e2d0 f   uafxcw:thrdcore.obj
 0001:0007d2dc       ?AfxInternalPreTranslateMessage@@YAHPAUtagMSG@@@Z 0008e2dc f   uafxcw:thrdcore.obj
 0001:0007d384       ?AfxPreTranslateMessage@@YAHPAUtagMSG@@@Z 0008e384 f   uafxcw:thrdcore.obj
 0001:0007d3c8       ??_GCWinThread@@UAAPAXI@Z  0008e3c8 f i uafxcw:thrdcore.obj
 0001:0007d3c8       ??_ECWinThread@@UAAPAXI@Z  0008e3c8 f i uafxcw:thrdcore.obj
 0001:0007d3f8       ??0CWinThread@@QAA@XZ      0008e3f8 f   uafxcw:thrdcore.obj
 0001:0007d45c       ?PreTranslateMessage@CWinThread@@UAAHPAUtagMSG@@@Z 0008e45c f   uafxcw:thrdcore.obj
 0001:0007d470       ?GetMainWnd@CWinThread@@UAAPAVCWnd@@XZ 0008e470 f   uafxcw:thrdcore.obj
 0001:0007d4ac       ?AfxInternalPumpMessage@@YAHXZ 0008e4ac f   uafxcw:thrdcore.obj
 0001:0007d51c       ?AfxPumpMessage@@YAHXZ     0008e51c f   uafxcw:thrdcore.obj
 0001:0007d554       ?PumpMessage@CWinThread@@UAAHXZ 0008e554 f   uafxcw:thrdcore.obj
 0001:0007d564       ?OnIdle@CWinThread@@UAAHJ@Z 0008e564 f   uafxcw:thrdcore.obj
 0001:0007d6f8       ?GetFirstDocTemplatePosition@CWinApp@@QBAPAU__POSITION@@XZ 0008e6f8 f   uafxcw:appui2.obj
 0001:0007d734       ?AfxDelRegTreeHelper@@YAJPAUHKEY__@@ABV?$CStringT@_WV?$StrTraitMFC@_WV?$ChTraitsOS@_W@ATL@@@@@ATL@@@Z 0008e734 f   uafxcw:appui2.obj
 0001:0007d9a8       ?Unregister@CWinApp@@UAAHXZ 0008e9a8 f   uafxcw:appui2.obj
 0001:0007dc14       ?HideApplication@CWinApp@@QAAXXZ 0008ec14 f   uafxcw:appui.obj
 0001:0007dc64       ?DoWaitCursor@CWinApp@@UAAXH@Z 0008ec64 f   uafxcw:appui.obj
 0001:0007dd00       ?SaveAllModified@CWinApp@@UAAHXZ 0008ed00 f   uafxcw:appui.obj
 0001:0007dd38       ?AddToRecentFileList@CWinApp@@UAAXPB_W@Z 0008ed38 f   uafxcw:appui.obj
 0001:0007dd6c       ?OpenDocumentFile@CWinApp@@UAAPAVCDocument@@PB_W@Z 0008ed6c f   uafxcw:appui.obj
 0001:0007dd9c       ?CloseAllDocuments@CWinApp@@QAAXH@Z 0008ed9c f   uafxcw:appui.obj
 0001:0007ddc4       ?OnUpdateRecentFileMenu@CWinApp@@IAAXPAVCCmdUI@@@Z 0008edc4 f   uafxcw:appui.obj
 0001:0007de20       ?OnAppExit@CWinApp@@IAAXXZ 0008ee20 f   uafxcw:appui.obj
 0001:0007de44       ?OnOpenRecentFile@CWinApp@@IAAHI@Z 0008ee44 f   uafxcw:appui.obj
 0001:0007dee4       ?UpdateSysColors@AUX_DATA@@QAAXXZ 0008eee4 f   uafxcw:auxdata.obj
 0001:0007df60       ?UpdateSysMetrics@AUX_DATA@@QAAXXZ 0008ef60 f   uafxcw:auxdata.obj
 0001:0007dff4       ??0AUX_DATA@@QAA@XZ        0008eff4 f   uafxcw:auxdata.obj
 0001:0007e060       ??1AUX_DATA@@QAA@XZ        0008f060 f   uafxcw:auxdata.obj
 0001:0007e1c8       ??2CNoTrackObject@@SAPAXI@Z 0008f1c8 f   uafxcw:afxtls.obj
 0001:0007e1ec       ??3CNoTrackObject@@SAXPAX@Z 0008f1ec f   uafxcw:afxtls.obj
 0001:0007e200       ?GetThreadValue@CThreadSlotData@@QAAPAXH@Z 0008f200 f i uafxcw:afxtls.obj
 0001:0007e270       ?GetDataNA@CThreadLocalObject@@QAAPAVCNoTrackObject@@XZ 0008f270 f   uafxcw:afxtls.obj
 0001:0007e2b4       ?GetData@CProcessLocalObject@@QAAPAVCNoTrackObject@@P6APAV2@XZ@Z 0008f2b4 f   uafxcw:afxtls.obj
 0001:0007e330       ??1CProcessLocalObject@@QAA@XZ 0008f330 f   uafxcw:afxtls.obj
 0001:0007e37c       ?AddHead@CSimpleList@@QAAXPAX@Z 0008f37c f   uafxcw:afxtls.obj
 0001:0007e3a4       ?Remove@CSimpleList@@QAAHPAX@Z 0008f3a4 f   uafxcw:afxtls.obj
 0001:0007e430       ?AllocSlot@CThreadSlotData@@QAAHXZ 0008f430 f   uafxcw:afxtls.obj
 0001:0007e574       ??0CThreadSlotData@@QAA@XZ 0008f574 f   uafxcw:afxtls.obj
 0001:0007e5d8       ?FreeSlot@CThreadSlotData@@QAAXH@Z 0008f5d8 f   uafxcw:afxtls.obj
 0001:0007e678       ?SetValue@CThreadSlotData@@QAAXHPAX@Z 0008f678 f   uafxcw:afxtls.obj
 0001:0007e838       ??_GCThreadData@@UAAPAXI@Z 0008f838 f i uafxcw:afxtls.obj
 0001:0007e838       ??_ECThreadData@@UAAPAXI@Z 0008f838 f i uafxcw:afxtls.obj
 0001:0007e858       ?DeleteValues@CThreadSlotData@@QAAXPAUCThreadData@@PAUHINSTANCE__@@@Z 0008f858 f   uafxcw:afxtls.obj
 0001:0007e944       ?DeleteValues@CThreadSlotData@@QAAXPAUHINSTANCE__@@H@Z 0008f944 f   uafxcw:afxtls.obj
 0001:0007e9c8       ?GetData@CThreadLocalObject@@QAAPAVCNoTrackObject@@P6APAV2@XZ@Z 0008f9c8 f   uafxcw:afxtls.obj
 0001:0007ea94       ??1CThreadLocalObject@@QAA@XZ 0008fa94 f   uafxcw:afxtls.obj
 0001:0007eac8       ?AfxTermLocalData@@YAXPAUHINSTANCE__@@H@Z 0008fac8 f   uafxcw:afxtls.obj
 0001:0007eaf4       ??1CThreadSlotData@@QAA@XZ 0008faf4 f   uafxcw:afxtls.obj
 0001:0007eb54       ?AfxTlsRelease@@YAXXZ      0008fb54 f   uafxcw:afxtls.obj
 0001:0007eba0       ?AfxIsValidString@@YAHPB_WH@Z 0008fba0 f   uafxcw:validadd.obj
 0001:0007ebb8       ??0?$CStringT@_WV?$StrTraitMFC@_WV?$ChTraitsOS@_W@ATL@@@@@ATL@@QAA@PB_WPAUIAtlStringMgr@1@@Z 0008fbb8 f i uafxcw:olevar.obj
 0001:0007ec38       ?AfxLockTempMaps@@YAXXZ    0008fc38 f   uafxcw:winhand.obj
 0001:0007ec54       ?DeleteTemp@CHandleMap@@QAAXXZ 0008fc54 f   uafxcw:winhand.obj
 0001:0007ecdc       ??1?$CMap@PAXPAXPAXPAX@@UAA@XZ 0008fcdc f i uafxcw:winhand.obj
 0001:0007ecfc       ??_G?$CMap@PAXPAXPAXPAX@@UAAPAXI@Z 0008fcfc f i uafxcw:winhand.obj
 0001:0007ecfc       ??_E?$CMap@PAXPAXPAXPAX@@UAAPAXI@Z 0008fcfc f i uafxcw:winhand.obj
 0001:0007ed30       ?AfxUnlockTempMaps@@YAHH@Z 0008fd30 f   uafxcw:winhand.obj
 0001:0007ee7c       ??0CHandleMap@@QAA@PAUCRuntimeClass@@P6AXPAVCObject@@@Z2IH@Z 0008fe7c f   uafxcw:winhand.obj
 0001:0007efcc       ??1CHandleMap@@UAA@XZ      0008ffcc f i uafxcw:winhand.obj
 0001:0007f07c       ??_GCHandleMap@@UAAPAXI@Z  0009007c f i uafxcw:winhand.obj
 0001:0007f07c       ??_ECHandleMap@@UAAPAXI@Z  0009007c f i uafxcw:winhand.obj
 0001:0007f0ac       ?FromHandle@CHandleMap@@QAAPAVCObject@@PAX@Z 000900ac f   uafxcw:winhand.obj
 0001:0007f1b0       ?Serialize@?$CMap@PAXPAXPAXPAX@@UAAXAAVCArchive@@@Z 000901b0 f i uafxcw:winhand.obj
 0001:0007f298       ?AfxNewHandler@@YAHI@Z     00090298 f   uafxcw:afxmem.obj
 0001:0007f2a0       ?AfxSetNewHandler@@YAP6AHI@ZP6AHI@Z@Z 000902a0 f   uafxcw:afxmem.obj
 0001:0007f2b8       ?AfxDeleteObject@@YAXPAPAX@Z 000902b8 f   uafxcw:winutil.obj
 0001:0007f2ec       ?AfxCriticalNewHandler@@YAHI@Z 000902ec f   uafxcw:winutil.obj
 0001:0007f354       ?AfxInvariantStrICmp@@YAHPB_W0@Z 00090354 f i uafxcw:winutil.obj
 0001:0007f39c       ?_AfxIsComboBoxControl@@YAHPAUHWND__@@I@Z 0009039c f   uafxcw:winutil.obj
 0001:0007f434       ?_AfxCompareClassName@@YAHPAUHWND__@@PB_W@Z 00090434 f   uafxcw:winutil.obj
 0001:0007f494       ?AfxSetWindowText@@YAXPAUHWND__@@PB_W@Z 00090494 f   uafxcw:winutil.obj
 0001:0007f544       ?AfxCancelModes@@YAXPAUHWND__@@@Z 00090544 f   uafxcw:winutil.obj
 0001:0007f5e4       ?GetRuntimeClass@CMenu@@UBAPAUCRuntimeClass@@XZ 000905e4 f   uafxcw:winmenu.obj
 0001:0007f5f0       ?CreateObject@CMenu@@SAPAVCObject@@XZ 000905f0 f   uafxcw:winmenu.obj
 0001:0007f624       ?Construct@?$ConstructDestruct@VCMenu@@@@SAXPAVCObject@@@Z 00090624 f i uafxcw:winmenu.obj
 0001:0007f648       ?afxMapHMENU@@YAPAVCHandleMap@@H@Z 00090648 f   uafxcw:winmenu.obj
 0001:0007f708       ?FromHandle@CMenu@@SAPAV1@PAUHMENU__@@@Z 00090708 f   uafxcw:winmenu.obj
 0001:0007f728       ?Detach@CMenu@@QAAPAUHMENU__@@XZ 00090728 f   uafxcw:winmenu.obj
 0001:0007f768       ?FromHandlePermanent@CMenu@@SAPAV1@PAUHMENU__@@@Z 00090768 f   uafxcw:winmenu.obj
 0001:0007f7b4       ??_ECMenu@@UAAPAXI@Z       000907b4 f i uafxcw:winmenu.obj
 0001:0007f7b4       ??_GCMenu@@UAAPAXI@Z       000907b4 f i uafxcw:winmenu.obj
 0001:0007f7f8       ?AfxCriticalInit@@YAHXZ    000907f8 f   uafxcw:afxcrit.obj
 0001:0007f830       ?AfxCriticalTerm@@YAXXZ    00090830 f   uafxcw:afxcrit.obj
 0001:0007f8a8       ?AfxLockGlobals@@YAXH@Z    000908a8 f   uafxcw:afxcrit.obj
 0001:0007f938       ?AfxUnlockGlobals@@YAXH@Z  00090938 f   uafxcw:afxcrit.obj
 0001:0007f964       ?AfxOleCanExitApp@@YAHXZ   00090964 f   uafxcw:olelock.obj
 0001:0007f988       ?AfxOleSetUserCtrl@@YAXH@Z 00090988 f   uafxcw:olelock.obj
 0001:0007f9a0       ?AfxOleGetUserCtrl@@YAHXZ  000909a0 f   uafxcw:olelock.obj
 0001:0007f9b4       ?GetDefaultAccelerator@CFrameWnd@@UAAPAUHACCEL__@@XZ 000909b4 f   uafxcw:winfrm.obj
 0001:0007f9fc       ?PreTranslateMessage@CFrameWnd@@UAAHPAUtagMSG@@@Z 000909fc f   uafxcw:winfrm.obj
 0001:0007fa98       ?PostNcDestroy@CFrameWnd@@MAAXXZ 00090a98 f   uafxcw:winfrm.obj
 0001:0007fabc       ?OnCommand@CFrameWnd@@MAAHIJ@Z 00090abc f   uafxcw:winfrm.obj
 0001:0007faf4       ?AfxIsDescendant@@YAHPAUHWND__@@0@Z 00090af4 f   uafxcw:winfrm.obj
 0001:0007fb2c       ?EndModalState@CFrameWnd@@UAAXXZ 00090b2c f   uafxcw:winfrm.obj
 0001:0007fbbc       ?PreCreateWindow@CFrameWnd@@MAAHAAUtagCREATESTRUCTW@@@Z 00090bbc f   uafxcw:winfrm.obj
 0001:0007fc00       ?OnOK@CFrameWnd@@IAAXXZ    00090c00 f   uafxcw:winfrm.obj
 0001:0007fc98       ?OnSetFocus@CFrameWnd@@IAAXPAVCWnd@@@Z 00090c98 f   uafxcw:winfrm.obj
 0001:0007fcc4       ?DelayUpdateFrameMenu@CFrameWnd@@UAAXPAUHMENU__@@@Z 00090cc4 f   uafxcw:winfrm.obj
 0001:0007fcd8       ?BringToTop@CFrameWnd@@IAAXH@Z 00090cd8 f   uafxcw:winfrm.obj
 0001:0007fd18       ?OnCreateDocList@CFrameWnd@@IAAXPAUtagDLNHDR@@PAJ@Z 00090d18 f   uafxcw:winfrm.obj
 0001:0007fd48       ?GetRuntimeClass@CFrameWnd@@UBAPAUCRuntimeClass@@XZ 00090d48 f   uafxcw:winfrm.obj
 0001:0007fd54       ?OnQueryNewPalette@CFrameWnd@@IAAHXZ 00090d54 f i uafxcw:winfrm.obj
 0001:0007fd54       ?OnSetCursor@CWnd@@IAAHPAV1@II@Z 00090d54 f i uafxcw:winfrm.obj
 0001:0007fd54       ?OnPaletteChanged@CFrameWnd@@IAAXPAVCWnd@@@Z 00090d54 f i uafxcw:winfrm.obj
 0001:0007fd64       ??0CPushRoutingFrame@@QAA@PAVCFrameWnd@@@Z 00090d64 f i uafxcw:winfrm.obj
 0001:0007fda4       ??1CPushRoutingFrame@@QAA@XZ 00090da4 f i uafxcw:winfrm.obj
 0001:0007fdc8       ?NewNode@?$CList@PAXPAX@@IAAPAUCNode@1@PAU21@0@Z 00090dc8 f i uafxcw:winfrm.obj
 0001:0007fe5c       ?LoadAccelTable@CFrameWnd@@QAAHPB_W@Z 00090e5c f   uafxcw:winfrm.obj
 0001:0007fe94       ?OnEnable@CFrameWnd@@IAAXH@Z 00090e94 f   uafxcw:winfrm.obj
 0001:0007ff94       ?CreateView@CFrameWnd@@QAAPAVCWnd@@PAUCCreateContext@@I@Z 00090f94 f   uafxcw:winfrm.obj
 0001:00080050       ?OnCreateClient@CFrameWnd@@MAAHPAUtagCREATESTRUCTW@@PAUCCreateContext@@@Z 00091050 f   uafxcw:winfrm.obj
 0001:000800bc       ?OnCreateHelper@CFrameWnd@@IAAHPAUtagCREATESTRUCTW@@PAUCCreateContext@@@Z 000910bc f   uafxcw:winfrm.obj
 0001:0008017c       ?GetIconWndClass@CFrameWnd@@IAAPB_WKI@Z 0009117c f   uafxcw:winfrm.obj
 0001:00080234       ?OnUpdateFrameMenu@CFrameWnd@@UAAXPAUHMENU__@@@Z 00091234 f   uafxcw:winfrm.obj
 0001:00080290       ?OnClose@CFrameWnd@@IAAXXZ 00091290 f   uafxcw:winfrm.obj
 0001:00080444       ?OnCmdMsg@CFrameWnd@@UAAHIHPAXPAUAFX_CMDHANDLERINFO@@@Z 00091444 f   uafxcw:winfrm.obj
 0001:00080570       ?OnHScroll@CFrameWnd@@IAAXIIPAVCScrollBar@@@Z 00091570 f   uafxcw:winfrm.obj
 0001:000805a0       ?OnVScroll@CFrameWnd@@IAAXIIPAVCScrollBar@@@Z 000915a0 f   uafxcw:winfrm.obj
 0001:000805d4       ?OnActivateTopLevel@CFrameWnd@@IAAJIJ@Z 000915d4 f   uafxcw:winfrm.obj
 0001:0008065c       ?OnSysCommand@CFrameWnd@@IAAXIJ@Z 0009165c f   uafxcw:winfrm.obj
 0001:00080684       ?GetActiveDocument@CFrameWnd@@UAAPAVCDocument@@XZ 00091684 f   uafxcw:winfrm.obj
 0001:00080698       ?ShowControlBar@CFrameWnd@@QAAXPAVCControlBar@@HH@Z 00091698 f   uafxcw:winfrm.obj
 0001:00080764       ?OnInitMenuPopup@CFrameWnd@@IAAXPAVCMenu@@IH@Z 00091764 f   uafxcw:winfrm.obj
 0001:00080984       ?OnPopMessageString@CFrameWnd@@IAAJIJ@Z 00091984 f   uafxcw:winfrm.obj
 0001:000809c0       ?GetMessageBar@CFrameWnd@@UAAPAVCWnd@@XZ 000919c0 f   uafxcw:winfrm.obj
 0001:000809e0       ?DestroyDockBars@CFrameWnd@@QAAXXZ 000919e0 f   uafxcw:winfrm.obj
 0001:00080a1c       ?GetControlBar@CFrameWnd@@QAAPAVCControlBar@@I@Z 00091a1c f   uafxcw:winfrm.obj
 0001:00080a64       ?OnUpdateControlBarMenu@CFrameWnd@@QAAXPAVCCmdUI@@@Z 00091a64 f   uafxcw:winfrm.obj
 0001:00080ac0       ?OnBarCheck@CFrameWnd@@QAAHI@Z 00091ac0 f   uafxcw:winfrm.obj
 0001:00080b10       ?OnUpdateKeyIndicator@CFrameWnd@@IAAXPAVCCmdUI@@@Z 00091b10 f   uafxcw:winfrm.obj
 0001:00080bb0       ?OnIdleUpdateCmdUI@CFrameWnd@@IAAXXZ 00091bb0 f   uafxcw:winfrm.obj
 0001:00080c3c       ?RecalcLayout@CFrameWnd@@UAAXH@Z 00091c3c f   uafxcw:winfrm.obj
 0001:00080d94       ?NegotiateBorderSpace@CFrameWnd@@UAAHIPAUtagRECT@@@Z 00091d94 f   uafxcw:winfrm.obj
 0001:00080e6c       ?OnSize@CFrameWnd@@IAAXIHH@Z 00091e6c f   uafxcw:winfrm.obj
 0001:00080ea0       ?OnEraseBkgnd@CFrameWnd@@IAAHPAVCDC@@@Z 00091ea0 f   uafxcw:winfrm.obj
 0001:00080ec4       ?ActivateFrame@CFrameWnd@@UAAXH@Z 00091ec4 f   uafxcw:winfrm.obj
 0001:00080f30       ?OnDestroyDocList@CFrameWnd@@IAAXPAUtagDLNHDR@@PAJ@Z 00091f30 f   uafxcw:winfrm.obj
 0001:00080fb8       ??1?$CArray@PAUHWND__@@PAU1@@@UAA@XZ 00091fb8 f i uafxcw:winfrm.obj
 0001:00080fe0       ??_E?$CArray@PAUHWND__@@PAU1@@@UAAPAXI@Z 00091fe0 f i uafxcw:winfrm.obj
 0001:00080fe0       ??_G?$CArray@PAUHWND__@@PAU1@@@UAAPAXI@Z 00091fe0 f i uafxcw:winfrm.obj
 0001:00081020       ?SetSize@?$CArray@PAUHWND__@@PAU1@@@QAAXHH@Z 00092020 f i uafxcw:winfrm.obj
 0001:00081174       ?SetAtGrow@?$CArray@PAUHWND__@@PAU1@@@QAAXHPAUHWND__@@@Z 00092174 f i uafxcw:winfrm.obj
 0001:000811b4       ??$SerializeElements@PAUHWND__@@@@YAXAAVCArchive@@PAPAUHWND__@@H@Z 000921b4 f i uafxcw:winfrm.obj
 0001:000811b4       ??$SerializeElements@PAX@@YAXAAVCArchive@@PAPAXH@Z 000921b4 f i uafxcw:winhand.obj
 0001:00081280       ?AddTail@?$CList@PAXPAX@@QAAPAU__POSITION@@PAX@Z 00092280 f i uafxcw:winfrm.obj
 0001:000812b8       ??1?$CList@PAXPAX@@UAA@XZ  000922b8 f i uafxcw:winfrm.obj
 0001:000812d8       ?Serialize@?$CList@PAXPAX@@UAAXAAVCArchive@@@Z 000922d8 f i uafxcw:winfrm.obj
 0001:00081368       ??_E?$CList@PAXPAX@@UAAPAXI@Z 00092368 f i uafxcw:winfrm.obj
 0001:00081368       ??_G?$CList@PAXPAX@@UAAPAXI@Z 00092368 f i uafxcw:winfrm.obj
 0001:0008139c       ?OnCreate@CFrameWnd@@IAAHPAUtagCREATESTRUCTW@@@Z 0009239c f   uafxcw:winfrm.obj
 0001:000813bc       ?OnDestroy@CFrameWnd@@IAAXXZ 000923bc f   uafxcw:winfrm.obj
 0001:00081458       ?OnSettingChange@CFrameWnd@@IAAXIPB_W@Z 00092458 f   uafxcw:winfrm.obj
 0001:000814f0       ?OnActivate@CFrameWnd@@IAAXIPAVCWnd@@H@Z 000924f0 f   uafxcw:winfrm.obj
 0001:000816e0       ?Serialize@?$CArray@PAUHWND__@@PAU1@@@UAAXAAVCArchive@@@Z 000926e0 f i uafxcw:winfrm.obj
 0001:00081734       ?AddFrameWnd@CFrameWnd@@IAAXXZ 00092734 f   uafxcw:winfrm.obj
 0001:00081770       ?RemoveFrameWnd@CFrameWnd@@IAAXXZ 00092770 f   uafxcw:winfrm.obj
 0001:000817b4       ?BeginModalState@CFrameWnd@@UAAXXZ 000927b4 f   uafxcw:winfrm.obj
 0001:00081974       ?OnSetMessageString@CFrameWnd@@IAAJIJ@Z 00092974 f   uafxcw:winfrm.obj
 0001:00081a9c       ??0CFrameWnd@@QAA@XZ       00092a9c f   uafxcw:winfrm.obj
 0001:00081bf0       ?GetMessageString@CFrameWnd@@UBAXIAAV?$CStringT@_WV?$StrTraitMFC@_WV?$ChTraitsOS@_W@ATL@@@@@ATL@@@Z 00092bf0 f   uafxcw:winfrm.obj
 0001:00081c8c       ?CreateObject@CFrameWnd@@SAPAVCObject@@XZ 00092c8c f   uafxcw:winfrm.obj
 0001:00081ce0       ??1CFrameWnd@@UAA@XZ       00092ce0 f   uafxcw:winfrm.obj
 0001:00081f6c       ?LoadFrame@CFrameWnd@@UAAHIKPAVCWnd@@PAUCCreateContext@@@Z 00092f6c f   uafxcw:winfrm.obj
 0001:00082198       ??_GCFrameWnd@@UAAPAXI@Z   00093198 f i uafxcw:winfrm.obj
 0001:00082198       ??_ECFrameWnd@@UAAPAXI@Z   00093198 f i uafxcw:winfrm.obj
 0001:000821c0       ?Create@CFrameWnd@@UAAHPB_W0KABUtagRECT@@PAVCWnd@@0KPAUCCreateContext@@@Z 000931c0 f   uafxcw:winfrm.obj
 0001:0008228c       ?UpdateFrameTitleForDocument@CFrameWnd@@QAAXPB_W@Z 0009328c f   uafxcw:winfrm.obj
 0001:00082434       ?OnFolderChanged@CFrameWnd@@IAAXPAUtagDLNHDR@@PAJ@Z 00093434 f   uafxcw:winfrm.obj
 0001:0008261c       ?OnUpdateFrameTitle@CFrameWnd@@UAAXH@Z 0009361c f   uafxcw:winfrm.obj
 0001:00082668       ?GetMessageMap@CFrameWnd@@MBAPBUAFX_MSGMAP@@XZ 00093668 f   uafxcw:winfrm.obj
 0001:00082674       ?HasFont@@YAHPBUDLGTEMPLATE@@@Z 00093674 f i uafxcw:dlgtempl.obj
 0001:000826d0       ??1CDialogTemplate@@QAA@XZ 000936d0 f   uafxcw:dlgtempl.obj
 0001:000826ec       ?Detach@CDialogTemplate@@QAAPAXXZ 000936ec f   uafxcw:dlgtempl.obj
 0001:00082700       ?GetFontSizeField@CDialogTemplate@@KAPAEPBUDLGTEMPLATE@@@Z 00093700 f   uafxcw:dlgtempl.obj
 0001:00082768       ?GetTemplateSize@CDialogTemplate@@KAIPBUDLGTEMPLATE@@@Z 00093768 f   uafxcw:dlgtempl.obj
 0001:0008287c       ?SetTemplate@CDialogTemplate@@IAAHPBUDLGTEMPLATE@@I@Z 0009387c f   uafxcw:dlgtempl.obj
 0001:000828f4       ?SetFont@CDialogTemplate@@QAAHPB_WG@Z 000938f4 f   uafxcw:dlgtempl.obj
 0001:00082af4       ?SetSystemFont@CDialogTemplate@@QAAHG@Z 00093af4 f   uafxcw:dlgtempl.obj
 0001:00082bfc       ??0CDialogTemplate@@QAA@PBUDLGTEMPLATE@@@Z 00093bfc f   uafxcw:dlgtempl.obj
 0001:00082c4c       ?GetFont@CDialogTemplate@@SAHPBUDLGTEMPLATE@@AAV?$CStringT@_WV?$StrTraitMFC@_WV?$ChTraitsOS@_W@ATL@@@@@ATL@@AAG@Z 00093c4c f   uafxcw:dlgtempl.obj
 0001:00082ccc       ?AfxFormatStrings@@YAXAAV?$CStringT@_WV?$StrTraitMFC@_WV?$ChTraitsOS@_W@ATL@@@@@ATL@@PB_WPBQB_WH@Z 00093ccc f   uafxcw:apphelp.obj
 0001:00082e84       ?AfxFormatStrings@@YAXAAV?$CStringT@_WV?$StrTraitMFC@_WV?$ChTraitsOS@_W@ATL@@@@@ATL@@IPBQB_WH@Z 00093e84 f   uafxcw:apphelp.obj
 0001:00082f6c       ?AfxFormatString1@@YAXAAV?$CStringT@_WV?$StrTraitMFC@_WV?$ChTraitsOS@_W@ATL@@@@@ATL@@IPB_W@Z 00093f6c f   uafxcw:apphelp.obj
 0001:00082f8c       ?strspn@?$ChTraitsOS@_W@ATL@@SAHPB_W0@Z 00093f8c f i uafxcw:appterm.obj
 0001:00082ff8       ?strcspn@?$ChTraitsOS@_W@ATL@@SAHPB_W0@Z 00093ff8 f i uafxcw:appterm.obj
 0001:00083064       ?Tokenize@?$CStringT@_WV?$StrTraitMFC@_WV?$ChTraitsOS@_W@ATL@@@@@ATL@@QBA?AV12@PB_WAAH@Z 00094064 f i uafxcw:appterm.obj
 0001:0008316c       ?AfxUnregisterWndClasses@@YAXXZ 0009416c f   uafxcw:appterm.obj
 0001:00083294       ?AfxWinTerm@@YAXXZ         00094294 f   uafxcw:appterm.obj
 0001:000832c8       ?OsErrorToException@CFileException@@SAHJ@Z 000942c8 f   uafxcw:filex.obj
 0001:00083548       ?GetRuntimeClass@CFileException@@UBAPAUCRuntimeClass@@XZ 00094548 f   uafxcw:filex.obj
 0001:0008355c       ?GetErrorMessage@CFileException@@UBAHPA_WIPAI@Z 0009455c f   uafxcw:filex.obj
 0001:000836c0       ?AfxThrowFileException@@YAXHJPB_W@Z 000946c0 f   uafxcw:filex.obj
 0001:00083730       ?ThrowOsError@CFileException@@SAXJPB_W@Z 00094730 f   uafxcw:filex.obj
 0001:0008375c       ?AfxGetFileName@@YAIPB_WPA_WI@Z 0009475c f   uafxcw:appinit.obj
 0001:00083804       ?SetCurrentHandles@CWinApp@@QAAXXZ 00094804 f   uafxcw:appinit.obj
 0001:00083928       ?AfxWinInit@@YAHPAUHINSTANCE__@@0PA_WH@Z 00094928 f   uafxcw:appinit.obj
 0001:00083980       ??0CFixedAllocNoSync@@QAA@II@Z 00094980 f   uafxcw:fixalloc.obj
 0001:000839a0       ??1CFixedAllocNoSync@@QAA@XZ 000949a0 f   uafxcw:fixalloc.obj
 0001:000839a0       ?FreeAll@CFixedAllocNoSync@@QAAXXZ 000949a0 f   uafxcw:fixalloc.obj
 0001:000839c4       ?Alloc@CFixedAllocNoSync@@QAAPAXXZ 000949c4 f   uafxcw:fixalloc.obj
 0001:00083a34       UpdateWindow               00094a34 f   coredll:COREDLL.dll
 0001:00083a44       GetClassNameW              00094a44 f   coredll:COREDLL.dll
 0001:00083a54       GetWindowThreadProcessId   00094a54 f   coredll:COREDLL.dll
 0001:00083a64       GetModuleFileNameW         00094a64 f   coredll:COREDLL.dll
 0001:00083a74       PostMessageW               00094a74 f   coredll:COREDLL.dll
 0001:00083a84       GetLastError               00094a84 f   coredll:COREDLL.dll
 0001:00083a94       KillTimer                  00094a94 f   coredll:COREDLL.dll
 0001:00083aa4       CreateFileMappingW         00094aa4 f   coredll:COREDLL.dll
 0001:00083ab4       MapViewOfFile              00094ab4 f   coredll:COREDLL.dll
 0001:00083ac4       CloseHandle                00094ac4 f   coredll:COREDLL.dll
 0001:00083ad4       UnmapViewOfFile            00094ad4 f   coredll:COREDLL.dll
 0001:00083ae4       GetDiskFreeSpaceExW        00094ae4 f   coredll:COREDLL.dll
 0001:00083af4       InterlockedDecrement       00094af4 f   coredll:COREDLL.dll
 0001:00083b04       SendMessageW               00094b04 f   coredll:COREDLL.dll
 0001:00083b14       CreateFontIndirectW        00094b14 f   coredll:COREDLL.dll
 0001:00083b24       SetRect                    00094b24 f   coredll:COREDLL.dll
 0001:00083b34       DeviceIoControl            00094b34 f   coredll:COREDLL.dll
 0001:00083b44       NKDbgPrintfW               00094b44 f   coredll:COREDLL.dll
 0001:00083b54       WriteFile                  00094b54 f   coredll:COREDLL.dll
 0001:00083b64       ReadFile                   00094b64 f   coredll:COREDLL.dll
 0001:00083b74       CreateFileW                00094b74 f   coredll:COREDLL.dll
 0001:00083b84       WideCharToMultiByte        00094b84 f   coredll:COREDLL.dll
 0001:00083b94       Sleep                      00094b94 f   coredll:COREDLL.dll
 0001:00083ba4       KernelIoControl            00094ba4 f   coredll:COREDLL.dll
 0001:00083bb4       MessageBoxW                00094bb4 f   coredll:COREDLL.dll
 0001:00083bc4       GetFileSize                00094bc4 f   coredll:COREDLL.dll
 0001:00083bd4       CreateSolidBrush           00094bd4 f   coredll:COREDLL.dll
 0001:00083be4       DeleteObject               00094be4 f   coredll:COREDLL.dll
 0001:00083bf4       SelectObject               00094bf4 f   coredll:COREDLL.dll
 0001:00083c04       GetWindowRect              00094c04 f   coredll:COREDLL.dll
 0001:00083c14       SetTimer                   00094c14 f   coredll:COREDLL.dll
 0001:00083c24       GetDC                      00094c24 f   coredll:COREDLL.dll
 0001:00083c34       GetClientRect              00094c34 f   coredll:COREDLL.dll
 0001:00083c44       CreateCompatibleDC         00094c44 f   coredll:COREDLL.dll
 0001:00083c54       CreateCompatibleBitmap     00094c54 f   coredll:COREDLL.dll
 0001:00083c64       CreatePen                  00094c64 f   coredll:COREDLL.dll
 0001:00083c74       BitBlt                     00094c74 f   coredll:COREDLL.dll
 0001:00083c84       ReleaseDC                  00094c84 f   coredll:COREDLL.dll
 0001:00083c94       EnableWindow               00094c94 f   coredll:COREDLL.dll
 0001:00083ca4       wsprintfW                  00094ca4 f   coredll:COREDLL.dll
 0001:00083cb4       InvalidateRect             00094cb4 f   coredll:COREDLL.dll
 0001:00083cc4       SetWindowLongW             00094cc4 f   coredll:COREDLL.dll
 0001:00083cd4       MultiByteToWideChar        00094cd4 f   coredll:COREDLL.dll
 0001:00083ce4       DrawTextW                  00094ce4 f   coredll:COREDLL.dll
 0001:00083cf4       FillRect                   00094cf4 f   coredll:COREDLL.dll
 0001:00083d04       Ellipse                    00094d04 f   coredll:COREDLL.dll
 0001:00083d14       SystemTimeToFileTime       00094d14 f   coredll:COREDLL.dll
 0001:00083d24       FileTimeToSystemTime       00094d24 f   coredll:COREDLL.dll
 0001:00083d34       TransparentImage           00094d34 f   coredll:COREDLL.dll
 0001:00083d44       PatBlt                     00094d44 f   coredll:COREDLL.dll
 0001:00083d54       DeleteDC                   00094d54 f   coredll:COREDLL.dll
 0001:00083d64       CreateDIBSection           00094d64 f   coredll:COREDLL.dll
 0001:00083d74       SetBkMode                  00094d74 f   coredll:COREDLL.dll
 0001:00083d84       SizeofResource             00094d84 f   coredll:COREDLL.dll
 0001:00083d94       LoadResource               00094d94 f   coredll:COREDLL.dll
 0001:00083da4       FindResourceW              00094da4 f   coredll:COREDLL.dll
 0001:00083db4       SetFilePointer             00094db4 f   coredll:COREDLL.dll
 0001:00083dc4       InterlockedIncrement       00094dc4 f   coredll:COREDLL.dll
 0001:00083dd4       FindFirstFileW             00094dd4 f   coredll:COREDLL.dll
 0001:00083de4       lstrcmpW                   00094de4 f   coredll:COREDLL.dll
 0001:00083df4       FindNextFileW              00094df4 f   coredll:COREDLL.dll
 0001:00083e04       FindClose                  00094e04 f   coredll:COREDLL.dll
 0001:00083e14       FileTimeToLocalFileTime    00094e14 f   coredll:COREDLL.dll
 0001:00083e24       IsWindow                   00094e24 f   coredll:COREDLL.dll
 0001:00083e34       CreateProcessW             00094e34 f   coredll:COREDLL.dll
 0001:00083e44       CopyFileW                  00094e44 f   coredll:COREDLL.dll
 0001:00083e54       CreateDirectoryW           00094e54 f   coredll:COREDLL.dll
 0001:00083e64       LoadLibraryW               00094e64 f   coredll:COREDLL.dll
 0001:00083e74       GetModuleHandleW           00094e74 f   coredll:COREDLL.dll
 0001:00083e84       GetProcAddressW            00094e84 f   coredll:COREDLL.dll
 0001:00083e94       LoadIconW                  00094e94 f   coredll:COREDLL.dll
 0001:00083ea4       DeleteFileW                00094ea4 f   coredll:COREDLL.dll
 0001:00083eb4       CreateThread               00094eb4 f   coredll:COREDLL.dll
 0001:00083ec4       GetExitCodeThread          00094ec4 f   coredll:COREDLL.dll
 0001:00083ed4       SetLastError               00094ed4 f   coredll:COREDLL.dll
 0001:00083ee4       StringCchVPrintfW          00094ee4 f   coredll:COREDLL.dll
 0001:00083ef4       StringCchLengthW           00094ef4 f   coredll:COREDLL.dll
 0001:00083f04       CeLogData                  00094f04 f   coredll:COREDLL.dll
 0001:00083f14       CeGetThreadPriority        00094f14 f   coredll:COREDLL.dll
 0001:00083f24       CreateEventW               00094f24 f   coredll:COREDLL.dll
 0001:00083f34       WaitForSingleObject        00094f34 f   coredll:COREDLL.dll
 0001:00083f44       RemoveDirectoryW           00094f44 f   coredll:COREDLL.dll
 0001:00083f54       GetTickCount               00094f54 f   coredll:COREDLL.dll
 0001:00083f64       GetFileAttributesW         00094f64 f   coredll:COREDLL.dll
 0001:00083f74       SetFileAttributesW         00094f74 f   coredll:COREDLL.dll
 0001:00083f84       SetWindowPos               00094f84 f   coredll:COREDLL.dll
 0001:00083f94       ShowWindow                 00094f94 f   coredll:COREDLL.dll
 0001:00083fa4       GetStringTypeExW           00094fa4 f   coredll:COREDLL.dll
 0001:00083fb4       ClearCommError             00094fb4 f   coredll:COREDLL.dll
 0001:00083fc4       SetupComm                  00094fc4 f   coredll:COREDLL.dll
 0001:00083fd4       GetCommTimeouts            00094fd4 f   coredll:COREDLL.dll
 0001:00083fe4       SetCommTimeouts            00094fe4 f   coredll:COREDLL.dll
 0001:00083ff4       GetCommState               00094ff4 f   coredll:COREDLL.dll
 0001:00084004       SetCommState               00095004 f   coredll:COREDLL.dll
 0001:00084014       TerminateThread            00095014 f   coredll:COREDLL.dll
 0001:00084024       OpenStore                  00095024 f   coredll:COREDLL.dll
 0001:00084034       FindFirstPartition         00095034 f   coredll:COREDLL.dll
 0001:00084044       FindClosePartition         00095044 f   coredll:COREDLL.dll
 0001:00084054       GetProcessId               00095054 f   coredll:COREDLL.dll
 0001:00084064       GetFileAttributesExW       00095064 f   coredll:COREDLL.dll
 0001:00084074       GetExitCodeProcess         00095074 f   coredll:COREDLL.dll
 0001:00084084       LocalAlloc                 00095084 f   coredll:COREDLL.dll
 0001:00084094       LocalFree                  00095094 f   coredll:COREDLL.dll
 0001:000840a4       GetDesktopWindow           000950a4 f   coredll:COREDLL.dll
 0001:000840b4       CopyRect                   000950b4 f   coredll:COREDLL.dll
 0001:000840c4       GetParent                  000950c4 f   coredll:COREDLL.dll
 0001:000840d4       GetWindowLongW             000950d4 f   coredll:COREDLL.dll
 0001:000840e4       DrawEdge                   000950e4 f   coredll:COREDLL.dll
 0001:000840f4       BeginPaint                 000950f4 f   coredll:COREDLL.dll
 0001:00084104       GetWindowTextW             00095104 f   coredll:COREDLL.dll
 0001:00084114       SetTextColor               00095114 f   coredll:COREDLL.dll
 0001:00084124       SetBkColor                 00095124 f   coredll:COREDLL.dll
 0001:00084134       SetTextCharacterExtra      00095134 f   coredll:COREDLL.dll
 0001:00084144       EndPaint                   00095144 f   coredll:COREDLL.dll
 0001:00084154       CallWindowProcW            00095154 f   coredll:COREDLL.dll
 0001:00084164       EnumWindows                00095164 f   coredll:COREDLL.dll
 0001:00084174       GetCommandLineW            00095174 f   coredll:COREDLL.dll
 0001:00084184       FindWindowW                00095184 f   coredll:COREDLL.dll
 0001:00084194       GetWindow                  00095194 f   coredll:COREDLL.dll
 0001:000841a4       LeaveCriticalSection       000951a4 f   coredll:COREDLL.dll
 0001:000841b4       EnterCriticalSection       000951b4 f   coredll:COREDLL.dll
 0001:000841c4       DeleteCriticalSection      000951c4 f   coredll:COREDLL.dll
 0001:000841d4       InitializeCriticalSection  000951d4 f   coredll:COREDLL.dll
 0001:000841e4       RegCloseKey                000951e4 f   coredll:COREDLL.dll
 0001:000841f4       RegQueryValueExW           000951f4 f   coredll:COREDLL.dll
 0001:00084204       __GetUserKData             00095204 f   coredll:COREDLL.dll
 0001:00084214       MoveFileW                  00095214 f   coredll:COREDLL.dll
 0001:00084224       FlushFileBuffers           00095224 f   coredll:COREDLL.dll
 0001:00084234       OutputDebugStringW         00095234 f   coredll:COREDLL.dll
 0001:00084244       TerminateProcess           00095244 f   coredll:COREDLL.dll
 0001:00084254       SetEndOfFile               00095254 f   coredll:COREDLL.dll
 0001:00084264       GetDlgItem                 00095264 f   coredll:COREDLL.dll
 0001:00084274       SendDlgItemMessageW        00095274 f   coredll:COREDLL.dll
 0001:00084284       SetDlgItemTextW            00095284 f   coredll:COREDLL.dll
 0001:00084294       IsDialogMessageW           00095294 f   coredll:COREDLL.dll
 0001:000842a4       SetWindowTextW             000952a4 f   coredll:COREDLL.dll
 0001:000842b4       GetDlgCtrlID               000952b4 f   coredll:COREDLL.dll
 0001:000842c4       MoveWindow                 000952c4 f   coredll:COREDLL.dll
 0001:000842d4       IsWindowEnabled            000952d4 f   coredll:COREDLL.dll
 0001:000842e4       SetFocus                   000952e4 f   coredll:COREDLL.dll
 0001:000842f4       GetFocus                   000952f4 f   coredll:COREDLL.dll
 0001:00084304       GetWindowTextLengthW       00095304 f   coredll:COREDLL.dll
 0001:00084314       GetMenuItemInfoW           00095314 f   coredll:COREDLL.dll
 0001:00084324       FormatMessageW             00095324 f   coredll:COREDLL.dll
 0001:00084334       GetSubMenu                 00095334 f   coredll:COREDLL.dll
 0001:00084344       GetDeviceCaps              00095344 f   coredll:COREDLL.dll
 0001:00084354       InsertMenuW                00095354 f   coredll:COREDLL.dll
 0001:00084364       GetActiveWindow            00095364 f   coredll:COREDLL.dll
 0001:00084374       SaveDC                     00095374 f   coredll:COREDLL.dll
 0001:00084384       RestoreDC                  00095384 f   coredll:COREDLL.dll
 0001:00084394       GetClipBox                 00095394 f   coredll:COREDLL.dll
 0001:000843a4       LineTo                     000953a4 f   coredll:COREDLL.dll
 0001:000843b4       MoveToEx                   000953b4 f   coredll:COREDLL.dll
 0001:000843c4       CreatePenIndirect          000953c4 f   coredll:COREDLL.dll
 0001:000843d4       GetObjectW                 000953d4 f   coredll:COREDLL.dll
 0001:000843e4       RectVisible                000953e4 f   coredll:COREDLL.dll
 0001:000843f4       ExtTextOutW                000953f4 f   coredll:COREDLL.dll
 0001:00084404       ScreenToClient             00095404 f   coredll:COREDLL.dll
 0001:00084414       GetStockObject             00095414 f   coredll:COREDLL.dll
 0001:00084424       GetSysColor                00095424 f   coredll:COREDLL.dll
 0001:00084434       GetProcessIndexFromID      00095434 f   coredll:COREDLL.dll
 0001:00084444       AdjustWindowRectEx         00095444 f   coredll:COREDLL.dll
 0001:00084454       IsWindowVisible            00095454 f   coredll:COREDLL.dll
 0001:00084464       SetForegroundWindow        00095464 f   coredll:COREDLL.dll
 0001:00084474       EqualRect                  00095474 f   coredll:COREDLL.dll
 0001:00084484       MapWindowPoints            00095484 f   coredll:COREDLL.dll
 0001:00084494       GetSystemMetrics           00095494 f   coredll:COREDLL.dll
 0001:000844a4       PeekMessageW               000954a4 f   coredll:COREDLL.dll
 0001:000844b4       GetMessagePos              000954b4 f   coredll:COREDLL.dll
 0001:000844c4       DefWindowProcW             000954c4 f   coredll:COREDLL.dll
 0001:000844d4       GetForegroundWindow        000954d4 f   coredll:COREDLL.dll
 0001:000844e4       DestroyWindow              000954e4 f   coredll:COREDLL.dll
 0001:000844f4       RegisterClassW             000954f4 f   coredll:COREDLL.dll
 0001:00084504       GetClassInfoW              00095504 f   coredll:COREDLL.dll
 0001:00084514       CreateWindowExW            00095514 f   coredll:COREDLL.dll
 0001:00084524       EndDialog                  00095524 f   coredll:COREDLL.dll
 0001:00084534       LoadBitmapW                00095534 f   coredll:COREDLL.dll
 0001:00084544       DestroyIcon                00095544 f   coredll:COREDLL.dll
 0001:00084554       EndDeferWindowPos          00095554 f   coredll:COREDLL.dll
 0001:00084564       DeferWindowPos             00095564 f   coredll:COREDLL.dll
 0001:00084574       MapDialogRect              00095574 f   coredll:COREDLL.dll
 0001:00084584       BeginDeferWindowPos        00095584 f   coredll:COREDLL.dll
 0001:00084594       GetNextDlgTabItem          00095594 f   coredll:COREDLL.dll
 0001:000845a4       OffsetRect                 000955a4 f   coredll:COREDLL.dll
 0001:000845b4       DefDlgProcW                000955b4 f   coredll:COREDLL.dll
 0001:000845c4       CreateDialogIndirectParamW 000955c4 f   coredll:COREDLL.dll
 0001:000845d4       SetActiveWindow            000955d4 f   coredll:COREDLL.dll
 0001:000845e4       SetMenuItemInfoW           000955e4 f   coredll:COREDLL.dll
 0001:000845f4       DeleteMenu                 000955f4 f   coredll:COREDLL.dll
 0001:00084604       CheckMenuItem              00095604 f   coredll:COREDLL.dll
 0001:00084614       EnableMenuItem             00095614 f   coredll:COREDLL.dll
 0001:00084624       lstrcmpiW                  00095624 f   coredll:COREDLL.dll
 0001:00084634       SystemParametersInfoW      00095634 f   coredll:COREDLL.dll
 0001:00084644       GetVersionExW              00095644 f   coredll:COREDLL.dll
 0001:00084654       FreeLibrary                00095654 f   coredll:COREDLL.dll
 0001:00084664       RegOpenKeyExW              00095664 f   coredll:COREDLL.dll
 0001:00084674       GetFileTime                00095674 f   coredll:COREDLL.dll
 0001:00084684       PostQuitMessage            00095684 f   coredll:COREDLL.dll
 0001:00084694       InterlockedExchange        00095694 f   coredll:COREDLL.dll
 0001:000846a4       GetLocaleInfoW             000956a4 f   coredll:COREDLL.dll
 0001:000846b4       ConvertDefaultLocale       000956b4 f   coredll:COREDLL.dll
 0001:000846c4       GlobalDeleteAtom           000956c4 f   coredll:COREDLL.dll
 0001:000846d4       RegDeleteKeyW              000956d4 f   coredll:COREDLL.dll
 0001:000846e4       ValidateRect               000956e4 f   coredll:COREDLL.dll
 0001:000846f4       GetCursorPos               000956f4 f   coredll:COREDLL.dll
 0001:00084704       GetKeyState                00095704 f   coredll:COREDLL.dll
 0001:00084714       SetThreadPriority          00095714 f   coredll:COREDLL.dll
 0001:00084724       DispatchMessageW           00095724 f   coredll:COREDLL.dll
 0001:00084734       TranslateMessage           00095734 f   coredll:COREDLL.dll
 0001:00084744       GetMessageW                00095744 f   coredll:COREDLL.dll
 0001:00084754       RegEnumKeyExW              00095754 f   coredll:COREDLL.dll
 0001:00084764       SetCursor                  00095764 f   coredll:COREDLL.dll
 0001:00084774       GetSysColorBrush           00095774 f   coredll:COREDLL.dll
 0001:00084784       LoadCursorW                00095784 f   coredll:COREDLL.dll
 0001:00084794       TlsCall                    00095794 f   coredll:COREDLL.dll
 0001:000847a4       TlsGetValue                000957a4 f   coredll:COREDLL.dll
 0001:000847b4       LocalReAlloc               000957b4 f   coredll:COREDLL.dll
 0001:000847c4       TlsSetValue                000957c4 f   coredll:COREDLL.dll
 0001:000847d4       CompareStringW             000957d4 f   coredll:COREDLL.dll
 0001:000847e4       DestroyMenu                000957e4 f   coredll:COREDLL.dll
 0001:000847f4       SetRectEmpty               000957f4 f   coredll:COREDLL.dll
 0001:00084804       TranslateAcceleratorW      00095804 f   coredll:COREDLL.dll
 0001:00084814       BringWindowToTop           00095814 f   coredll:COREDLL.dll
 0001:00084824       LoadAcceleratorsW          00095824 f   coredll:COREDLL.dll
 0001:00084834       RegisterWindowMessageW     00095834 f   coredll:COREDLL.dll
 0001:00084844       UnregisterClassW           00095844 f   coredll:COREDLL.dll
 0001:000848dc       WinMainCRTStartup          000958dc f   corelibc:pegwmain.obj
 0001:0008490c       __security_check_cookie    0009590c f   corelibc:armsecgs.obj
 0001:0008491c       __gsfailure                0009591c     corelibc:armsecgs.obj
 0001:00084960       ??2@YAPAXI@Z               00095960 f   corelibc:COREDLL.dll
 0001:00084970       ??3@YAXPAX@Z               00095970 f   corelibc:COREDLL.dll
 0001:00084980       memcpy_s                   00095980 f   corelibc:COREDLL.dll
 0001:00084990       wcscpy_s                   00095990 f   corelibc:COREDLL.dll
 0001:000849a0       _vsnwprintf_s              000959a0 f   corelibc:COREDLL.dll
 0001:000849b0       ??_7type_info@@6B@         000959b0 f   corelibc:COREDLL.dll
 0001:000849c0       wcsncpy_s                  000959c0 f   corelibc:COREDLL.dll
 0001:000849d0       _onexit                    000959d0 f   corelibc:onexit.obj
 0001:00084aa0       atexit                     00095aa0 f   corelibc:onexit.obj
 0001:00084ab8       _vsnwprintf                00095ab8 f   corelibc:COREDLL.dll
 0001:00084ac8       ??_U@YAPAXIABUnothrow_t@std@@@Z 00095ac8 f   corelibc:COREDLL.dll
 0001:00084ad8       ?nothrow@std@@3Unothrow_t@1@B 00095ad8 f   corelibc:COREDLL.dll
 0001:00084ae8       _wtol                      00095ae8 f   corelibc:COREDLL.dll
 0001:00084af8       memmove_s                  00095af8 f   corelibc:COREDLL.dll
 0001:00084b08       swprintf                   00095b08 f   corelibc:COREDLL.dll
 0001:00084b18       swprintf_s                 00095b18 f   corelibc:COREDLL.dll
 0001:00084b28       free                       00095b28 f   corelibc:COREDLL.dll
 0001:00084b38       _recalloc                  00095b38 f   corelibc:COREDLL.dll
 0001:00084b48       calloc                     00095b48 f   corelibc:COREDLL.dll
 0001:00084b58       wcsncat                    00095b58 f   corelibc:COREDLL.dll
 0001:00084b68       _purecall                  00095b68 f   corelibc:COREDLL.dll
 0001:00084b78       sprintf_s                  00095b78 f   corelibc:COREDLL.dll
 0001:00084b88       _vsnprintf_s               00095b88 f   corelibc:COREDLL.dll
 0001:00084b98       strcpy_s                   00095b98 f   corelibc:COREDLL.dll
 0001:00084ba8       wcsrchr                    00095ba8 f   corelibc:COREDLL.dll
 0001:00084bb8       _wcsicmp                   00095bb8 f   corelibc:COREDLL.dll
 0001:00084bc8       strchr                     00095bc8 f   corelibc:COREDLL.dll
 0001:00084bd8       sscanf_s                   00095bd8 f   corelibc:COREDLL.dll
 0001:00084be8       strcat_s                   00095be8 f   corelibc:COREDLL.dll
 0001:00084bf8       _snprintf                  00095bf8 f   corelibc:COREDLL.dll
 0001:00084c08       bsearch                    00095c08 f   corelibc:COREDLL.dll
 0001:00084c18       atoi                       00095c18 f   corelibc:COREDLL.dll
 0001:00084c28       vsprintf_s                 00095c28 f   corelibc:COREDLL.dll
 0001:00084c38       ??_L@YAXPAXIHP6AX0@Z1@Z    00095c38 f   corelibc:COREDLL.dll
 0001:00084c48       ??_M@YAXPAXIHP6AX0@Z@Z     00095c48 f   corelibc:COREDLL.dll
 0001:00084c58       wcscat_s                   00095c58 f   corelibc:COREDLL.dll
 0001:00084c68       __CxxFrameHandler3         00095c68 f   corelibc:COREDLL.dll
 0001:00084c78       __GSHandlerCheckCommon     00095c78 f   corelibc:gshandler.obj
 0001:00084cb4       __GSHandlerCheck           00095cb4 f   corelibc:gshandler.obj
 0001:00084cd4       __security_init_cookie     00095cd4 f   corelibc:seccinit.obj
 0001:00084d20       memset                     00095d20 f   corelibc:COREDLL.dll
 0001:00084d30       __CxxThrowException        00095d30 f   corelibc:COREDLL.dll
 0001:00084d40       memcpy                     00095d40 f   corelibc:COREDLL.dll
 0001:00084d50       __GSHandlerCheck_EH        00095d50 f   corelibc:gshandlereh.obj
 0001:00084dc8       sprintf                    00095dc8 f   corelibc:COREDLL.dll
 0001:00084dd8       wcsnlen                    00095dd8 f   corelibc:COREDLL.dll
 0001:00084de8       wcscat                     00095de8 f   corelibc:COREDLL.dll
 0001:00084df8       wcscpy                     00095df8 f   corelibc:COREDLL.dll
 0001:00084e08       strlen                     00095e08 f   corelibc:COREDLL.dll
 0001:00084e18       _vsnprintf                 00095e18 f   corelibc:COREDLL.dll
 0001:00084e28       strcat                     00095e28 f   corelibc:COREDLL.dll
 0001:00084e38       strncmp                    00095e38 f   corelibc:COREDLL.dll
 0001:00084e48       memcmp                     00095e48 f   corelibc:COREDLL.dll
 0001:00084e58       wprintf                    00095e58 f   corelibc:COREDLL.dll
 0001:00084e68       wcslen                     00095e68 f   corelibc:COREDLL.dll
 0001:00084e78       wcsncmp                    00095e78 f   corelibc:COREDLL.dll
 0001:00084e88       strcmp                     00095e88 f   corelibc:COREDLL.dll
 0001:00084e98       wcscmp                     00095e98 f   corelibc:COREDLL.dll
 0001:00084ea8       malloc                     00095ea8 f   corelibc:COREDLL.dll
 0001:00084eb8       realloc                    00095eb8 f   corelibc:COREDLL.dll
 0001:00084ec8       _wcsnicmp                  00095ec8 f   corelibc:COREDLL.dll
 0001:00084ed8       _snwprintf                 00095ed8 f   corelibc:COREDLL.dll
 0001:00084ee8       wcschr                     00095ee8 f   corelibc:COREDLL.dll
 0001:00084ef8       wcsncpy                    00095ef8 f   corelibc:COREDLL.dll
 0001:00084f08       iswctype                   00095f08 f   corelibc:COREDLL.dll
 0001:00084f18       _wcsdup                    00095f18 f   corelibc:COREDLL.dll
 0001:00084f28       _msize                     00095f28 f   corelibc:COREDLL.dll
 0001:00084f38       __C_specific_handler       00095f38 f   corelibc:COREDLL.dll
 0001:00084f48       _XcptFilter                00095f48 f   corelibc:COREDLL.dll
 0001:00085018       exit                       00096018 f   corelibc:cexit.obj
 0001:00085024       _exit                      00096024 f   corelibc:cexit.obj
 0001:0008505c       _initterm                  0009605c f   corelibc:crt0dat.obj
 0001:00085088       _cinit                     00096088 f   corelibc:crt0dat.obj
 0001:000850e8       __report_gsfailure         000960e8 f   corelibc:COREDLL.dll
 0001:000850f8       __security_gen_cookie2     000960f8 f   corelibc:COREDLL.dll
 0001:00085108       __crt_ExitProcess          00096108 f   corelibc:exitproc_proxy.obj
 0001:00085114       ?Allocate@CWin32Heap@ATL@@UAAPAXI@Z 00096114 f i atls:atlstr.obj
 0001:00085130       ?Free@CWin32Heap@ATL@@UAAXPAX@Z 00096130 f i atls:atlstr.obj
 0001:00085150       ?Reallocate@CWin32Heap@ATL@@UAAPAXPAXI@Z 00096150 f i atls:atlstr.obj
 0001:000851b8       ?GetSize@CWin32Heap@ATL@@UAAIPAX@Z 000961b8 f i atls:atlstr.obj
 0001:000851d4       ??_ECWin32Heap@ATL@@UAAPAXI@Z 000961d4 f i atls:atlstr.obj
 0001:000851d4       ??_GCWin32Heap@ATL@@UAAPAXI@Z 000961d4 f i atls:atlstr.obj
 0001:0008521c       ?Free@CAtlStringMgr@ATL@@UAAXPAUCStringData@2@@Z 0009621c f i atls:atlstr.obj
 0001:0008523c       ?GetNilString@CAtlStringMgr@ATL@@UAAPAUCStringData@2@XZ 0009623c f i atls:atlstr.obj
 0001:00085258       ??_ECAtlStringMgr@ATL@@UAAPAXI@Z 00096258 f i atls:atlstr.obj
 0001:00085258       ??_GCAtlStringMgr@ATL@@UAAPAXI@Z 00096258 f i atls:atlstr.obj
 0001:00085280       ?Allocate@CAtlStringMgr@ATL@@UAAPAUCStringData@2@HH@Z 00096280 f i atls:atlstr.obj
 0001:00085300       ?Reallocate@CAtlStringMgr@ATL@@UAAPAUCStringData@2@PAU32@HH@Z 00096300 f i atls:atlstr.obj
 0001:00085364       AtlRawDllMain              00096364 f   atls:atlbase.obj
 0001:00085404       ?Init@CComCriticalSection@ATL@@QAAJXZ 00096404 f i atls:atlbase.obj
 0001:00085460       ??1CAtlBaseModule@ATL@@QAA@XZ 00096460 f   atls:atlbase.obj
 0001:0008549c       ??0CAtlBaseModule@ATL@@QAA@XZ 0009649c f   atls:atlbase.obj
 0001:000859a4       _mktime64                  000969a4 f   LIBCMT:mktime64.obj
 0001:000859c4       _localtime64_s             000969c4 f   LIBCMT:loctim64.obj
 0001:00085ed4       _invoke_watson             00096ed4 f   LIBCMT:invarg.obj
 0001:00085f00       _gmtime64_s                00096f00 f   LIBCMT:gmtime64.obj
 0001:000862cc       _get_daylight              000972cc f   LIBCMT:timeset.obj
 0001:00086328       _get_dstbias               00097328 f   LIBCMT:timeset.obj
 0001:00086384       _get_timezone              00097384 f   LIBCMT:timeset.obj
 0001:000863e0       __daylight                 000973e0 f   LIBCMT:timeset.obj
 0001:000863ec       __dstbias                  000973ec f   LIBCMT:timeset.obj
 0001:000863f8       __timezone                 000973f8 f   LIBCMT:timeset.obj
 0001:00086404       __tzname                   00097404 f   LIBCMT:timeset.obj
 0001:00086d40       __tzset                    00097d40 f   LIBCMT:tzset.obj
 0001:00086dd0       _isindst                   00097dd0 f   LIBCMT:tzset.obj
 0001:00086e40       _invalid_parameter         00097e40 f   LIBCMT:invarginternal.obj
 0001:00086e6c       _mtinitlocks               00097e6c f   LIBCMT:mlock.obj
 0001:00086eec       _unlock                    00097eec f   LIBCMT:mlock.obj
 0001:00086f1c       _mtinitlocknum             00097f1c f   LIBCMT:mlock.obj
 0001:00087014       _lock                      00098014 f   LIBCMT:mlock.obj
 0001:000870e0       __crtInitCritSecAndSpinCount 000980e0 f   LIBCMT:initcrit.obj
 0001:00087168       _amsg_exit                 00098168 f   LIBCMT:crt0dat.obj
 0001:0008718c       __crtExitProcess           0009818c f   LIBCMT:crt0dat.obj
 0001:000871c0       ??0CNaviAdpcmDiag@@QAA@XZ  000981c0 f   NaviAdpcmDiag:NaviAdpcmDiag.obj
 0001:000871c0       ??1CNaviAdpcmDiag@@QAA@XZ  000981c0 f   NaviAdpcmDiag:NaviAdpcmDiag.obj
 0001:000871cc       ?ReqAdpcmPlayVoiceID@CNaviAdpcmDiag@@QAAHHW4ADPCM_LANG@@@Z 000981cc f   NaviAdpcmDiag:NaviAdpcmDiag.obj
 0001:00087328       NotifyExBoxDiagStart       00098328 f   ExBoxMdl_API:ExBoxMdl_API.dll
 0001:00087338       NotifyExBoxDiagEnd         00098338 f   ExBoxMdl_API:ExBoxMdl_API.dll
 0001:00087348       NotifyExBoxHudManualBrightnessUpdate 00098348 f   ExBoxMdl_API:ExBoxMdl_API.dll
 0001:00087358       NotifyExBoxHudLog          00098358 f   ExBoxMdl_API:ExBoxMdl_API.dll
 0001:00087368       NotifyExBoxHudTestScreen   00098368 f   ExBoxMdl_API:ExBoxMdl_API.dll
 0001:00087378       NotifyExBoxHudTestMode     00098378 f   ExBoxMdl_API:ExBoxMdl_API.dll
 0001:00087388       ?GetEMMCSmartInfo@@YAHPAK000@Z 00098388 f   MmcSmart:MmcSmart.obj
 0001:000873dc       WinMain                    000983dc f   uafxcw:appmodul.obj
 0001:000873ec       ?_AfxTermAppState@@YAXXZ   000983ec f   uafxcw:appmodul.obj
 0001:00087414       ?_AfxFindModuleInfoProc@@YAHPAUHWND__@@J@Z 00098414 f   uafxcw:winmain.obj
 0001:00087538       ?AfxWinMain@@YAHPAUHINSTANCE__@@0PA_WH@Z 00098538 f   uafxcw:winmain.obj
 0001:00087768       HeapDestroy                00098768 f   coredll:COREDLL.dll
 0001:00087778       HeapAlloc                  00098778 f   coredll:COREDLL.dll
 0001:00087788       HeapFree                   00098788 f   coredll:COREDLL.dll
 0001:00087798       HeapReAlloc                00098798 f   coredll:COREDLL.dll
 0001:000877a8       HeapSize                   000987a8 f   coredll:COREDLL.dll
 0001:000877b8       GetProcessHeap             000987b8 f   coredll:COREDLL.dll
 0001:000877c8       RaiseException             000987c8 f   coredll:COREDLL.dll
 0001:000877d8       GetTimeZoneInformation     000987d8 f   coredll:COREDLL.dll
 0001:000877e8       GetThreadPriority          000987e8 f   coredll:COREDLL.dll
 0001:000877f8       ReleaseMutex               000987f8 f   coredll:COREDLL.dll
 0001:00087808       CreateMutexW               00098808 f   coredll:COREDLL.dll
 0002:00000000       __xc_a                     0009f000     corelibc:crt0init.obj
 0002:00000068       __xc_z                     0009f068     corelibc:crt0init.obj
 0002:0000006c       __xi_a                     0009f06c     corelibc:crt0init.obj
 0002:00000070       __xi_z                     0009f070     corelibc:crt0init.obj
 0002:00000074       __xp_a                     0009f074     corelibc:crt0init.obj
 0002:00000078       __xp_z                     0009f078     corelibc:crt0init.obj
 0002:0000007c       __xt_a                     0009f07c     corelibc:crt0init.obj
 0002:00000080       __xt_z                     0009f080     corelibc:crt0init.obj
 0002:00000100       ??_C@_1M@BOAHPOHA@?$AAL?$AAS?$AAD?$AA1?$AA?3?$AA?$AA@ 0009f100     astlogapi:AstLogApi.obj
 0002:000003a0       ??_SCDvrMngIF@MEMMANAGERDVRDLL@@6B@ 0009f3a0     memmanagerlibrary:MEM_MemoryManager.obj
 0002:000003a4       ??_SCHmiControlIF@MEMMANAGERDVRDLL@@6B@ 0009f3a4     memmanagerlibrary:MEM_MemoryManager.obj
 0002:000003a8       ??_SCCommonIF@MEMMANAGERDVRDLL@@6B@ 0009f3a8     memmanagerlibrary:MEM_MemoryManager.obj
 0002:000003ac       ??_SCCommonUIIF@MEMMANAGERDVRDLL@@6B@ 0009f3ac     memmanagerlibrary:MEM_MemoryManager.obj
 0002:000003b0       ??_SCHmiControlDtvIF@MEMMANAGERDTVDLL@@6B@ 0009f3b0     memmanagerlibrary:MEM_MemoryManager.obj
 0002:000003b4       ??_SCCommonDtvUIIF@MEMMANAGERDTVDLL@@6B@ 0009f3b4     memmanagerlibrary:MEM_MemoryManager.obj
 0002:000003b8       ??_SCCommonDtvIF@MEMMANAGERDTVDLL@@6B@ 0009f3b8     memmanagerlibrary:MEM_MemoryManager.obj
 0002:000003bc       ??_SCIPodMmIF@MEMMANAGERMMDLL@@6B@ 0009f3bc     memmanagerlibrary:MEM_MemoryManager.obj
 0002:000003c0       ??_SCAudioControlMmIF@MEMMANAGERMMDLL@@6B@ 0009f3c0     memmanagerlibrary:MEM_MemoryManager.obj
 0002:000003c4       ??_SCHmiControlMmIF@MEMMANAGERMMDLL@@6B@ 0009f3c4     memmanagerlibrary:MEM_MemoryManager.obj
 0002:000003c8       ??_SCCommonMmUIIF@MEMMANAGERMMDLL@@6B@ 0009f3c8     memmanagerlibrary:MEM_MemoryManager.obj
 0002:000003cc       ??_SCCommonMmIF@MEMMANAGERMMDLL@@6B@ 0009f3cc     memmanagerlibrary:MEM_MemoryManager.obj
 0002:000003d0       ??_SCHmiControlCnfIF@MEMMANAGERSMDLL@@6B@ 0009f3d0     memmanagerlibrary:MEM_MemoryManager.obj
 0002:000003d4       ??_SCHmiCtrlCnfBaseIF@MEMMANAGERBASEDLL@@6B@ 0009f3d4     memmanagerlibrary:MEM_MemoryManager.obj
 0002:000003d8       ??_SCCommonSmIF@MEMMANAGERSMDLL@@6B@ 0009f3d8     memmanagerlibrary:MEM_MemoryManager.obj
 0002:000003dc       ??_SCCommonCnfUIIF@MEMMANAGERSMDLL@@6B@ 0009f3dc     memmanagerlibrary:MEM_MemoryManager.obj
 0002:000003e0       ??_SCHmiControlIF@MEMMANAGERNAVIDLL@@6B@ 0009f3e0     memmanagerlibrary:MEM_MemoryManager.obj
 0002:000003e4       ??_SCCommonUIIF@MEMMANAGERNAVIDLL@@6B@ 0009f3e4     memmanagerlibrary:MEM_MemoryManager.obj
 0002:000003e8       ??_SCCommonIF@MEMMANAGERNAVIDLL@@6B@ 0009f3e8     memmanagerlibrary:MEM_MemoryManager.obj
 0002:000003ec       ??_SCHmiCtrlNaviBaseIF@MEMMANAGERBASEDLL@@6B@ 0009f3ec     memmanagerlibrary:MEM_MemoryManager.obj
 0002:000003f0       ??_SCCommonBaseUIIF@MEMMANAGERBASEDLL@@6B@ 0009f3f0     memmanagerlibrary:MEM_MemoryManager.obj
 0002:000003f4       ??_7MEM_MemoryManager@@6B@ 0009f3f4     memmanagerlibrary:MEM_MemoryManager.obj
 0002:00000454       ??_7SYS_Object@@6B@        0009f454     memmanagerlibrary:MEM_Ole32.obj
 0002:00000454       ??_7MEM_Ole32@@6B@         0009f454     memmanagerlibrary:MEM_Ole32.obj
 0002:00000478       ??_C@_0BD@IIMDKNON@Initialize?5Error?$AN?6?$AA@ 0009f478     syslibrary:SYS_LOG.obj
 0002:0000048c       ??_C@_0BF@GKMOEDFO@Thread?5Close?5Error?$AN?6?$AA@ 0009f48c     syslibrary:SYS_LOG.obj
 0002:000004a4       ??_C@_0BG@JODPILMK@Thread?5Create?5Error?$AN?6?$AA@ 0009f4a4     syslibrary:SYS_LOG.obj
 0002:000004bc       ??_C@_0BD@MHKKEHIC@Memory?5Low?5Error?$AN?6?$AA@ 0009f4bc     syslibrary:SYS_LOG.obj
 0002:000004d0       ??_C@_0BB@OPPMLNBO@Not?5File?5Error?$AN?6?$AA@ 0009f4d0     syslibrary:SYS_LOG.obj
 0002:000004e4       ??_C@_0BJ@PJNJEIDM@Access?5Violation?5Error?$AN?6?$AA@ 0009f4e4     syslibrary:SYS_LOG.obj
 0002:00000500       ??_C@_05ICNCMKG@?$FL0x6?$FN?$AA@ 0009f500     syslibrary:SYS_LOG.obj
 0002:00000508       ??_C@_05KGLJCPP@?$FL0x5?$FN?$AA@ 0009f508     syslibrary:SYS_LOG.obj
 0002:00000510       ??_C@_05LKJPIMI@?$FL0x4?$FN?$AA@ 0009f510     syslibrary:SYS_LOG.obj
 0002:00000518       ??_C@_05OOGOOEN@?$FL0x3?$FN?$AA@ 0009f518     syslibrary:SYS_LOG.obj
 0002:00000520       ??_C@_05PCEIEHK@?$FL0x2?$FN?$AA@ 0009f520     syslibrary:SYS_LOG.obj
 0002:00000528       ??_C@_05NGCDKCD@?$FL0x1?$FN?$AA@ 0009f528     syslibrary:SYS_LOG.obj
 0002:00000530       ??_C@_03NLNGBBHE@PAG?$AA@  0009f530     syslibrary:SYS_LOG.obj
 0002:00000534       ??_C@_03CBICCOIB@RCV?$AA@  0009f534     syslibrary:SYS_LOG.obj
 0002:00000538       ??_C@_03OJBCKKGE@SND?$AA@  0009f538     syslibrary:SYS_LOG.obj
 0002:0000053c       ??_C@_03JMHEAPMO@INT?$AA@  0009f53c     syslibrary:SYS_LOG.obj
 0002:00000540       ??_C@_05MONKHAAL@?$FLDBG?$FN?$AA@ 0009f540     syslibrary:SYS_LOG.obj
 0002:00000548       ??_C@_05GMONNBOM@?$FLNOR?$FN?$AA@ 0009f548     syslibrary:SYS_LOG.obj
 0002:00000550       ??_C@_05HNFOGBDF@?$FLINF?$FN?$AA@ 0009f550     syslibrary:SYS_LOG.obj
 0002:00000558       ??_C@_05OBMCFDCM@?$FLWAR?$FN?$AA@ 0009f558     syslibrary:SYS_LOG.obj
 0002:00000560       ??_C@_05LJEOGPLP@?$FLERR?$FN?$AA@ 0009f560     syslibrary:SYS_LOG.obj
 0002:00000588       ??_7SYS_LOG@@6B@           0009f588     syslibrary:SYS_LOG.obj
 0002:00000618       ??_C@_1CM@MPLMMFMG@?$AAS?$AAY?$AAS?$AA_?$AAL?$AAO?$AAG?$AA?3?$AA?3?$AAL?$AAo?$AAg?$AAR?$AAo?$AAt?$AAa?$AAt?$AAe?$AA?5?$AA?$CF?$AAd?$AA?$AA@ 0009f618     syslibrary:SYS_LOG.obj
 0002:00000644       ??_C@_19LKKOIHJI@?$AA?4?$AAt?$AAm?$AAp?$AA?$AA@ 0009f644     syslibrary:SYS_LOG.obj
 0002:00000650       ??_C@_1CM@CHCKKOA@?$AAS?$AAY?$AAS?$AA_?$AAL?$AAO?$AAG?$AA?3?$AA?3?$AAL?$AAo?$AAg?$AAR?$AAo?$AAt?$AAa?$AAt?$AAe?$AA?5?$AA?$CF?$AAs?$AA?$AA@ 0009f650     syslibrary:SYS_LOG.obj
 0002:0000067c       ??_C@_1DC@IMBMGID@?$AA?2?$AAS?$AAh?$AAe?$AAl?$AAl?$AAD?$AAi?$AAs?$AAk?$AA?2?$AAL?$AAo?$AAg?$AAR?$AAo?$AAt?$AAa?$AAt?$AAe?$AA?4?$AAe?$AAx?$AAe?$AA?$AA@ 0009f67c     syslibrary:SYS_LOG.obj
 0002:000006b0       ??_C@_1CE@LFMMHFMC@?$AA?2?$AAS?$AAh?$AAe?$AAl?$AAl?$AAD?$AAi?$AAs?$AAk?$AA?2?$AAS?$AAY?$AAS?$AAL?$AAO?$AAG?$AA?$AA@ 0009f6b0     syslibrary:SYS_LOG.obj
 0002:000006d4       ??_C@_02PCIJFNDE@?$AN?6?$AA@ 0009f6d4     syslibrary:SYS_LOG.obj
 0002:000006d8       ??_C@_05BCOLFB@?$FLEOF?$FN?$AA@ 0009f6d8     syslibrary:SYS_LOG.obj
 0002:000006e0       ??_C@_1FA@LMEDLKMK@?$AAS?$AAY?$AAS?$AA_?$AAL?$AAO?$AAG?$AA?3?$AA?3?$AAS?$AAu?$AAb?$AAM?$AAo?$AAd?$AAu?$AAl?$AAe?$AAW?$AAr?$AAi?$AAt?$AAe?$AA?5?$AAS?$AAa?$AAf?$AAe?$AA?5?$AAR?$AAo?$AAt@ 0009f6e0     syslibrary:SYS_LOG.obj
 0002:00000730       ??_C@_0BD@KAADOMFI@?$CF010d?5?3?5?$CFs?5?$CFs?5?$CFs?$AN?6?$AA@ 0009f730     syslibrary:SYS_LOG.obj
 0002:00000798       ??_7SYS_INIFile@@6B@       0009f798     syslibrary:SYS_INIFile.obj
 0002:0000079c       ??_C@_04LIFAFMCE@?$FL?$CFs?$FN?$AA@ 0009f79c     syslibrary:SYS_INIFile.obj
 0002:000007a4       ??_C@_03HFAIOBFI@?$CFs?$DN?$AA@ 0009f7a4     syslibrary:SYS_INIFile.obj
 0002:00000860       ??_C@_0DG@JJNGHGAB@SYS_INIFile?3?3GetPrivateProfileSt@ 0009f860     syslibrary:SYS_INIFile.obj
 0002:000008d8       ??_C@_0DD@FHBLDDIF@SYS_INIFile?3?3GetPrivateProfileIn@ 0009f8d8     syslibrary:SYS_INIFile.obj
 0002:000009b0       ??_7SYS_Sync@@6B@          0009f9b0     syslibrary:SYS_Sync.obj
 0002:00000a10       ??_C@_0O@MIBDFLDP@COleException?$AA@ 0009fa10     uafxcw:olemisc.obj
 0002:00000a20       ?classCOleException@COleException@@2UCRuntimeClass@@B 0009fa20     uafxcw:olemisc.obj
 0002:00000a40       ??_7COleException@@6B@     0009fa40     uafxcw:olemisc.obj
 0002:00000a94       ??_C@_0BF@JDJEAIOB@CInvalidArgException?$AA@ 0009fa94     uafxcw:except.obj
 0002:00000aac       ??_C@_0BH@EAGMGDLP@CNotSupportedException?$AA@ 0009faac     uafxcw:except.obj
 0002:00000ac4       ??_C@_0BB@HMFCKMLN@CMemoryException?$AA@ 0009fac4     uafxcw:except.obj
 0002:00000ad8       ??_C@_0BB@CNLANGGN@CSimpleException?$AA@ 0009fad8     uafxcw:except.obj
 0002:00000aec       ??_C@_0L@JGHLGBLN@CException?$AA@ 0009faec     uafxcw:except.obj
 0002:00000af8       ?classCException@CException@@2UCRuntimeClass@@B 0009faf8     uafxcw:except.obj
 0002:00000b14       ?classCSimpleException@CSimpleException@@2UCRuntimeClass@@B 0009fb14     uafxcw:except.obj
 0002:00000b30       ?classCMemoryException@CMemoryException@@2UCRuntimeClass@@B 0009fb30     uafxcw:except.obj
 0002:00000b4c       ?classCNotSupportedException@CNotSupportedException@@2UCRuntimeClass@@B 0009fb4c     uafxcw:except.obj
 0002:00000b68       ?classCInvalidArgException@CInvalidArgException@@2UCRuntimeClass@@B 0009fb68     uafxcw:except.obj
 0002:00000bbc       ??_7CSimpleException@@6B@  0009fbbc     uafxcw:except.obj
 0002:00000bd8       ??_7CMemoryException@@6B@  0009fbd8     uafxcw:except.obj
 0002:00000bf4       ??_7CNotSupportedException@@6B@ 0009fbf4     uafxcw:except.obj
 0002:00000c10       ??_7CInvalidArgException@@6B@ 0009fc10     uafxcw:except.obj
 0002:00000c2c       ??_7CAfxStringMgr@@6B@     0009fc2c     uafxcw:strcore.obj
 0002:00000c7c       ??_C@_07GCJEGOGK@CBitmap?$AA@ 0009fc7c     uafxcw:wingdi.obj
 0002:00000c84       ??_C@_05HKBNDGPK@CFont?$AA@ 0009fc84     uafxcw:wingdi.obj
 0002:00000c8c       ??_C@_06HBIADAKF@CBrush?$AA@ 0009fc8c     uafxcw:wingdi.obj
 0002:00000c94       ??_C@_04FIOBGKDL@CPen?$AA@ 0009fc94     uafxcw:wingdi.obj
 0002:00000c9c       ??_C@_0L@EAFIEMIL@CGdiObject?$AA@ 0009fc9c     uafxcw:wingdi.obj
 0002:00000ca8       ??_C@_08MHGNPJKL@CPaintDC?$AA@ 0009fca8     uafxcw:wingdi.obj
 0002:00000cb4       ??_C@_03PLNNOOOK@CDC?$AA@  0009fcb4     uafxcw:wingdi.obj
 0002:00000cb8       ??_C@_0P@MCKPIMM@CUserException?$AA@ 0009fcb8     uafxcw:wingdi.obj
 0002:00000cc8       ??_C@_0BD@LKICOBNI@CResourceException?$AA@ 0009fcc8     uafxcw:wingdi.obj
 0002:00000cdc       ?classCResourceException@CResourceException@@2UCRuntimeClass@@B 0009fcdc     uafxcw:wingdi.obj
 0002:00000cf8       ?classCUserException@CUserException@@2UCRuntimeClass@@B 0009fcf8     uafxcw:wingdi.obj
 0002:00000d14       ?classCDC@CDC@@2UCRuntimeClass@@B 0009fd14     uafxcw:wingdi.obj
 0002:00000d30       ?classCPaintDC@CPaintDC@@2UCRuntimeClass@@B 0009fd30     uafxcw:wingdi.obj
 0002:00000d4c       ?classCGdiObject@CGdiObject@@2UCRuntimeClass@@B 0009fd4c     uafxcw:wingdi.obj
 0002:00000d68       ?classCPen@CPen@@2UCRuntimeClass@@B 0009fd68     uafxcw:wingdi.obj
 0002:00000d84       ?classCBrush@CBrush@@2UCRuntimeClass@@B 0009fd84     uafxcw:wingdi.obj
 0002:00000da0       ?classCFont@CFont@@2UCRuntimeClass@@B 0009fda0     uafxcw:wingdi.obj
 0002:00000dbc       ?classCBitmap@CBitmap@@2UCRuntimeClass@@B 0009fdbc     uafxcw:wingdi.obj
 0002:00000ddc       ??_7CResourceException@@6B@ 0009fddc     uafxcw:wingdi.obj
 0002:00000df8       ??_7CUserException@@6B@    0009fdf8     uafxcw:wingdi.obj
 0002:00000e14       ??_7CGdiObject@@6B@        0009fe14     uafxcw:wingdi.obj
 0002:00000e24       ??_7CDC@@6B@               0009fe24     uafxcw:wingdi.obj
 0002:00000f24       ??_7CPaintDC@@6B@          0009ff24     uafxcw:wingdi.obj
 0002:00000fa0       ??_7CBrush@@6B@            0009ffa0     uafxcw:wingdi.obj
 0002:00000fb0       ??_7CBitmap@@6B@           0009ffb0     uafxcw:wingdi.obj
 0002:00000ff4       ??_7CPen@@6B@              0009fff4     uafxcw:wingdi.obj
 0002:00001034       ??_C@_04DDIMFFOJ@CWnd?$AA@ 000a0034     uafxcw:wincore.obj
 0002:0000103c       ?_afxWnd@@3QB_WB           000a003c     uafxcw:wincore.obj
 0002:00001054       ?_afxWndControlBar@@3QB_WB 000a0054     uafxcw:wincore.obj
 0002:00001078       ?_afxWndMDIFrame@@3QB_WB   000a0078     uafxcw:wincore.obj
 0002:00001098       ?_afxWndFrameOrView@@3QB_WB 000a0098     uafxcw:wincore.obj
 0002:000010c0       ?_afxWndOleControl@@3QB_WB 000a00c0     uafxcw:wincore.obj
 0002:000010f0       ?classCWnd@CWnd@@2UCRuntimeClass@@B 000a00f0     uafxcw:wincore.obj
 0002:00001114       ??_7CWnd@@6B@              000a0114     uafxcw:wincore.obj
 0002:000011d8       ??_7CTestCmdUI@@6B@        000a01d8     uafxcw:wincore.obj
 0002:000012d0       ??_C@_1CG@LNMJALAI@?$AAI?$AAn?$AAi?$AAt?$AAC?$AAo?$AAm?$AAm?$AAo?$AAn?$AAC?$AAo?$AAn?$AAt?$AAr?$AAo?$AAl?$AAs?$AA?$AA@ 000a02d0     uafxcw:wincore.obj
 0002:000012f8       ??_C@_1CK@JHBHHHJE@?$AAI?$AAn?$AAi?$AAt?$AAC?$AAo?$AAm?$AAm?$AAo?$AAn?$AAC?$AAo?$AAn?$AAt?$AAr?$AAo?$AAl?$AAs?$AAE?$AAx?$AA?$AA@ 000a02f8     uafxcw:wincore.obj
 0002:00001794       ??_C@_1CG@OIBFCNKA@?$AAA?$AAf?$AAx?$AA?3?$AA?$CF?$AAp?$AA?3?$AA?$CF?$AAx?$AA?3?$AA?$CF?$AAp?$AA?3?$AA?$CF?$AAp?$AA?3?$AA?$CF?$AAp?$AA?$AA@ 000a0794     uafxcw:wincore.obj
 0002:000017bc       ??_C@_1BE@HKKEDLN@?$AAA?$AAf?$AAx?$AA?3?$AA?$CF?$AAp?$AA?3?$AA?$CF?$AAx?$AA?$AA@ 000a07bc     uafxcw:wincore.obj
 0002:00001840       ??_C@_17PMMIGNB@?$AAA?$AAf?$AAx?$AA?$AA@ 000a0840     uafxcw:wincore.obj
 0002:00001848       ??_C@_07BOOFINFL@CDialog?$AA@ 000a0848     uafxcw:dlgcore.obj
 0002:00001850       ?classCDialog@CDialog@@2UCRuntimeClass@@B 000a0850     uafxcw:dlgcore.obj
 0002:00001874       ??_7CDialog@@6B@           000a0874     uafxcw:dlgcore.obj
 0002:000019e8       ??_C@_19PLOBJMHF@?$AAE?$AAd?$AAi?$AAt?$AA?$AA@ 000a09e8     uafxcw:dlgcore.obj
 0002:00001c30       ??_C@_0L@GDEMJNJL@CCmdTarget?$AA@ 000a0c30     uafxcw:cmdtarg.obj
 0002:00001c3c       ?_dispatchEntries@CCmdTarget@@0QBUAFX_DISPMAP_ENTRY@@B 000a0c3c     uafxcw:cmdtarg.obj
 0002:00001c5c       ?dispatchMap@CCmdTarget@@1UAFX_DISPMAP@@B 000a0c5c     uafxcw:cmdtarg.obj
 0002:00001c6c       ?_eventsinkEntries@CCmdTarget@@0QBUAFX_EVENTSINKMAP_ENTRY@@B 000a0c6c     uafxcw:cmdtarg.obj
 0002:00001c94       ?eventsinkMap@CCmdTarget@@1UAFX_EVENTSINKMAP@@B 000a0c94     uafxcw:cmdtarg.obj
 0002:00001ca0       ?_interfaceEntries@CCmdTarget@@0QBUAFX_INTERFACEMAP_ENTRY@@B 000a0ca0     uafxcw:cmdtarg.obj
 0002:00001cb0       ?interfaceMap@CCmdTarget@@1UAFX_INTERFACEMAP@@B 000a0cb0     uafxcw:cmdtarg.obj
 0002:00001cb8       ?_connectionEntries@CCmdTarget@@0QBUAFX_CONNECTIONMAP_ENTRY@@B 000a0cb8     uafxcw:cmdtarg.obj
 0002:00001cc0       ?connectionMap@CCmdTarget@@1UAFX_CONNECTIONMAP@@B 000a0cc0     uafxcw:cmdtarg.obj
 0002:00001cc8       ?classCCmdTarget@CCmdTarget@@2UCRuntimeClass@@B 000a0cc8     uafxcw:cmdtarg.obj
 0002:00001cf0       ??_7CCmdUI@@6B@            000a0cf0     uafxcw:cmdtarg.obj
 0002:00001d00       ??_C@_0L@NIPBFAPJ@CImageList?$AA@ 000a0d00     uafxcw:winctrl2.obj
 0002:00001d0c       ??_C@_09LGPKGIAP@CListCtrl?$AA@ 000a0d0c     uafxcw:winctrl2.obj
 0002:00001d18       ?classCListCtrl@CListCtrl@@2UCRuntimeClass@@B 000a0d18     uafxcw:winctrl2.obj
 0002:00001d34       ?classCImageList@CImageList@@2UCRuntimeClass@@B 000a0d34     uafxcw:winctrl2.obj
 0002:00001d94       ??_7CListCtrl@@6B@         000a0d94     uafxcw:winctrl2.obj
 0002:00001e58       ??_C@_1CC@BEAKEANF@?$AAI?$AAm?$AAa?$AAg?$AAe?$AAL?$AAi?$AAs?$AAt?$AA_?$AAC?$AAr?$AAe?$AAa?$AAt?$AAe?$AA?$AA@ 000a0e58     uafxcw:winctrl2.obj
 0002:00001e7c       ??_C@_1CE@CHHEMNFO@?$AAI?$AAm?$AAa?$AAg?$AAe?$AAL?$AAi?$AAs?$AAt?$AA_?$AAD?$AAe?$AAs?$AAt?$AAr?$AAo?$AAy?$AA?$AA@ 000a0e7c     uafxcw:winctrl2.obj
 0002:00001ea4       ??_7CImageList@@6B@        000a0ea4     uafxcw:winctrl2.obj
 0002:00001f7c       ??_C@_0DJ@JAGHMIAP@f?3?2dd?2vctools?2vc7libsce?2ship?2atl@ 000a0f7c     uafxcw:winctrl2.obj
 0002:00001ff4       ??_7_AFX_THREAD_STATE@@6B@ 000a0ff4     uafxcw:afxstate.obj
 0002:00001ff8       ??_C@_1BC@IIOGDLPJ@?$AAP?$AAo?$AAc?$AAk?$AAe?$AAt?$AAP?$AAC?$AA?$AA@ 000a0ff8     uafxcw:afxstate.obj
 0002:0000200c       ??_C@_1BG@OGGJLGIA@?$AAS?$AAm?$AAa?$AAr?$AAt?$AAp?$AAh?$AAo?$AAn?$AAe?$AA?$AA@ 000a100c     uafxcw:afxstate.obj
 0002:00002024       ??_C@_1CA@IMHGPOPK@?$AAS?$AAH?$AAC?$AAr?$AAe?$AAa?$AAt?$AAe?$AAM?$AAe?$AAn?$AAu?$AAB?$AAa?$AAr?$AA?$AA@ 000a1024     uafxcw:afxstate.obj
 0002:00002044       ??_C@_1BK@KJEKKOFJ@?$AAS?$AAH?$AAD?$AAo?$AAn?$AAe?$AAB?$AAu?$AAt?$AAt?$AAo?$AAn?$AA?$AA@ 000a1044     uafxcw:afxstate.obj
 0002:00002060       ??_C@_1BM@KNCJHJGG@?$AAS?$AAH?$AAF?$AAi?$AAn?$AAd?$AAM?$AAe?$AAn?$AAu?$AAB?$AAa?$AAr?$AA?$AA@ 000a1060     uafxcw:afxstate.obj
 0002:0000207c       ??_C@_1BK@HFIHCFMH@?$AAS?$AAH?$AAI?$AAn?$AAi?$AAt?$AAD?$AAi?$AAa?$AAl?$AAo?$AAg?$AA?$AA@ 000a107c     uafxcw:afxstate.obj
 0002:00002098       ??_C@_1CG@DKPHFOJE@?$AAS?$AAH?$AAR?$AAe?$AAc?$AAo?$AAg?$AAn?$AAi?$AAz?$AAe?$AAG?$AAe?$AAs?$AAt?$AAu?$AAr?$AAe?$AA?$AA@ 000a1098     uafxcw:afxstate.obj
 0002:000020c0       ??_C@_1BE@NKBHOEBN@?$AAS?$AAH?$AAS?$AAi?$AAp?$AAI?$AAn?$AAf?$AAo?$AA?$AA@ 000a10c0     uafxcw:afxstate.obj
 0002:000020d4       ??_C@_1CA@PCKJNJKF@?$AAS?$AAH?$AAS?$AAi?$AAp?$AAP?$AAr?$AAe?$AAf?$AAe?$AAr?$AAe?$AAn?$AAc?$AAe?$AA?$AA@ 000a10d4     uafxcw:afxstate.obj
 0002:000020f8       ??_7_AFX_AYGSHELL_STATE@@6B@ 000a10f8     uafxcw:afxstate.obj
 0002:000020fc       ??_C@_1BK@FOIOLMNN@?$AAA?$AAY?$AAG?$AAS?$AAH?$AAE?$AAL?$AAL?$AA?4?$AAD?$AAL?$AAL?$AA?$AA@ 000a10fc     uafxcw:afxstate.obj
 0002:0000211c       ??_7AFX_MODULE_THREAD_STATE@@6B@ 000a111c     uafxcw:afxstate.obj
 0002:000021a4       ??_7AFX_MODULE_STATE@@6B@  000a11a4     uafxcw:afxstate.obj
 0002:000021ac       ??_7CDllIsolationWrapperBase@@6B@ 000a11ac     uafxcw:afxstate.obj
 0002:000021f0       ??_7CComCtlWrapper@@6B@    000a11f0     uafxcw:afxstate.obj
 0002:000021f4       ??_C@_1BK@NAKKEEKA@?$AAc?$AAo?$AAm?$AAm?$AAc?$AAt?$AAr?$AAl?$AA?4?$AAd?$AAl?$AAl?$AA?$AA@ 000a11f4     uafxcw:afxstate.obj
 0002:000022b8       ??_7_AFX_BASE_MODULE_STATE@@6B@ 000a12b8     uafxcw:afxstate.obj
 0002:000022f0       ??_C@_05PCLJOFI@CFile?$AA@ 000a12f0     uafxcw:filecore.obj
 0002:000022f8       ?hFileNull@CFile@@2QAXA    000a12f8     uafxcw:filecore.obj
 0002:000022fc       ?classCFile@CFile@@2UCRuntimeClass@@B 000a12fc     uafxcw:filecore.obj
 0002:0000231c       ??_7CFile@@6B@             000a131c     uafxcw:filecore.obj
 0002:00002368       ??_7CFileException@@6B@    000a1368     uafxcw:filecore.obj
 0002:00002428       ??_C@_0DJ@KFPBKKEI@f?3?2dd?2vctools?2vc7libsce?2ship?2atl@ 000a1428     uafxcw:filecore.obj
 0002:00002544       ??_C@_0BC@IIDFIFGA@CArchiveException?$AA@ 000a1544     uafxcw:arcex.obj
 0002:00002558       ?classCArchiveException@CArchiveException@@2UCRuntimeClass@@B 000a1558     uafxcw:arcex.obj
 0002:00002650       ??_7CArchiveException@@6B@ 000a1650     uafxcw:arcex.obj
 0002:000026a4       ??_C@_07BEAIOPAP@CObject?$AA@ 000a16a4     uafxcw:objcore.obj
 0002:000026cc       ?classCObject@CObject@@2UCRuntimeClass@@B 000a16cc     uafxcw:objcore.obj
 0002:00002764       ??_C@_07OFEOKGEK@CButton?$AA@ 000a1764     uafxcw:winctrl1.obj
 0002:0000276c       ?classCButton@CButton@@2UCRuntimeClass@@B 000a176c     uafxcw:winctrl1.obj
 0002:00002788       ??_C@_1O@MOBNNEMB@?$AAB?$AAU?$AAT?$AAT?$AAO?$AAN?$AA?$AA@ 000a1788     uafxcw:winctrl1.obj
 0002:000027dc       ??_7CButton@@6B@           000a17dc     uafxcw:winctrl1.obj
 0002:000028a4       ??_C@_07IKCCILOB@CWinApp?$AA@ 000a18a4     uafxcw:appcore.obj
 0002:000028ac       ?classCWinApp@CWinApp@@2UCRuntimeClass@@B 000a18ac     uafxcw:appcore.obj
 0002:00002930       ??_C@_1HI@BEGLNFHN@?$AAS?$AAo?$AAf?$AAt?$AAw?$AAa?$AAr?$AAe?$AA?2?$AAM?$AAi?$AAc?$AAr?$AAo?$AAs?$AAo?$AAf?$AAt?$AA?2?$AAW?$AAi?$AAn?$AAd?$AAo?$AAw?$AAs?$AA?2?$AAC?$AAu?$AAr?$AAr?$AAe@ 000a1930     uafxcw:appcore.obj
 0002:000029a8       ??_C@_1M@OKIBOKHK@?$AAN?$AAo?$AAR?$AAu?$AAn?$AA?$AA@ 000a19a8     uafxcw:appcore.obj
 0002:000029b4       ??_C@_1BC@HKPFPJFB@?$AAN?$AAo?$AAD?$AAr?$AAi?$AAv?$AAe?$AAs?$AA?$AA@ 000a19b4     uafxcw:appcore.obj
 0002:000029c8       ??_C@_1BI@DKHHPKNA@?$AAR?$AAe?$AAs?$AAt?$AAr?$AAi?$AAc?$AAt?$AAR?$AAu?$AAn?$AA?$AA@ 000a19c8     uafxcw:appcore.obj
 0002:000029e0       ??_C@_1CO@HEAJHELN@?$AAN?$AAo?$AAN?$AAe?$AAt?$AAC?$AAo?$AAn?$AAn?$AAe?$AAc?$AAt?$AAD?$AAi?$AAs?$AAc?$AAo?$AAn?$AAn?$AAe?$AAc?$AAt?$AA?$AA@ 000a19e0     uafxcw:appcore.obj
 0002:00002a10       ??_C@_1CI@GMGHDJBA@?$AAN?$AAo?$AAR?$AAe?$AAc?$AAe?$AAn?$AAt?$AAD?$AAo?$AAc?$AAs?$AAH?$AAi?$AAs?$AAt?$AAo?$AAr?$AAy?$AA?$AA@ 000a1a10     uafxcw:appcore.obj
 0002:00002a38       ??_C@_1BA@MDFCMEJD@?$AAN?$AAo?$AAC?$AAl?$AAo?$AAs?$AAe?$AA?$AA@ 000a1a38     uafxcw:appcore.obj
 0002:00002a48       ??_C@_1HG@JDBPKELM@?$AAS?$AAo?$AAf?$AAt?$AAw?$AAa?$AAr?$AAe?$AA?2?$AAM?$AAi?$AAc?$AAr?$AAo?$AAs?$AAo?$AAf?$AAt?$AA?2?$AAW?$AAi?$AAn?$AAd?$AAo?$AAw?$AAs?$AA?2?$AAC?$AAu?$AAr?$AAr?$AAe@ 000a1a48     uafxcw:appcore.obj
 0002:00002ac0       ??_C@_1CA@LENOFLJF@?$AAN?$AAo?$AAE?$AAn?$AAt?$AAi?$AAr?$AAe?$AAN?$AAe?$AAt?$AAw?$AAo?$AAr?$AAk?$AA?$AA@ 000a1ac0     uafxcw:appcore.obj
 0002:00002ae0       ??_C@_1HI@EICCKCEB@?$AAS?$AAo?$AAf?$AAt?$AAw?$AAa?$AAr?$AAe?$AA?2?$AAM?$AAi?$AAc?$AAr?$AAo?$AAs?$AAo?$AAf?$AAt?$AA?2?$AAW?$AAi?$AAn?$AAd?$AAo?$AAw?$AAs?$AA?2?$AAC?$AAu?$AAr?$AAr?$AAe@ 000a1ae0     uafxcw:appcore.obj
 0002:00002b58       ??_C@_1BI@LKJFALG@?$AAN?$AAo?$AAP?$AAl?$AAa?$AAc?$AAe?$AAs?$AAB?$AAa?$AAr?$AA?$AA@ 000a1b58     uafxcw:appcore.obj
 0002:00002b70       ??_C@_1BK@OMFGAJHO@?$AAN?$AAo?$AAB?$AAa?$AAc?$AAk?$AAB?$AAu?$AAt?$AAt?$AAo?$AAn?$AA?$AA@ 000a1b70     uafxcw:appcore.obj
 0002:00002b8c       ??_C@_1BE@CAPPMJKJ@?$AAN?$AAo?$AAF?$AAi?$AAl?$AAe?$AAM?$AAr?$AAu?$AA?$AA@ 000a1b8c     uafxcw:appcore.obj
 0002:00002ba0       ??_C@_17JDEALIFO@?$AAL?$AAO?$AAC?$AA?$AA@ 000a1ba0     uafxcw:appcore.obj
 0002:00002ba8       ??_C@_1DG@KAEEFMFO@?$AAG?$AAe?$AAt?$AAS?$AAy?$AAs?$AAt?$AAe?$AAm?$AAD?$AAe?$AAf?$AAa?$AAu?$AAl?$AAt?$AAU?$AAI?$AAL?$AAa?$AAn?$AAg?$AAu?$AAa?$AAg?$AAe?$AA?$AA@ 000a1ba8     uafxcw:appcore.obj
 0002:00002be0       ??_C@_1DC@HOEBKPBC@?$AAG?$AAe?$AAt?$AAU?$AAs?$AAe?$AAr?$AAD?$AAe?$AAf?$AAa?$AAu?$AAl?$AAt?$AAU?$AAI?$AAL?$AAa?$AAn?$AAg?$AAu?$AAa?$AAg?$AAe?$AA?$AA@ 000a1be0     uafxcw:appcore.obj
 0002:00002c14       ??_C@_1BC@MGBGLBIH@?$AA?$CF?$AAs?$AA?$CF?$AAs?$AA?4?$AAd?$AAl?$AAl?$AA?$AA@ 000a1c14     uafxcw:appcore.obj
 0002:00002c64       ??_7CWinApp@@6B@           000a1c64     uafxcw:appcore.obj
 0002:00002d9c       ??_C@_0DI@FDPJHHMF@f?3?2dd?2vctools?2vc7libsce?2ship?2atl@ 000a1d9c     uafxcw:appcore.obj
 0002:00002dd4       ??_C@_0L@EBOINCAD@CWinThread?$AA@ 000a1dd4     uafxcw:thrdcore.obj
 0002:00002de0       ?classCWinThread@CWinThread@@2UCRuntimeClass@@B 000a1de0     uafxcw:thrdcore.obj
 0002:00002e3c       ??_7CWinThread@@6B@        000a1e3c     uafxcw:thrdcore.obj
 0002:00002fa0       ??_C@_1CE@BMEBBCEF@?$AAS?$AAo?$AAf?$AAt?$AAw?$AAa?$AAr?$AAe?$AA?2?$AAC?$AAl?$AAa?$AAs?$AAs?$AAe?$AAs?$AA?2?$AA?$AA@ 000a1fa0     uafxcw:appui2.obj
 0002:00003034       ??_C@_1BE@FLHKCJKF@?$AAS?$AAo?$AAf?$AAt?$AAw?$AAa?$AAr?$AAe?$AA?2?$AA?$AA@ 000a2034     uafxcw:appui2.obj
 0002:000030d8       ??_C@_0DI@LINDJDKE@f?3?2dd?2vctools?2vc7libsce?2ship?2atl@ 000a20d8     uafxcw:auxdata.obj
 0002:00003188       ??_7CThreadData@@6B@       000a2188     uafxcw:afxtls.obj
 0002:00003274       ??_7?$CMap@PAXPAXPAXPAX@@6B@ 000a2274     uafxcw:winhand.obj
 0002:000032c8       ??_7CHandleMap@@6B@        000a22c8     uafxcw:winhand.obj
 0002:000033ac       ??_C@_1BC@DIEHAPBP@?$AAc?$AAo?$AAm?$AAb?$AAo?$AAb?$AAo?$AAx?$AA?$AA@ 000a23ac     uafxcw:winutil.obj
 0002:000033c0       ??_C@_05HLGLNGMO@CMenu?$AA@ 000a23c0     uafxcw:winmenu.obj
 0002:000033c8       ?classCMenu@CMenu@@2UCRuntimeClass@@B 000a23c8     uafxcw:winmenu.obj
 0002:000033e8       ??_7CMenu@@6B@             000a23e8     uafxcw:winmenu.obj
 0002:00003438       ??_C@_08JCBKBILF@CToolBar?$AA@ 000a2438     uafxcw:bartool.obj
 0002:00003444       ?classCToolBar@CToolBar@@2UCRuntimeClass@@B 000a2444     uafxcw:bartool.obj
 0002:00003460       ??_C@_0M@KLLMHFML@CControlBar?$AA@ 000a2460     uafxcw:winfrm.obj
 0002:0000346c       ??_C@_05BIOOECIG@CView?$AA@ 000a246c     uafxcw:winfrm.obj
 0002:00003474       ??_C@_09PHHOBLDA@CFrameWnd?$AA@ 000a2474     uafxcw:winfrm.obj
 0002:00003480       ?classCFrameWnd@CFrameWnd@@2UCRuntimeClass@@B 000a2480     uafxcw:winfrm.obj
 0002:0000349c       ?classCView@CView@@2UCRuntimeClass@@B 000a249c     uafxcw:winfrm.obj
 0002:000034b8       ?classCControlBar@CControlBar@@2UCRuntimeClass@@B 000a24b8     uafxcw:winfrm.obj
 0002:000034d8       ??_7?$CList@PAXPAX@@6B@    000a24d8     uafxcw:winfrm.obj
 0002:0000351c       ??_7?$CArray@PAUHWND__@@PAU1@@@6B@ 000a251c     uafxcw:winfrm.obj
 0002:00003614       ??_7CFrameWnd@@6B@         000a2614     uafxcw:winfrm.obj
 0002:000037f8       ??_C@_0DH@HEPAODC@f?3?2dd?2vctools?2vc7libsce?2ship?2atl@ 000a27f8     uafxcw:winfrm.obj
 0002:000038dc       ??_C@_17HIKLPLBG@?$AA?5?$AA?9?$AA?5?$AA?$AA@ 000a28dc     uafxcw:winfrm.obj
 0002:000038e4       ??_C@_17GNPFJLPC@?$AA?3?$AA?$CF?$AAd?$AA?$AA@ 000a28e4     uafxcw:winfrm.obj
 0002:00003940       ??_C@_01KICIPPFI@?2?$AA@   000a2940     uafxcw:winfrm.obj
 0002:00003c98       ??_C@_08GGGJDOEG@CDocList?$AA@ 000a2c98     uafxcw:doclist.obj
 0002:00003ca4       ?classCDocList@CDocList@@2UCRuntimeClass@@B 000a2ca4     uafxcw:doclist.obj
 0002:00003cc0       ??_C@_09NNDJFKCO@CFormView?$AA@ 000a2cc0     uafxcw:viewform.obj
 0002:00003ccc       ?classCFormView@CFormView@@2UCRuntimeClass@@B 000a2ccc     uafxcw:viewform.obj
 0002:00003ce8       ??_C@_0O@JDNFJKMO@CCommonDialog?$AA@ 000a2ce8     uafxcw:dlgcomm.obj
 0002:00003cf8       ?classCCommonDialog@CCommonDialog@@2UCRuntimeClass@@B 000a2cf8     uafxcw:dlgcomm.obj
 0002:00003d14       ??_C@_1O@GINMMDNN@?$AAS?$AAy?$AAs?$AAt?$AAe?$AAm?$AA?$AA@ 000a2d14     uafxcw:dlgtempl.obj
 0002:00003db4       ??_C@_0P@ICMFMKFO@CFileException?$AA@ 000a2db4     uafxcw:filex.obj
 0002:00003dc4       ?classCFileException@CFileException@@2UCRuntimeClass@@B 000a2dc4     uafxcw:filex.obj
 0002:00003e70       ??_C@_0M@CDPKIMCK@CScrollView?$AA@ 000a2e70     uafxcw:viewscrl.obj
 0002:00003e7c       ?sizeDefault@CScrollView@@2UtagSIZE@@B 000a2e7c     uafxcw:viewscrl.obj
 0002:00003e84       ?classCScrollView@CScrollView@@2UCRuntimeClass@@B 000a2e84     uafxcw:viewscrl.obj
 0002:00004420       ?dwStyleDefault@CEditView@@2KB 000a3420     uafxcw:viewedit.obj
 0002:00004424       ?nMaxSize@CEditView@@2IB   000a3424     uafxcw:viewedit.obj
 0002:00004428       ??_C@_1CI@IGMCLEED@?$AAc?$AAo?$AAm?$AAm?$AAd?$AAl?$AAg?$AA_?$AAF?$AAi?$AAn?$AAd?$AAR?$AAe?$AAp?$AAl?$AAa?$AAc?$AAe?$AA?$AA@ 000a3428     uafxcw:viewedit.obj
 0002:00004450       ??_7CWin32Heap@ATL@@6B@    000a3450     atls:atlstr.obj
 0002:00004464       ??_7CAtlStringMgr@ATL@@6B@ 000a3464     atls:atlstr.obj
 0002:0000447c       GUID_ATLVer30              000a347c     atls:atlbase.obj
 0002:0000448c       GUID_ATLVer70              000a348c     atls:atlbase.obj
 0002:000044bc       __dnames                   000a34bc     LIBCMT:timeset.obj
 0002:000044d4       __mnames                   000a34d4     LIBCMT:timeset.obj
 0002:000044fc       ??_C@_08JCCMCCIL@HH?3mm?3ss?$AA@ 000a34fc     LIBCMT:strftime.obj
 0002:00004508       ??_C@_0BE@CKGJFCPC@dddd?0?5MMMM?5dd?0?5yyyy?$AA@ 000a3508     LIBCMT:strftime.obj
 0002:0000451c       ??_C@_08BPBNCDIB@MM?1dd?1yy?$AA@ 000a351c     LIBCMT:strftime.obj
 0002:00004528       ??_C@_02CJNFDJBF@PM?$AA@   000a3528     LIBCMT:strftime.obj
 0002:0000452c       ??_C@_02DEDBPAFC@AM?$AA@   000a352c     LIBCMT:strftime.obj
 0002:00004530       ??_C@_08EDHMEBNP@December?$AA@ 000a3530     LIBCMT:strftime.obj
 0002:0000453c       ??_C@_08HCHEGEOA@November?$AA@ 000a353c     LIBCMT:strftime.obj
 0002:00004548       ??_C@_07JJNFCEND@October?$AA@ 000a3548     LIBCMT:strftime.obj
 0002:00004550       ??_C@_09BHHEALKD@September?$AA@ 000a3550     LIBCMT:strftime.obj
 0002:0000455c       ??_C@_06LBBHFDDG@August?$AA@ 000a355c     LIBCMT:strftime.obj
 0002:00004564       ??_C@_04MIEPOIFP@July?$AA@ 000a3564     LIBCMT:strftime.obj
 0002:0000456c       ??_C@_04CNLMGBGM@June?$AA@ 000a356c     LIBCMT:strftime.obj
 0002:00004574       ??_C@_05DMJDNLEJ@April?$AA@ 000a3574     LIBCMT:strftime.obj
 0002:0000457c       ??_C@_05HPCKOFNC@March?$AA@ 000a357c     LIBCMT:strftime.obj
 0002:00004584       ??_C@_08GNJGEPFN@February?$AA@ 000a3584     LIBCMT:strftime.obj
 0002:00004590       ??_C@_07CGJPFGJA@January?$AA@ 000a3590     LIBCMT:strftime.obj
 0002:00004598       ??_C@_03MKABNOCG@Dec?$AA@  000a3598     LIBCMT:strftime.obj
 0002:0000459c       ??_C@_03JPJOFNIA@Nov?$AA@  000a359c     LIBCMT:strftime.obj
 0002:000045a0       ??_C@_03BMAOKBAD@Oct?$AA@  000a35a0     LIBCMT:strftime.obj
 0002:000045a4       ??_C@_03GGCAPAJC@Sep?$AA@  000a35a4     LIBCMT:strftime.obj
 0002:000045a8       ??_C@_03IFJFEIGA@Aug?$AA@  000a35a8     LIBCMT:strftime.obj
 0002:000045ac       ??_C@_03LBGABGKK@Jul?$AA@  000a35ac     LIBCMT:strftime.obj
 0002:000045b0       ??_C@_03IDFGHECI@Jun?$AA@  000a35b0     LIBCMT:strftime.obj
 0002:000045b4       ??_C@_03CNMDKL@May?$AA@    000a35b4     LIBCMT:strftime.obj
 0002:000045b8       ??_C@_03LEOLGMJP@Apr?$AA@  000a35b8     LIBCMT:strftime.obj
 0002:000045bc       ??_C@_03ODNJBKGA@Mar?$AA@  000a35bc     LIBCMT:strftime.obj
 0002:000045c0       ??_C@_03HJBDCHOM@Feb?$AA@  000a35c0     LIBCMT:strftime.obj
 0002:000045c4       ??_C@_03JIHJHPIE@Jan?$AA@  000a35c4     LIBCMT:strftime.obj
 0002:000045c8       ??_C@_08INBOOONO@Saturday?$AA@ 000a35c8     LIBCMT:strftime.obj
 0002:000045d4       ??_C@_06JECMNKMI@Friday?$AA@ 000a35d4     LIBCMT:strftime.obj
 0002:000045dc       ??_C@_08HACCIKIA@Thursday?$AA@ 000a35dc     LIBCMT:strftime.obj
 0002:000045e8       ??_C@_09DLIGFAKA@Wednesday?$AA@ 000a35e8     LIBCMT:strftime.obj
 0002:000045f4       ??_C@_07BAAGCFCM@Tuesday?$AA@ 000a35f4     LIBCMT:strftime.obj
 0002:000045fc       ??_C@_06JLEDEDGH@Monday?$AA@ 000a35fc     LIBCMT:strftime.obj
 0002:00004604       ??_C@_06OOPIFAJ@Sunday?$AA@ 000a3604     LIBCMT:strftime.obj
 0002:0000460c       ??_C@_03FEFJNEK@Sat?$AA@   000a360c     LIBCMT:strftime.obj
 0002:00004610       ??_C@_03IDIOELNC@Fri?$AA@  000a3610     LIBCMT:strftime.obj
 0002:00004614       ??_C@_03IOFIKPDN@Thu?$AA@  000a3614     LIBCMT:strftime.obj
 0002:00004618       ??_C@_03MHOMLAJA@Wed?$AA@  000a3618     LIBCMT:strftime.obj
 0002:0000461c       ??_C@_03NAGEINEP@Tue?$AA@  000a361c     LIBCMT:strftime.obj
 0002:00004620       ??_C@_03PDAGKDH@Mon?$AA@   000a3620     LIBCMT:strftime.obj
 0002:00004624       ??_C@_03KOEHGMDN@Sun?$AA@  000a3624     LIBCMT:strftime.obj
 0002:00004628       __newctype                 000a3628     LIBCMT:ctype.obj
 0002:00004928       _wctype                    000a3928     LIBCMT:ctype.obj
 0002:00004b84       IID_IDispatch              000a3b84     uuid:dcomuuid.obj
 0002:00004b94       ??_C@_1BK@KGELBNAF@?$AAC?$AAu?$AAr?$AAs?$AAo?$AAr?$AAW?$AAi?$AAn?$AAd?$AAo?$AAw?$AA?$AA@ 000a3b94     uafxcw:winmain.obj
 0002:00004bb0       ??_C@_1O@IPFBFMHG@?$AAs?$AAt?$AAa?$AAt?$AAi?$AAc?$AA?$AA@ 000a3bb0     uafxcw:winmain.obj
 0002:00004bc0       ??_C@_1O@DPDMLIJ@?$AAs?$AAh?$AAf?$AAi?$AAn?$AAd?$AA?$AA@ 000a3bc0     uafxcw:winmain.obj
 0002:00004be0       ??_C@_1EM@IIHEIEIH@?$AAD?$AAI?$AAA?$AAG?$AA_?$AAA?$AAp?$AAp?$AAM?$AAa?$AAn?$AAa?$AAg?$AAe?$AAr?$AA?3?$AA?3?$AA?$HO?$AAD?$AAI?$AAA?$AAG?$AA_?$AAA?$AAp?$AAp?$AAM?$AAa?$AAn?$AAa?$AAg?$AAe@ 000a3be0     DIAG_AppManager.obj
 0002:00004c2c       ??_C@_1CE@NHLJIEPE@?$AAC?$AAh?$AAa?$AAn?$AAg?$AAe?$AA?5?$AAS?$AAt?$AAa?$AAt?$AAe?$AA?5?$AA?$CF?$AAd?$AA?$AN?$AA?6?$AA?$AA@ 000a3c2c     DIAG_AppManager.obj
 0002:00004c50       ??_C@_1DM@KCHBNECA@?$AAD?$AAI?$AAA?$AAG?$AA_?$AAA?$AAp?$AAp?$AAM?$AAa?$AAn?$AAa?$AAg?$AAe?$AAr?$AA?3?$AA?3?$AAS?$AAh?$AAo?$AAw?$AAW?$AAi?$AAn?$AAd?$AAo?$AAw?$AA?$AN?$AA?6?$AA?$AA@ 000a3c50     DIAG_AppManager.obj
 0002:00004c8c       ??_C@_1DM@IEELHMNC@?$AAD?$AAI?$AAA?$AAG?$AA_?$AAA?$AAp?$AAp?$AAM?$AAa?$AAn?$AAa?$AAg?$AAe?$AAr?$AA?3?$AA?3?$AAH?$AAi?$AAd?$AAe?$AAW?$AAi?$AAn?$AAd?$AAo?$AAw?$AA?$AN?$AA?6?$AA?$AA@ 000a3c8c     DIAG_AppManager.obj
 0002:00004cc8       ??_C@_1IA@FCPHJFEM@?$AA?$FL?$AAS?$AAe?$AAn?$AAd?$AA?$FN?$AA?5?$AAW?$AAM?$AA_?$AAU?$AAS?$AAE?$AAR?$AA?5?$AA?$CL?$AA?5?$AA?$CF?$AAd?$AA?0?$AA?5?$AAw?$AAP?$AAa?$AAr?$AAa?$AAm?$AA?5?$AA?$DN?$AA?5?$AA?$CF?$AAd@ 000a3cc8     DIAG_AppManager.obj
 0002:00004d48       ??_C@_1GG@MAFHGKDF@?$AAD?$AAI?$AAA?$AAG?$AA_?$AAA?$AAp?$AAp?$AAM?$AAa?$AAn?$AAa?$AAg?$AAe?$AAr?$AA?3?$AA?3?$AAP?$AAo?$AAs?$AAt?$AAM?$AAe?$AAs?$AAs?$AAa?$AAg?$AAe?$AA?5?$AAE?$AAr?$AAr@ 000a3d48     DIAG_AppManager.obj
 0002:00004db0       ??_C@_1KK@FOHNFIOK@?$AA?7?$AA?5?$AAP?$AAo?$AAs?$AAt?$AAM?$AAe?$AAs?$AAs?$AAa?$AAg?$AAe?$AA?5?$AAt?$AAa?$AAr?$AAg?$AAe?$AAt?$AA?5?$AAi?$AAn?$AAf?$AAo?$AA?$CI?$AAp?$AAi?$AAd?$AA?3?$AA?5?$AA0@ 000a3db0     DIAG_AppManager.obj
 0002:00004e60       ??_C@_1JA@HNANMCOE@?$AAD?$AAI?$AAA?$AAG?$AA_?$AAA?$AAp?$AAp?$AAM?$AAa?$AAn?$AAa?$AAg?$AAe?$AAr?$AA?3?$AA?3?$AAP?$AAo?$AAs?$AAt?$AAM?$AAe?$AAs?$AAs?$AAa?$AAg?$AAe?$AA?5?$AAE?$AAr?$AAr@ 000a3e60     DIAG_AppManager.obj
 0002:00004ef0       ??_C@_1EC@GIKLGLND@?$AA?$FL?$AAD?$AAe?$AAv?$AAe?$AAl?$AAo?$AAp?$AAC?$AAo?$AAm?$AAm?$AAa?$AAn?$AAd?$AA?$FN?$AA?5?$AAr?$AAe?$AAg?$AAi?$AAs?$AAt?$AAe?$AAr?$AAd?$AA?4?$AA?$CI?$AA1?$AA?$CJ?$AA?$AN?$AA?6@ 000a3ef0     DIAG_AppManager.obj
 0002:00004f38       ??_C@_1EI@PCKBPJC@?$AA?$FL?$AAD?$AAe?$AAv?$AAe?$AAl?$AAo?$AAp?$AAC?$AAo?$AAm?$AAm?$AAa?$AAn?$AAd?$AA?$FN?$AA?5?$AAc?$AAo?$AAm?$AAm?$AAa?$AAn?$AAd?$AA?5?$AAc?$AAl?$AAe?$AAa?$AAr?$AAe?$AAd@ 000a3f38     DIAG_AppManager.obj
 0002:00004f80       ??_C@_1EC@NAAFAPEE@?$AA?$FL?$AAD?$AAe?$AAv?$AAe?$AAl?$AAo?$AAp?$AAC?$AAo?$AAm?$AAm?$AAa?$AAn?$AAd?$AA?$FN?$AA?5?$AAs?$AAc?$AAr?$AAe?$AAe?$AAn?$AA?5?$AAe?$AAr?$AAr?$AAo?$AAr?$AA?4?$AA?$AN?$AA?6@ 000a3f80     DIAG_AppManager.obj
 0002:00004fc8       ??_C@_1EC@IDJMNANA@?$AA?$FL?$AAD?$AAe?$AAv?$AAe?$AAl?$AAo?$AAp?$AAC?$AAo?$AAm?$AAm?$AAa?$AAn?$AAd?$AA?$FN?$AA?5?$AAr?$AAe?$AAg?$AAi?$AAs?$AAt?$AAe?$AAr?$AAd?$AA?4?$AA?$CI?$AA2?$AA?$CJ?$AA?$AN?$AA?6@ 000a3fc8     DIAG_AppManager.obj
 0002:00005010       ??_C@_1EC@GMFOLLOO@?$AA?$FL?$AAD?$AAe?$AAv?$AAe?$AAl?$AAo?$AAp?$AAC?$AAo?$AAm?$AAm?$AAa?$AAn?$AAd?$AA?$FN?$AA?5?$AAr?$AAe?$AAg?$AAi?$AAs?$AAt?$AAe?$AAr?$AAd?$AA?4?$AA?$CI?$AA3?$AA?$CJ?$AA?$AN?$AA?6@ 000a4010     DIAG_AppManager.obj
 0002:00005058       ??_C@_1EC@IOICKAJH@?$AA?$FL?$AAD?$AAe?$AAv?$AAe?$AAl?$AAo?$AAp?$AAC?$AAo?$AAm?$AAm?$AAa?$AAn?$AAd?$AA?$FN?$AA?5?$AAr?$AAe?$AAg?$AAi?$AAs?$AAt?$AAe?$AAr?$AAd?$AA?4?$AA?$CI?$AA4?$AA?$CJ?$AA?$AN?$AA?6@ 000a4058     DIAG_AppManager.obj
 0002:000050a0       ??_C@_1EC@GBEAMLKJ@?$AA?$FL?$AAD?$AAe?$AAv?$AAe?$AAl?$AAo?$AAp?$AAC?$AAo?$AAm?$AAm?$AAa?$AAn?$AAd?$AA?$FN?$AA?5?$AAr?$AAe?$AAg?$AAi?$AAs?$AAt?$AAe?$AAr?$AAd?$AA?4?$AA?$CI?$AA5?$AA?$CJ?$AA?$AN?$AA?6@ 000a40a0     DIAG_AppManager.obj
 0002:000050e8       ??_C@_1EC@IKHHHAKK@?$AA?$FL?$AAD?$AAe?$AAv?$AAe?$AAl?$AAo?$AAp?$AAC?$AAo?$AAm?$AAm?$AAa?$AAn?$AAd?$AA?$FN?$AA?5?$AAr?$AAe?$AAg?$AAi?$AAs?$AAt?$AAe?$AAr?$AAd?$AA?4?$AA?$CI?$AA6?$AA?$CJ?$AA?$AN?$AA?6@ 000a40e8     DIAG_AppManager.obj
 0002:00005130       ??_C@_1EC@GFLFBLJE@?$AA?$FL?$AAD?$AAe?$AAv?$AAe?$AAl?$AAo?$AAp?$AAC?$AAo?$AAm?$AAm?$AAa?$AAn?$AAd?$AA?$FN?$AA?5?$AAr?$AAe?$AAg?$AAi?$AAs?$AAt?$AAe?$AAr?$AAd?$AA?4?$AA?$CI?$AA7?$AA?$CJ?$AA?$AN?$AA?6@ 000a4130     DIAG_AppManager.obj
 0002:00005178       ??_C@_1EC@JELOEABJ@?$AA?$FL?$AAD?$AAe?$AAv?$AAe?$AAl?$AAo?$AAp?$AAC?$AAo?$AAm?$AAm?$AAa?$AAn?$AAd?$AA?$FN?$AA?5?$AAr?$AAe?$AAg?$AAi?$AAs?$AAt?$AAe?$AAr?$AAd?$AA?4?$AA?$CI?$AA8?$AA?$CJ?$AA?$AN?$AA?6@ 000a4178     DIAG_AppManager.obj
 0002:000051c0       ??_C@_1EC@HLHMCLCH@?$AA?$FL?$AAD?$AAe?$AAv?$AAe?$AAl?$AAo?$AAp?$AAC?$AAo?$AAm?$AAm?$AAa?$AAn?$AAd?$AA?$FN?$AA?5?$AAr?$AAe?$AAg?$AAi?$AAs?$AAt?$AAe?$AAr?$AAd?$AA?4?$AA?$CI?$AA9?$AA?$CJ?$AA?$AN?$AA?6@ 000a41c0     DIAG_AppManager.obj
 0002:00005208       ??_C@_1EE@KEEKFAPF@?$AA?$FL?$AAD?$AAe?$AAv?$AAe?$AAl?$AAo?$AAp?$AAC?$AAo?$AAm?$AAm?$AAa?$AAn?$AAd?$AA?$FN?$AA?5?$AAr?$AAe?$AAg?$AAi?$AAs?$AAt?$AAe?$AAr?$AAd?$AA?4?$AA?$CI?$AA1?$AA0?$AA?$CJ?$AA?$AN@ 000a4208     DIAG_AppManager.obj
 0002:00005250       ??_C@_1EE@ELIIDLML@?$AA?$FL?$AAD?$AAe?$AAv?$AAe?$AAl?$AAo?$AAp?$AAC?$AAo?$AAm?$AAm?$AAa?$AAn?$AAd?$AA?$FN?$AA?5?$AAr?$AAe?$AAg?$AAi?$AAs?$AAt?$AAe?$AAr?$AAd?$AA?4?$AA?$CI?$AA1?$AA1?$AA?$CJ?$AA?$AN@ 000a4250     DIAG_AppManager.obj
 0002:00005294       ??_C@_1CI@BEIMCBKH@?$AAp?$AAo?$AAi?$AAs?$AAe?$AAa?$AAr?$AAc?$AAh?$AAr?$AAe?$AAs?$AAu?$AAl?$AAt?$AAl?$AAi?$AAs?$AAt?$AA?$AA@ 000a4294     DIAG_MemoryManager.obj
 0002:000052c0       ??_C@_1HG@MFAMKICO@?$AAD?$AAI?$AAA?$AAG?$AA_?$AAM?$AAe?$AAm?$AAo?$AAr?$AAy?$AAM?$AAa?$AAn?$AAa?$AAg?$AAe?$AAr?$AA?3?$AA?3?$AAD?$AAI?$AAA?$AAG?$AA_?$AAM?$AAe?$AAm?$AAo?$AAr?$AAy?$AAM@ 000a42c0     DIAG_MemoryManager.obj
 0002:00005338       ??_C@_1GO@FEGDNNMN@?$AAD?$AAI?$AAA?$AAG?$AA_?$AAM?$AAe?$AAm?$AAo?$AAr?$AAy?$AAM?$AAa?$AAn?$AAa?$AAg?$AAe?$AAr?$AA?3?$AA?3?$AAD?$AAI?$AAA?$AAG?$AA_?$AAM?$AAe?$AAm?$AAo?$AAr?$AAy?$AAM@ 000a4338     DIAG_MemoryManager.obj
 0002:000053a8       ??_C@_1BC@JJPNOONA@?$AA?2?$AAM?$AAa?$AAp?$AAC?$AAa?$AAr?$AAd?$AA?$AA@ 000a43a8     DIAG_MemoryManager.obj
 0002:000053bc       ??_SCHmiCtrlDtvBaseIF@MEMMANAGERBASEDLL@@6B@ 000a43bc     DIAG_MemoryManager.obj
 0002:000053c0       ??_SCDiagnosticsBaseIF@MEMMANAGERBASEDLL@@6B@ 000a43c0     DIAG_MemoryManager.obj
 0002:000053c4       ??_SCNaviKwpBaseIF@MEMMANAGERBASEDLL@@6B@ 000a43c4     DIAG_MemoryManager.obj
 0002:000053c8       ??_SCBluetoothBaseIF@MEMMANAGERBASEDLL@@6B@ 000a43c8     DIAG_MemoryManager.obj
 0002:000053cc       ??_SCCanControlBaseIF@MEMMANAGERBASEDLL@@6B@ 000a43cc     DIAG_MemoryManager.obj
 0002:000053d0       ??_SCCommonEnvIF@MEMMANAGERENVDLL@@6B@ 000a43d0     DIAG_MemoryManager.obj
 0002:000053d4       ??_7DIAG_MemoryManager@@6B@ 000a43d4     DIAG_MemoryManager.obj
 0002:000053d8       ??_C@_1BA@LDHPDFOC@?$JG?$IO?$IK?$LP?$IIhy?30?$AA?$IM?$KA?$IDw?$AA?$AA@ 000a43d8     DIAG_PageManager.obj
 0002:000053e8       ??_C@_1O@FLFICDHP@?$JG?$IO?$IK?$LP?$IIhy?30?$AAv?$HN?$AA?$AA@ 000a43e8     DIAG_PageManager.obj
 0002:000053f8       ??_C@_1O@OJKBKLDE@?$JG?$IO?$IK?$LP?$IIhy?30?$AA?$JO?R?$AA?$AA@ 000a43f8     DIAG_PageManager.obj
 0002:00005408       ??_C@_1BG@EEGGBPCP@W0V?sf?te?$LA0?j0?$NO0?$KE0?s0?$MA0?$PM?$AA?$AA@ 000a4408     DIAG_PageManager.obj
 0002:00005420       ??_C@_1BI@FGCDDMPI@W0V?sf?te?$LA?$PP?$JI?$PP?$IP?$PPr?$PP?$JN?$PP?$IA?$PP?$JO?$PPp?$AA?$AA@ 000a4420     DIAG_PageManager.obj
 0002:00005438       ??_C@_1BE@PLJJEIHH@0?P0?C0?$KP0?$KC0?C0?W0?G0?$PM0?$LP?$AA?$AA@ 000a4438     DIAG_PageManager.obj
 0002:0000544c       ??_C@_1BK@DFCEAPDK@?$PP?$IK?$PP?$JO?$PPo?$PPx?$PPq?$PPo?$PP?$IM?$PP?$JP?$PP?$ID?$PP?$JO?$PPp?$PP?$IA?$AA?$AA@ 000a444c     DIAG_PageManager.obj
 0002:00005468       ??_C@_1M@BAJDPMDL@0?G0?b0?b0?$PM0?I?$AA?$AA@ 000a4468     DIAG_PageManager.obj
 0002:00005474       ??_C@_1BI@JPKFIKEI@?$AAH?$AAM?$AAI?$AA?5?$AAL?$AAo?$AAg?$AA?5?$AAC?$AAf?$AAg?$AA?$AA@ 000a4474     DIAG_PageManager.obj
 0002:0000548c       ??_C@_1O@NPPOHDFI@?$AAA?$AA10?$LJ0?$LB0?$PM0?i?$AA?$AA@ 000a448c     DIAG_PageManager.obj
 0002:0000549c       ??_C@_1M@HMMIJOJL@?$AAC?$AAA?$AAN?$IK?9?$FL?$JK?$AA?$AA@ 000a449c     DIAG_PageManager.obj
 0002:000054a8       ??_C@_1BC@IDKEFHHF@0?$LP0?C0?A0?Q0?M0?ki?$BMg?$PL?$AA?$AA@ 000a44a8     DIAG_PageManager.obj
 0002:000054bc       ??_C@_19MLEBBDAN@0?J0?Si?$BM?$IK?$DM?$AA?$AA@ 000a44bc     DIAG_PageManager.obj
 0002:000054c8       ??_C@_1BG@OLNADKFG@0?$KL0?a0?i?$IK?9?$FL?$JK?$AA?$CI?$AADT?$BB0Q?$AA?$CJ?$AA?$AA@ 000a44c8     DIAG_PageManager.obj
 0002:000054e0       ??_C@_15MEGDCCOJ@0?m0?$LB?$AA?$AA@ 000a44e0     DIAG_PageManager.obj
 0002:000054e8       ??_C@_1BE@NFBIHCE@?$AA1?$AA9?$AAD?$AAV?$AAR0?$MA0?$KE0?$KC0?$LA?$AA?$AA@ 000a44e8     DIAG_PageManager.obj
 0002:000054fc       ??_C@_1BG@KLHJBDCF@?$FN?eX4f?x?$IP?$LM?$PP?$ID?$PP?$JO?$PPp?$PP?$IAN?$AA?$IJ?$KH?$AA?$AA@ 000a44fc     DIAG_PageManager.obj
 0002:00005514       ??_C@_19JHPBEEKO@?$AAA?$AA1?$JD2?$JH?s?$AA?$AA@ 000a4514     DIAG_PageManager.obj
 0002:00005520       ??_C@_1BM@PBCPOJBD@?$AAC?$AAa?$AAr?$AAP?$AAl?$AAa?$AAy0?$MA0?$KE0?$KC0?$LA?$JAwy?$PL?$AA?$AA@ 000a4520     DIAG_PageManager.obj
 0002:0000553c       ??_C@_1BI@MMHDBIAB@?$AAC?$AAa?$AAr?$AAP?$AAl?$AAa?$AAy0?$MA0?$KE0?$KC0?$LA?$AA?$AA@ 000a453c     DIAG_PageManager.obj
 0002:00005554       ??_C@_1BK@ODKBCFMF@?$AAU?$AAS?$AAB?$AA?5?$AAS?$AAi?$AAg?$AAn?$AAa?$AAln?0?$FL?$JK?$AA?$AA@ 000a4554     DIAG_PageManager.obj
 0002:00005570       ??_C@_19GFLEKGPI@?$AAB?$AAT0?m0?$LA?$AA?$AA@ 000a4570     DIAG_PageManager.obj
 0002:0000557c       ??_C@_1BG@LKGHJGKO@0?$NO0?$LJ0?$LP0?$PM0?$KE0?a0?$PM0?$LIf?x?$IP?$LM?$AA?$AA@ 000a457c     DIAG_PageManager.obj
 0002:00005594       ??_C@_1BI@MBGCDJLM@?$PP?$IP?$PP?$HN?$PP?$IA?$PPp?$PPr?$PP?$JC?$PPp?$PP?$HM?$PP?$JOf?x?$IP?$LM?$AA?$AA@ 000a4594     DIAG_PageManager.obj
 0002:000055ac       ??_C@_17DFHPPHML@?$AAH?$AAM?$AAI?$AA?$AA@ 000a45ac     DIAG_PageManager.obj
 0002:000055b4       ??_C@_19MONJGAMO@?$AAV?$AAI?$AAC?$AAS?$AA?$AA@ 000a45b4     DIAG_PageManager.obj
 0002:000055c0       ??_C@_17OFBOFBCN@?$AAE?$AAT?$AAC?$AA?$AA@ 000a45c0     DIAG_PageManager.obj
 0002:000055c8       ??_C@_1BG@HJAJAIEP@?$JH?s?$JH?$PP0?Q0?i0?a0?$PM0?$LPf?x?$IP?$LM0?$HP?$AA?$AA@ 000a45c8     DIAG_PageManager.obj
 0002:000055e0       ??_C@_1BI@HHIECLAG@?$JH?s?$JH?$PP?$PP?$IK?$PP?$JP?$PP?$JH?$PP?$JC?$PPp?$PP?$IAf?x?$IP?$LM0?$HP?$AA?$AA@ 000a45e0     DIAG_PageManager.obj
 0002:000055f8       ??_C@_1CI@BECHMBPO@R?$KA?$JA?$BP?$FO?$KG0?$LL0?s0?$LF0?$PM?$AA?50?$KN0?c0?j0?V0?l0?$PM0?$LH0?g0?s?$IK?$LPet?$AA?$AA@ 000a45f8     DIAG_PageManager.obj
 0002:00005620       ??_C@_1BA@GFIMOLCF@R?$KA?$JA?$BP?$FO?$KG0?$LL0?s0?$LF0?$PM?$AA?$AA@ 000a4620     DIAG_PageManager.obj
 0002:00005630       ??_C@_1O@KLMLAKJD@?$AAE?$AAT?$AAC?$AA2?$AA?4?$AA0?$AA?$AA@ 000a4630     DIAG_PageManager.obj
 0002:00005640       ??_C@_1M@EIGJEDIL@?$AAi?$AAP?$AAe?$AAr?$AAf?$AA?$AA@ 000a4640     DIAG_PageManager.obj
 0002:0000564c       ??_C@_1O@LCCLKGB@0?G0?P0?C0?$LA0?m0?$LA?$AA?$AA@ 000a464c     DIAG_PageManager.obj
 0002:0000565c       ??_C@_1BA@DLMGNAOH@0?a0?$KE0?s0?$NO0?$KE0?$LD0?s?$AA?$AA@ 000a465c     DIAG_PageManager.obj
 0002:0000566c       ??_C@_1BE@OBAGBOEM@W0V?s0?G0?$PM0?$LP0?A0?$KH0?C0?$KP?$AA?$AA@ 000a466c     DIAG_PageManager.obj
 0002:00005680       ??_C@_1BG@KPDBJJNC@W0V?s?$PP?$ID?$PP?$JO?$PPp?$PP?$IA?$PP?$IB?$PPj?$PPo?$PPx?$AA?$AA@ 000a4680     DIAG_PageManager.obj
 0002:00005698       ??_C@_1BM@IKDLLNPF@j_z?4R?$CF0?$KK0?$PM0?W0?K0?s0?$LAu?$DLP?Of?x?$IP?$LM?$AA?$AA@ 000a4698     DIAG_PageManager.obj
 0002:000056b4       ??_C@_1BK@ICOPLIIB@?$PPu?$PPp?$PP?$IM?$PP?$JP?$PP?$IG?$PP?$JN?$PPx?$PP?$JOu?$DLP?Of?x?$IP?$LM?$AA?$AA@ 000a46b4     DIAG_PageManager.obj
 0002:000056d0       ??_C@_1BE@CGHNENGG@?$AAe?$AAM?$AAM?$AAC0?$KI0?i0?$PM0?m0?$LA?$AA?$AA@ 000a46d0     DIAG_PageManager.obj
 0002:000056e4       ??_C@_1BC@GIBMEBCN@0?m0?$LB0?$PM0?$LH0?g0?s?$GA?EX1?$AA?$AA@ 000a46e4     DIAG_PageManager.obj
 0002:000056f8       ??_C@_1BK@OOIBFLJE@0?$LJ0?F0?$KC0?j0?s0?$LA0?$LJ0?$KE0?C0?Ai?$BMg?$PL?$AA?$AA@ 000a46f8     DIAG_PageManager.obj
 0002:00005714       ??_C@_1BI@DLEHBNKC@?$PP?$HN?$PP?$ID?$PPq?$PP?$JI?$PP?$JN?$PPx?$PP?$JO?$AAS?$AAWi?$BMg?$PL?$AA?$AA@ 000a4714     DIAG_PageManager.obj
 0002:0000572c       ??_C@_1BI@KDGKGPDH@?$FN?eX4f?x?$IP?$LM0?$HP0?G0?$PM0?$LPf?x?$IP?$LM0?$HP?$AA?$AA@ 000a472c     DIAG_PageManager.obj
 0002:00005744       ??_C@_1BC@DLPILMOD@?$FN?eX4f?x?$IP?$LM0?$HP0?G0?$PM0?$LP?$AA?$AA@ 000a4744     DIAG_PageManager.obj
 0002:00005758       ??_C@_1BA@KIIMBKCA@?$AAE?$AAD?$AAI?$AADf?x?$IP?$LM0?$HP?$AA?$AA@ 000a4758     DIAG_PageManager.obj
 0002:00005768       ??_C@_1BI@JLGPCLOP@?$AAD?$AAT?$AAV?$AA?5?$AAE?$AAD?$AAI?$AADf?x?$IP?$LM0?$HP?$AA?$AA@ 000a4768     DIAG_PageManager.obj
 0002:00005780       ??_C@_1O@LHMLDMMF@0?I0?i0?l0?$LDi?$BMg?$PL?$AA?$AA@ 000a4780     DIAG_PageManager.obj
 0002:00005790       ??_C@_1BC@HBIGDGDO@b?a_50?f0?K0?C0?Hi?$BMg?$PL?$AA?$AA@ 000a4790     DIAG_PageManager.obj
 0002:000057a4       ??_C@_1BI@IOPDDLOP@v?$HL?$JD20?$NN0?$KE0?s0?HO?$NN?$FLX?$PP?$AP?$IK?$KN?$IP?$LM?$AA?$AA@ 000a47a4     DIAG_PageManager.obj
 0002:000057bc       ??_C@_1BI@JHJIOHOM@v?$HL?$JD2?$PP?$IO?$PP?$JP?$PPr?$PP?$JN?$PP?$IEO?$NN?$FLX?$IK?$KN?$IP?$LM?$AA?$AA@ 000a47bc     DIAG_PageManager.obj
 0002:000057d4       ??_C@_1BG@PIOKGJPK@0?U0?$KB0?$KE0?k0?$LH0?$LJ0?F0?$OAi?$BMg?$PL?$AA?$AA@ 000a47d4     DIAG_PageManager.obj
 0002:000057ec       ??_C@_1BG@PPEEPALC@?$PP?$IM?$PPg?$PPr?$PP?$JJ?$PP?$HM?$PP?$HN?$PP?$ID?$PP?$JBi?$BMg?$PL?$AA?$AA@ 000a47ec     DIAG_PageManager.obj
 0002:00005804       ??_C@_1BE@DKMKBBDC@0?b0?K0?$LP0?$PM?$IA?$BANE0?F0?$LJ0?H?$AA?$AA@ 000a4804     DIAG_PageManager.obj
 0002:00005818       ??_C@_1BE@KBLFLCMH@?$PP?$JD?$PP?$IG?$PP?$IA?$PPp?$IA?$BANE?$PP?$ID?$PP?$HN?$PP?$IE?$AA?$AA@ 000a4818     DIAG_PageManager.obj
 0002:0000582c       ??_C@_1BE@BONBCFKJ@?$AAU?$AAS?$AAB0?G0?P0?$KE0?$LJi?$BMg?$PL?$AA?$AA@ 000a482c     DIAG_PageManager.obj
 0002:00005840       ??_C@_19FKGCKHKB@?$JH?sX?pi?$BMg?$PL?$AA?$AA@ 000a4840     DIAG_PageManager.obj
 0002:0000584c       ??_C@_1M@BNCGNLHH@0?$LL0?C0?Hn?$CJ?$FO?$KG?$AA?$AA@ 000a484c     DIAG_PageManager.obj
 0002:00005858       ??_C@_1BK@PDAIOPP@0?F0?$LJ0?H0?$LH0?J0?j0?$KKO?2b?$BA0?$PLQ?$INu?$BP?$AA?$AA@ 000a4858     DIAG_PageManager.obj
 0002:00005874       ??_C@_1BA@BAOEAJPG@0?F0?$LJ0?H0?$LH0?J0?j0?$KK?$AA?$AA@ 000a4874     DIAG_PageManager.obj
 0002:00005884       ??_C@_1BM@CGOBOLCL@?$AAS?$AAD0?$KL0?$PM0?I?$AAH?$AAi?$AAd?$AAd?$AAe?$AAn?$GA?EX1?$AA?$AA@ 000a4884     DIAG_PageManager.obj
 0002:000058a0       ??_C@_1BO@CHHKPLGF@?$AAS?$AAD?$PPv?$PPp?$PP?$IE?$PP?$JO?$AAH?$AAi?$AAd?$AAd?$AAe?$AAn?$GA?EX1?$AA?$AA@ 000a48a0     DIAG_PageManager.obj
 0002:000058c0       ??_C@_1M@KPDPCNKI@?$AAM?$AAA?$AAP?$IIhy?3?$AA?$AA@ 000a48c0     DIAG_PageManager.obj
 0002:000058cc       ??_C@_1O@FPNCOOD@?$AAF?$AAR?$AAA?$AAMx?$LK?$IK?$IN?$AA?$AA@ 000a48cc     DIAG_PageManager.obj
 0002:000058dc       ??_C@_1BC@LEIMMNBL@?$AAN?$AAA?$AAN?$AAD0?A0?$KH0?C0?$KP?$AA?$AA@ 000a48dc     DIAG_PageManager.obj
 0002:000058f0       ??_C@_1BA@MCOJCLPF@?$IM?$PMQef?te?$LAe?eY?7f?t?$AA?$AA@ 000a48f0     DIAG_PageManager.obj
 0002:00005900       ??_C@_1M@BIFIOAOB@?$ILfTJ?$JH?s?$IK?9?$FL?$JK?$AA?$AA@ 000a4900     DIAG_PageManager.obj
 0002:0000590c       ??_C@_19KEBMCOKK@0?m0?$LA?$HL?$KBt?$AG?$AA?$AA@ 000a490c     DIAG_PageManager.obj
 0002:00005918       ??_C@_1M@PKNEKOHL@0?$KK0?$PM0?G0?$KD0?$KK?$AA?$AA@ 000a4918     DIAG_PageManager.obj
 0002:00005924       ??_C@_19KLDAEOEC@0?$LH0?$LJ0?F0?$OA?$AA?$AA@ 000a4924     DIAG_PageManager.obj
 0002:00005930       ??_C@_1BK@DMPKNLFO@?$AAV?$AAU?$AAP?$PP?$IK?$PP?$JO?$PPp?$PP?$HM?$PP?$JO?$PPn?$PP?$JN?$GA?EX1?$AA?$AA@ 000a4930     DIAG_PageManager.obj
 0002:0000594c       ??_C@_1BE@DDGCGPID@0?U0?$KB0?$KE0?k0?S0?e0?$PM0?o0?$PM?$AA?$AA@ 000a494c     DIAG_PageManager.obj
 0002:00005960       ??_C@_1BG@CDGBNBOK@?$PP?$IM?$PPg?$PPr?$PP?$JJ?$PP?$IL?$PP?$JO?$PPm?$PPp?$PP?$JM?$PPp?$AA?$AA@ 000a4960     DIAG_PageManager.obj
 0002:00005978       ??_C@_1BG@IIIENCBN@0?$LH0?$LJ0?F0?$OA0?$NO0?M0?$PM0?$LI0?c0?$PM?$AA?$AA@ 000a4978     DIAG_PageManager.obj
 0002:00005990       ??_C@_19BGONLJFH@0?$LH0?$LJ0?$NO0?M?$AA?$AA@ 000a4990     DIAG_PageManager.obj
 0002:0000599c       ??_C@_1BE@NECADAHP@?$AAM?$AAE?$AAM0?$NO0?M0?$PM0?$LI0?c0?$PM?$AA?$AA@ 000a499c     DIAG_PageManager.obj
 0002:000059b0       ??_C@_1BG@CIAEGGIA@?$AAM?$AAE?$AAM?$PP?$IP?$PP?$II?$PPp?$PP?$HM?$PP?$JO?$PPl?$PPp?$AA?$AA@ 000a49b0     DIAG_PageManager.obj
 0002:000059c8       ??_C@_1BE@OEGIDBFM@s?$POW?$CIW00?G0?P0?C0?$LA?$IIhy?3?$AA?$AA@ 000a49c8     DIAG_PageManager.obj
 0002:000059dc       ??_C@_1M@MGNHOGMJ@s?$POW?$CIW0?$IIhy?3?$AA?$AA@ 000a49dc     DIAG_PageManager.obj
 0002:000059e8       ??_C@_1BA@NBIILMPL@?$INp?$IIL0?G0?$PM0?$LP?$IK?$BI?$JD2?$AA?$AA@ 000a49e8     DIAG_PageManager.obj
 0002:000059f8       ??_C@_19EHOEOFH@?$HL?$KBt?$AG?$GA?EX1?$AA?$AA@ 000a49f8     DIAG_PageManager.obj
 0002:00005a04       ??_C@_1M@PHFBAEGN@?$AAB?$AAT0?F0?$LJ0?H?$AA?$AA@ 000a4a04     DIAG_PageManager.obj
 0002:00005a10       ??_C@_1BA@IPIGGEHC@?$AAG?$AAP?$AAS?$II?$FLf?$BP?$GA?EX1?$AA?$AA@ 000a4a10     DIAG_PageManager.obj
 0002:00005a20       ??_C@_1O@EBDILCNB@0?l0?Y0?k0?a0?$PM0?$LP?$AA?$AA@ 000a4a20     DIAG_PageManager.obj
 0002:00005a30       ??_C@_1BA@MOCJPLJO@?$PP?$JK?$PP?$IN?$PP?$JO?$PP?$JJ?$PP?$JC?$PPp?$PP?$IA?$AA?$AA@ 000a4a30     DIAG_PageManager.obj
 0002:00005a40       ??_C@_1O@LKBDIGJG@0?$LI0?c0?$KE0?m?$IIhy?3?$AA?$AA@ 000a4a40     DIAG_PageManager.obj
 0002:00005a50       ??_C@_1BA@KJCMADHN@?$PP?$HM?$PP?$JO?$PPl?$PPr?$PP?$JL?$IIhy?3?$AA?$AA@ 000a4a50     DIAG_PageManager.obj
 0002:00005a60       ??_C@_1BA@ONIHANEE@?$AAG?$AAP?$AASS?WO?ar?$LGaK?$AA?$AA@ 000a4a60     DIAG_PageManager.obj
 0002:00005a70       ??_C@_19NPABNJEG@?$JG?$IO?$IK?$LP?$IIhy?3?$AA?$AA@ 000a4a70     DIAG_PageManager.obj
 0002:00005a7c       ??_C@_1O@DHFAIFKF@0?a0?b0?j0?$KP0?j0?$KC?$AA?$AA@ 000a4a7c     DIAG_PageManager.obj
 0002:00005a8c       ??_C@_1BC@OIBHIPDD@0?$LH0?$NP0?e0?l0?$PM0?$LH0?g0?s?$AA?$AA@ 000a4a8c     DIAG_PageManager.obj
 0002:00005aa0       ??_C@_1BC@LGLLLIFD@?$PP?$HM?$PP?$JA?$PPm?$PP?$JK?$PPp?$PP?$HM?$PPn?$PP?$JN?$AA?$AA@ 000a4aa0     DIAG_PageManager.obj
 0002:00005ab4       ??_C@_1BE@BPLIAIHN@?$PP?$IK?$PP?$JO?$PPp?$PP?$HM?$PP?$JO?$PPn?$PP?$JN?$GA?EX1?$AA?$AA@ 000a4ab4     DIAG_PageManager.obj
 0002:00005ac8       ??_C@_1BE@HIMNCONM@0?$KL0?a0?i0?G0?$PM0?$LPf?x?$IP?$LM0?$HP?$AA?$AA@ 000a4ac8     DIAG_PageManager.obj
 0002:00005adc       ??_C@_1BG@GHAHAJAL@?$PPv?$PP?$JC?$PP?$JH?$PP?$ID?$PP?$JO?$PPp?$PP?$IAf?x?$IP?$LM0?$HP?$AA?$AA@ 000a4adc     DIAG_PageManager.obj
 0002:00005af4       ??_C@_1BA@NLPIBIKJ@0?G0?$KD0?$PM0?i0?$PM0?m0?$LA?$AA?$AA@ 000a4af4     DIAG_PageManager.obj
 0002:00005b04       ??_C@_19NNLDPMM@?$AAD?$AAL?$AAO?$AAG?$AA?$AA@ 000a4b04     DIAG_PageManager.obj
 0002:00005b10       ??_C@_1BE@CKJLEAJD@?$AAC?$AAA?$AAN?$AA?5?$AAD?$AAT?$AAC?$GA?EX1?$AA?$AA@ 000a4b10     DIAG_PageManager.obj
 0002:00005b24       ??_C@_1BC@OHEGIMFN@?$AAC?$AAA?$AAN?$AA?5?$AAD?$AAi?$AAa?$AAg?$AA?$AA@ 000a4b24     DIAG_PageManager.obj
 0002:00005b38       ??_C@_1M@JFLJCBFF@0?$KL0?a0?i?$IK?9?$FL?$JK?$AA?$AA@ 000a4b38     DIAG_PageManager.obj
 0002:00005b44       ??_C@_1BG@CKIAOBEF@0?$KE0?s0?$LJ0?H0?$PM0?k0?$KN0?$PM?$IK?9?$FL?$JK?$AA?$AA@ 000a4b44     DIAG_PageManager.obj
 0002:00005b5c       ??_C@_1BG@EDALBAAO@?$PPr?$PP?$JN?$PP?$HN?$PP?$IE?$PPp?$PP?$JJ?$PPw?$PPp?$IK?9?$FL?$JK?$AA?$AA@ 000a4b5c     DIAG_PageManager.obj
 0002:00005b74       ??_C@_1O@INIFDOGG@c?$KF?$HN?$JKujS?w?$IK?9?$FL?$JK?$AA?$AA@ 000a4b74     DIAG_PageManager.obj
 0002:00005b84       ??_C@_1BG@PDBLDEOP@0?$LL0?$KN0?e0?j0?F0?$KD?$IK?9?$FL?$JK?$IJ?c?$JGd?$AA?$AA@ 000a4b84     DIAG_PageManager.obj
 0002:00005b9c       ??_C@_1BG@DGIAOABE@?$PP?$HO?$PPw?$PPm?$PP?$JI?$PP?$ID?$PPh?$IK?9?$FL?$JK?$IJ?c?$JGd?$AA?$AA@ 000a4b9c     DIAG_PageManager.obj
 0002:00005bb4       ??_C@_1O@JDAIDNEO@0?$KN0?c0?W0?A0?c0?$PM?$AA?$AA@ 000a4bb4     DIAG_PageManager.obj
 0002:00005bc4       ??_C@_1O@MOKEDPBO@e?efBbKR?U?$IK?9?$FL?$JK?$AA?$AA@ 000a4bc4     DIAG_PageManager.obj
 0002:00005bd4       ??_C@_1BA@BBLLFILC@0?$LH0?$LJ0?F0?$OAR?$BNg?$BPS?$BG?$AA?$AA@ 000a4bd4     DIAG_PageManager.obj
 0002:00005be4       ??_C@_1BC@EHFLIGML@0?P0?$PM0?$LI0?g0?s0?$KC0?C0?W?$AA?$AA@ 000a4be4     DIAG_PageManager.obj
 0002:00005bf8       ??_C@_1BI@JOGOHMDE@?$PP?$IK?$PP?$JO?$PPp?$PP?$HM?$PP?$JO?$PPn?$PP?$JN?$PPq?$PPo?$PP?$IM?$PP?$JP?$AA?$AA@ 000a4bf8     DIAG_PageManager.obj
 0002:00005c10       ??_C@_1BA@IFPIAMOP@0?P0?$PM0?$LI0?g0?s?$GA?EX1?$AA?$AA@ 000a4c10     DIAG_PageManager.obj
 0002:00005c20       ??_C@_17PNDDOBO@?$AAS?$AAT?$AAS?$AA?$AA@ 000a4c20     DIAG_PageManager.obj
 0002:00005c28       ??_C@_15MLPIMJOL@?$AAO?$AAN?$AA?$AA@ 000a4c28     DIAG_PageManager.obj
 0002:00005c30       ??_C@_15ENIGNDNG@?$AAS?$AAC?$AA?$AA@ 000a4c30     DIAG_PageManager.obj
 0002:00005c38       ??_C@_15DBNGPIEA@?$AAU?$AAA?$AA?$AA@ 000a4c38     DIAG_PageManager.obj
 0002:00005c40       ??_C@_15CEEDOHKC@?$AAM?$AAS?$AA?$AA@ 000a4c40     DIAG_PageManager.obj
 0002:00005c48       ??_C@_15KHFHDPFH@?$AA?9?$AA?9?$AA?$AA@ 000a4c48     DIAG_PageManager.obj
 0002:00006c98       ?m_TextFormat@CPlugininGPSSatelliteState@@1QAY01QB_WA 000a5c98     PlugininGPSSatelliteState.obj
 0002:00007690       ??_C@_1EK@KCNIHAFJ@?$AAD?$AAI?$AAA?$AAG?$AA_?$AAP?$AAa?$AAg?$AAe?$AAM?$AAa?$AAn?$AAa?$AAg?$AAe?$AAr?$AA?3?$AA?3?$AAI?$AAn?$AAi?$AAt?$AAi?$AAa?$AAl?$AAi?$AAz?$AAe?$AA?5?$AAS?$AAt?$AAa@ 000a6690     DIAG_PageManager.obj
 0002:000076e0       ??_C@_1EC@GMNOGKEL@?$AAm?$AA_?$AAF?$AAo?$AAn?$AAt?$AAB?$AAu?$AAt?$AAt?$AAo?$AAn?$AA?4?$AAC?$AAr?$AAe?$AAa?$AAt?$AAe?$AAF?$AAo?$AAn?$AAt?$AA?5?$AAE?$AAr?$AAr?$AAo?$AAr?$AA?5?$AA?$AN?$AA?6@ 000a66e0     DIAG_PageManager.obj
 0002:00007728       ??_C@_1EC@GGGBPIN@?$AAD?$AAI?$AAA?$AAG?$AA_?$AAP?$AAa?$AAg?$AAe?$AAM?$AAa?$AAn?$AAa?$AAg?$AAe?$AAr?$AA?3?$AA?3?$AAI?$AAn?$AAi?$AAt?$AAi?$AAa?$AAl?$AAi?$AAz?$AAe?$AA?5?$AA1?$AA?$AN?$AA?6@ 000a6728     DIAG_PageManager.obj
 0002:00007770       ??_C@_1EC@IIOJBIGO@?$AAD?$AAI?$AAA?$AAG?$AA_?$AAP?$AAa?$AAg?$AAe?$AAM?$AAa?$AAn?$AAa?$AAg?$AAe?$AAr?$AA?3?$AA?3?$AAI?$AAn?$AAi?$AAt?$AAi?$AAa?$AAl?$AAi?$AAz?$AAe?$AA?5?$AA2?$AA?$AN?$AA?6@ 000a6770     DIAG_PageManager.obj
 0002:000077b8       ??_C@_1EC@EEEDBIPA@?$AAD?$AAI?$AAA?$AAG?$AA_?$AAP?$AAa?$AAg?$AAe?$AAM?$AAa?$AAn?$AAa?$AAg?$AAe?$AAr?$AA?3?$AA?3?$AAI?$AAn?$AAi?$AAt?$AAi?$AAa?$AAl?$AAi?$AAz?$AAe?$AA?5?$AA3?$AA?$AN?$AA?6@ 000a67b8     DIAG_PageManager.obj
 0002:00007800       ??_C@_1EG@NJFDKHHE@?$AAD?$AAI?$AAA?$AAG?$AA_?$AAP?$AAa?$AAg?$AAe?$AAM?$AAa?$AAn?$AAa?$AAg?$AAe?$AAr?$AA?3?$AA?3?$AAI?$AAn?$AAi?$AAt?$AAi?$AAa?$AAl?$AAi?$AAz?$AAe?$AA?5?$AAE?$AAn?$AAd@ 000a6800     DIAG_PageManager.obj
 0002:00007848       ??_C@_1EK@DCIGDEON@?$AAD?$AAI?$AAA?$AAG?$AA_?$AAP?$AAa?$AAg?$AAe?$AAM?$AAa?$AAn?$AAa?$AAg?$AAe?$AAr?$AA?3?$AA?3?$AAU?$AAp?$AAd?$AAa?$AAt?$AAe?$AAM?$AAe?$AAn?$AAu?$AA?5?$AAS?$AAt?$AAa@ 000a6848     DIAG_PageManager.obj
 0002:00007898       ??_C@_1EC@NFGFNDFG@?$AAD?$AAI?$AAA?$AAG?$AA_?$AAP?$AAa?$AAg?$AAe?$AAM?$AAa?$AAn?$AAa?$AAg?$AAe?$AAr?$AA?3?$AA?3?$AAD?$AAo?$AAM?$AAe?$AAn?$AAu?$AA?5?$AAS?$AAt?$AAa?$AAr?$AAt?$AA?$AN?$AA?6@ 000a6898     DIAG_PageManager.obj
 0002:000078e0       ??_C@_1EI@DFGAHLEN@?$AAD?$AAI?$AAA?$AAG?$AA_?$AAP?$AAa?$AAg?$AAe?$AAM?$AAa?$AAn?$AAa?$AAg?$AAe?$AAr?$AA?3?$AA?3?$AAD?$AAo?$AAM?$AAe?$AAn?$AAu?$AA?5?$AAE?$AAn?$AAd?$AA?5?$AAN?$AAG?$AA?5@ 000a68e0     DIAG_PageManager.obj
 0002:00007928       ??_C@_1GM@MLDANBHG@?$AAD?$AAI?$AAA?$AAG?$AA_?$AAP?$AAa?$AAg?$AAe?$AAM?$AAa?$AAn?$AAa?$AAg?$AAe?$AAr?$AA?3?$AA?3?$AAD?$AAo?$AAM?$AAe?$AAn?$AAu?$AA?5?$AAS?$AAc?$AAr?$AAe?$AAe?$AAn?$AAM@ 000a6928     DIAG_PageManager.obj
 0002:00007998       ??_C@_1EI@LLOPHMKO@?$AAD?$AAI?$AAA?$AAG?$AA_?$AAP?$AAa?$AAg?$AAe?$AAM?$AAa?$AAn?$AAa?$AAg?$AAe?$AAr?$AA?3?$AA?3?$AAD?$AAo?$AAM?$AAe?$AAn?$AAu?$AA?5?$AAE?$AAn?$AAd?$AA?5?$AAN?$AAG?$AA?5@ 000a6998     DIAG_PageManager.obj
 0002:000079e0       ??_C@_13HOIJIPNN@?$AA?5?$AA?$AA@ 000a69e0     DIAG_PageManager.obj
 0002:000079e8       ??_C@_1EE@JIMKAAHB@?$AAD?$AAI?$AAA?$AAG?$AA_?$AAP?$AAa?$AAg?$AAe?$AAM?$AAa?$AAn?$AAa?$AAg?$AAe?$AAr?$AA?3?$AA?3?$AAD?$AAo?$AAM?$AAe?$AAn?$AAu?$AA?5?$AAE?$AAn?$AAd?$AA?5?$AAO?$AAK?$AA?$AN@ 000a69e8     DIAG_PageManager.obj
 0002:00007a30       ??_C@_1EC@GDDLNCKJ@?$AAD?$AAI?$AAA?$AAG?$AA_?$AAP?$AAa?$AAg?$AAe?$AAM?$AAa?$AAn?$AAa?$AAg?$AAe?$AAr?$AA?3?$AA?3?$AAF?$AAi?$AAn?$AAi?$AAs?$AAh?$AA?5?$AAS?$AAt?$AAa?$AAr?$AAt?$AA?$AN?$AA?6@ 000a6a30     DIAG_PageManager.obj
 0002:00007a74       ??_C@_1DO@MNNHIJCN@?$AAD?$AAI?$AAA?$AAG?$AA_?$AAP?$AAa?$AAg?$AAe?$AAM?$AAa?$AAn?$AAa?$AAg?$AAe?$AAr?$AA?3?$AA?3?$AAF?$AAi?$AAn?$AAi?$AAs?$AAh?$AA?5?$AAE?$AAn?$AAd?$AA?$AN?$AA?6?$AA?$AA@ 000a6a74     DIAG_PageManager.obj
 0002:00007b00       ??_7DIAG_PageManager@@6B@  000a6b00     DIAG_PageManager.obj
 0002:00007b04       ??_C@_11LOCGONAA@?$AA?$AA@ 000a6b04     DIAG_PageManager.obj
 0002:00007b08       ??_C@_0FE@LEHNBKFJ@C?3?2Program?5Files?5?$CIx86?$CJ?2Microsoft@ 000a6b08     DIAG_PageManager.obj
 0002:00007b5c       ??_C@_0BP@OIEOKIDM@Exception?5thrown?5in?5destructor?$AA@ 000a6b5c     DIAG_PageManager.obj
 0002:00007b7c       ??_C@_1BM@OLJBNBGC@?$AA?$CF?$AAs?$AA?5?$AA?$CI?$AA?$CF?$AAs?$AA?3?$AA?$CF?$AAd?$AA?$CJ?$AA?6?$AA?$CF?$AAs?$AA?$AA@ 000a6b7c     DIAG_PageManager.obj
 0002:00007b98       ??_C@_1BG@FHMKPHGG@?$AA?$CF?$AAs?$AA?5?$AA?$CI?$AA?$CF?$AAs?$AA?3?$AA?$CF?$AAd?$AA?$CJ?$AA?$AA@ 000a6b98     DIAG_PageManager.obj
 0002:00007bb0       ??_7CFont@@6B@             000a6bb0     DIAG_PageManager.obj
 0002:00007bc0       ??_C@_1EO@JOLMBLPE@?$AAm?$AA_?$AAs?$AAt?$AAD?$AAi?$AAa?$AAh?$AAP?$AAa?$AAr?$AAa?$AAm?$AA?4?$AAh?$AAw?$AAn?$AAd?$AAS?$AAy?$AAs?$AAt?$AAe?$AAm?$AAM?$AAa?$AAn?$AAa?$AAg?$AAe?$AAr?$AA?5@ 000a6bc0     DIAG_StateManager.obj
 0002:00007c10       ??_7DIAG_StateManager@@6B@ 000a6c10     DIAG_StateManager.obj
 0002:00007c78       ??_C@_1LC@FBBMFGKD@?$AAE?$AAM?$AAM?$AAC?$AAR?$AAe?$AAa?$AAd?$AAB?$AAy?$AAt?$AAe?$AAs?$AA?5?$AAE?$AAr?$AAr?$AAo?$AAr?$AA?$CI?$AAe?$AAr?$AAr?$AAo?$AAr?$AAC?$AAo?$AAd?$AAe?$AA?$DN?$AA?$CF?$AAd@ 000a6c78     DIAG_Tool.obj
 0002:00007d30       ??_C@_1OA@JFLJMAEN@?$AAE?$AAM?$AAM?$AAC?$AAR?$AAe?$AAa?$AAd?$AAB?$AAy?$AAt?$AAe?$AAs?$AA?5?$AAE?$AAr?$AAr?$AAo?$AAr?$AA2?$AA?$CI?$AAe?$AAr?$AAr?$AAo?$AAr?$AAC?$AAo?$AAd?$AAe?$AA?$DN?$AA?$CF@ 000a6d30     DIAG_Tool.obj
 0002:00007e10       ??_C@_1LO@HNDBNOEF@?$AAD?$AAI?$AAA?$AAG?$AA?3?$AA?3?$AAG?$AAp?$AAi?$AAo?$AAD?$AAr?$AAi?$AAv?$AAe?$AAr?$AAH?$AAa?$AAn?$AAd?$AAl?$AAe?$AA?3?$AA?3?$AAG?$AAe?$AAt?$AAP?$AAo?$AAr?$AAt?$AAN@ 000a6e10     DIAG_Tool.obj
 0002:00007ed0       ??_C@_1M@HKPDFDHK@?$AAP?$AAI?$AAO?$AA1?$AA?3?$AA?$AA@ 000a6ed0     DIAG_Tool.obj
 0002:00007ee0       ??_C@_1LC@JMMHEPIE@?$AAD?$AAI?$AAA?$AAG?$AA?3?$AA?3?$AAG?$AAp?$AAi?$AAo?$AAD?$AAr?$AAi?$AAv?$AAe?$AAr?$AAH?$AAa?$AAn?$AAd?$AAl?$AAe?$AA?3?$AA?3?$AAP?$AAo?$AAr?$AAt?$AAW?$AAr?$AAi?$AAt@ 000a6ee0     DIAG_Tool.obj
 0002:00007f94       ??_C@_1M@DENAJNJJ@?$AAI?$AA2?$AAC?$AA2?$AA?3?$AA?$AA@ 000a6f94     DIAG_Tool.obj
 0002:00007fa0       ??_C@_1MM@ENCLOIEN@?$AAD?$AAI?$AAA?$AAG?$AA?3?$AA?3?$AAI?$AA2?$AAC?$AAD?$AAr?$AAi?$AAv?$AAe?$AAr?$AAH?$AAa?$AAn?$AAd?$AAl?$AAe?$AA?3?$AA?3?$AAD?$AAi?$AAs?$AAa?$AAb?$AAl?$AAe?$AA?5?$AAD@ 000a6fa0     DIAG_Tool.obj
 0002:0000806c       ??_C@_0CF@EPLCHBBB@DIAG?3?3I2CDriverHandle?3?3SetSubAdd@ 000a706c     DIAG_Tool.obj
 0002:00008094       ??_C@_1DE@LBAANKCK@?$AA?$FL?$AAD?$AAI?$AAA?$AAG?$AA?$FN?$AA?5?$AA?$DM?$AA?$CF?$AAS?$AA?$DO?$AA?5?$AA?$FL?$AA?$CF?$AA0?$AA2?$AAX?$AA?5?$AA?$CF?$AA0?$AA2?$AAX?$AA?$FN?$AA?$AN?$AA?6?$AA?$AA@ 000a7094     DIAG_Tool.obj
 0002:000080c8       ??_C@_19LMOIMFBH@?$AAN?$AAA?$AAC?$AAK?$AA?$AA@ 000a70c8     DIAG_Tool.obj
 0002:000080d4       ??_C@_17LKDDEFBL@?$AAA?$AAC?$AAK?$AA?$AA@ 000a70d4     DIAG_Tool.obj
 0002:000080dc       ??_C@_1DO@DENFIBFD@?$AA?$FL?$AAD?$AAI?$AAA?$AAG?$AA?$FN?$AA?5?$AAA?$AAc?$AAk?$AAO?$AAf?$AAI?$AA2?$AAc?$AAM?$AAa?$AAs?$AAt?$AAe?$AAr?$AA?3?$AA?$CF?$AAd?$AA?$CI?$AA?$CF?$AAs?$AA?$CJ?$AA?$AN?$AA?6?$AA?$AA@ 000a70dc     DIAG_Tool.obj
 0002:00008120       ??_C@_1FG@OEIDIFBF@?$AA?$FL?$AAD?$AAI?$AAA?$AAG?$AA?$FN?$AA?5?$AA?$DM?$AAS?$AAc?$AAa?$AAl?$AAe?$AAr?$AA?$DO?$AA?5?$AAF?$AAa?$AAi?$AAl?$AAe?$AAd?$AA?5?$AAT?$AAo?$AA?5?$AAW?$AAr?$AAi?$AAt?$AAe?$AA?4@ 000a7120     DIAG_Tool.obj
 0002:00008178       ??_C@_1LM@HPJALBLI@?$AA?$FL?$AAD?$AAI?$AAA?$AAG?$AA?$FN?$AA?5?$AA?$DM?$AAS?$AAc?$AAa?$AAl?$AAe?$AAr?$AA?$DO?$AA?5?$AAT?$AAh?$AAe?$AA?5?$AAr?$AAe?$AAt?$AAu?$AAr?$AAn?$AA?5?$AAv?$AAa?$AAl?$AAu?$AAe@ 000a7178     DIAG_Tool.obj
 0002:00008238       ??_C@_1EE@HJPDOLLO@?$AA?$FL?$AAD?$AAI?$AAA?$AAG?$AA?$FN?$AA?5?$AAS?$AAe?$AAt?$AAS?$AAu?$AAb?$AAa?$AAd?$AAd?$AAr?$AAe?$AAs?$AAs?$AA?$FL?$AA?$CF?$AA0?$AA2?$AAX?$AA?5?$AA?$CF?$AA0?$AA2?$AAX?$AA?$FN?$AA?$AN@ 000a7238     DIAG_Tool.obj
 0002:00008280       ??_C@_1GG@HLLEGPLG@?$AA?$FL?$AAD?$AAI?$AAA?$AAG?$AA?$FN?$AA?5?$AA?$DM?$AAS?$AAc?$AAa?$AAl?$AAe?$AAr?$AA?$DO?$AA?5?$AAF?$AAa?$AAi?$AAl?$AAe?$AAd?$AA?5?$AAT?$AAo?$AA?5?$AAS?$AAe?$AAt?$AAS?$AAu?$AAb@ 000a7280     DIAG_Tool.obj
 0002:000082e8       ??_C@_1LE@DLJADBFH@?$AA?$FL?$AAD?$AAI?$AAA?$AAG?$AA?$FN?$AA?5?$AA?$DM?$AAS?$AAc?$AAa?$AAl?$AAe?$AAr?$AA?$DO?$AA?5?$AAR?$AAe?$AAa?$AAd?$AA?5?$AA?$CI?$AAs?$AAl?$AAa?$AAv?$AAe?$AAA?$AAd?$AAd?$AAr?$AAe@ 000a72e8     DIAG_Tool.obj
 0002:000083a0       ??_C@_1FE@MBJJHKMC@?$AA?$FL?$AAD?$AAI?$AAA?$AAG?$AA?$FN?$AA?5?$AA?$DM?$AAS?$AAc?$AAa?$AAl?$AAe?$AAr?$AA?$DO?$AA?5?$AAF?$AAa?$AAi?$AAl?$AAe?$AAd?$AA?5?$AAT?$AAo?$AA?5?$AAR?$AAe?$AAa?$AAd?$AA?4?$AA?$CI@ 000a73a0     DIAG_Tool.obj
 0002:000083f8       ??_C@_1NM@EABJEDIF@?$AA?$FL?$AAD?$AAI?$AAA?$AAG?$AA?$FN?$AA?5?$AA?$DM?$AAS?$AAc?$AAa?$AAl?$AAe?$AAr?$AA?$DO?$AA?5?$AAT?$AAh?$AAe?$AA?5?$AAr?$AAe?$AAt?$AAu?$AAr?$AAn?$AA?5?$AAv?$AAa?$AAl?$AAu?$AAe@ 000a73f8     DIAG_Tool.obj
 0002:000084d4       ??_C@_1CA@MHJOGMBJ@?$AA?$FL?$AAD?$AAI?$AAA?$AAG?$AA?$FN?$AA?5?$AA?$FL?$AAI?$AAN?$AAF?$AA?$FN?$AA?5?$AA?$CF?$AAs?$AA?$AA@ 000a74d4     DIAG_Tool.obj
 0002:000084f4       ??_C@_1CA@CDOFMEBD@?$AA?$FL?$AAD?$AAI?$AAA?$AAG?$AA?$FN?$AA?5?$AA?$FL?$AAE?$AAR?$AAR?$AA?$FN?$AA?5?$AA?$CF?$AAs?$AA?$AA@ 000a74f4     DIAG_Tool.obj
 0002:00008514       ??_C@_1DK@CEJCBPNA@?$AA?$FL?$AAD?$AAI?$AAA?$AAG?$AA?$FN?$AA?5?$AAM?$AAM?$AAC?$AAW?$AAr?$AAi?$AAt?$AAe?$AA?5?$AAN?$AAU?$AAL?$AAL?$AA?5?$AAE?$AAr?$AAr?$AAo?$AAr?$AA?$AN?$AA?6?$AA?$AA@ 000a7514     DIAG_Tool.obj
 0002:00008550       ??_C@_1M@JBOGALJB@?$AAD?$AAS?$AAK?$AA4?$AA?3?$AA?$AA@ 000a7550     DIAG_Tool.obj
 0002:00008560       ??_C@_1EG@CLKDOIAB@?$AA?$FL?$AAD?$AAI?$AAA?$AAG?$AA?$FN?$AA?5?$AAM?$AAM?$AAC?$AAW?$AAr?$AAi?$AAt?$AAe?$AA?5?$AAC?$AAr?$AAe?$AAa?$AAt?$AAe?$AAF?$AAi?$AAl?$AAe?$AA?5?$AAE?$AAr?$AAr?$AAo?$AAr@ 000a7560     DIAG_Tool.obj
 0002:000085a8       ??_C@_1FA@PBKJOMPJ@?$AA?$FL?$AAD?$AAI?$AAA?$AAG?$AA?$FN?$AA?5?$AAM?$AAM?$AAC?$AAW?$AAr?$AAi?$AAt?$AAe?$AA?5?$AAD?$AAe?$AAv?$AAi?$AAc?$AAe?$AAI?$AAo?$AAC?$AAo?$AAn?$AAt?$AAr?$AAo?$AAl?$AA?5@ 000a75a8     DIAG_Tool.obj
 0002:000085f8       ??_C@_1KK@MJOIOJAJ@?$AA?$FL?$AAD?$AAI?$AAA?$AAG?$AA?$FN?$AA?5?$AAM?$AAM?$AAC?$AAW?$AAr?$AAi?$AAt?$AAe?$AA?5?$AAM?$AAo?$AAd?$AAe?$AA?5?$AAb?$AAe?$AAf?$AAo?$AAr?$AAe?$AA?5?$AA?$CF?$AA0?$AA8?$AAX@ 000a75f8     DIAG_Tool.obj
 0002:000086a8       ??_C@_1FK@BJCFKKPH@?$AA?$FL?$AAD?$AAI?$AAA?$AAG?$AA?$FN?$AA?5?$AAM?$AAM?$AAC?$AAW?$AAr?$AAi?$AAt?$AAe?$AA?5?$AAD?$AAe?$AAv?$AAi?$AAc?$AAe?$AAI?$AAo?$AAC?$AAo?$AAn?$AAt?$AAr?$AAo?$AAl?$AA?5@ 000a76a8     DIAG_Tool.obj
 0002:00008708       ??_C@_1KK@PLNJFANK@?$AA?$FL?$AAD?$AAI?$AAA?$AAG?$AA?$FN?$AA?5?$AAM?$AAM?$AAC?$AAW?$AAr?$AAi?$AAt?$AAe?$AA?5?$AAM?$AAo?$AAd?$AAe?$AA?5?$AAa?$AAf?$AAt?$AAe?$AAr?$AA?5?$AA?5?$AA?$CF?$AA0?$AA8?$AAX@ 000a7708     DIAG_Tool.obj
 0002:000087b8       ??_C@_1EO@DDFODDKA@?$AA?$FL?$AAD?$AAI?$AAA?$AAG?$AA?$FN?$AA?5?$AAD?$AAI?$AAA?$AAG?$AA_?$AAM?$AAM?$AAC?$AAR?$AAe?$AAa?$AAd?$AA?5?$AAC?$AAr?$AAe?$AAa?$AAt?$AAe?$AAF?$AAi?$AAl?$AAe?$AA?5?$AAE@ 000a77b8     DIAG_Tool.obj
 0002:00008808       ??_C@_1GE@GFJNMBPP@?$AA?$FL?$AAD?$AAI?$AAA?$AAG?$AA?$FN?$AA?5?$AAD?$AAI?$AAA?$AAG?$AA_?$AAG?$AAe?$AAt?$AAL?$AAo?$AAg?$AAM?$AAo?$AAd?$AAe?$AA?5?$AAC?$AAr?$AAe?$AAa?$AAt?$AAe?$AAF?$AAi?$AAl@ 000a7808     DIAG_Tool.obj
 0002:00008870       ??_C@_1GO@OILNPDBF@?$AA?$FL?$AAD?$AAI?$AAA?$AAG?$AA?$FN?$AA?5?$AAD?$AAI?$AAA?$AAG?$AA_?$AAG?$AAe?$AAt?$AAL?$AAo?$AAg?$AAM?$AAo?$AAd?$AAe?$AA?5?$AAE?$AAM?$AAM?$AAC?$AAR?$AAe?$AAa?$AAd?$AAS@ 000a7870     DIAG_Tool.obj
 0002:000088e0       ??_C@_1GM@EACOOMNN@?$AAD?$AAi?$AAa?$AAg?$AAS?$AAe?$AAn?$AAd?$AAM?$AAa?$AAi?$AAn?$AAP?$AAc?$AAK?$AAw?$AAp?$AAC?$AAo?$AAm?$AAm?$AAa?$AAn?$AAd?$AA?5?$AA?$CI?$AAh?$AAW?$AAn?$AAd?$AA?$DN?$AA?$CF@ 000a78e0     DIAG_Tool.obj
 0002:00008950       ??_C@_1EO@NPHAABKP@?$AAD?$AAi?$AAa?$AAg?$AAS?$AAe?$AAn?$AAd?$AAM?$AAa?$AAi?$AAn?$AAP?$AAc?$AAK?$AAw?$AAp?$AAC?$AAo?$AAm?$AAm?$AAa?$AAn?$AAd?$AA?5?$AAP?$AAa?$AAr?$AAa?$AAm?$AA?5?$AAE@ 000a7950     DIAG_Tool.obj
 0002:000089a0       ??_C@_1HK@BNONPHCC@?$AAD?$AAi?$AAa?$AAg?$AAS?$AAe?$AAn?$AAd?$AAM?$AAa?$AAi?$AAn?$AAP?$AAc?$AAK?$AAw?$AAp?$AAC?$AAo?$AAm?$AAm?$AAa?$AAn?$AAd?$AA?5?$AAI?$AAn?$AAt?$AAe?$AAr?$AAP?$AAr@ 000a79a0     DIAG_Tool.obj
 0002:00008a20       ??_C@_1IA@GONELACA@?$AA?$FL?$AAE?$AAR?$AAR?$AA?$FN?$AAS?$AAc?$AAa?$AAl?$AAe?$AAr?$AAR?$AAe?$AAs?$AAe?$AAt?$AA?5?$AAF?$AAa?$AAi?$AAl?$AAe?$AAd?$AA?5?$AAt?$AAo?$AA?5?$AAc?$AAr?$AAe?$AAa?$AAt@ 000a7a20     DIAG_Tool.obj
 0002:00008aa0       ??_C@_1KK@OKLEAKGA@?$AA?$FL?$AAE?$AAR?$AAR?$AA?$FN?$AAS?$AAc?$AAa?$AAl?$AAe?$AAr?$AAR?$AAe?$AAs?$AAe?$AAt?$AA?5?$AAD?$AAe?$AAv?$AAi?$AAc?$AAe?$AAI?$AAo?$AAC?$AAo?$AAn?$AAt?$AAr?$AAo?$AAl@ 000a7aa0     DIAG_Tool.obj
 0002:00008b50       ??_C@_1KK@OKDDOHB@?$AA?$FL?$AAE?$AAR?$AAR?$AA?$FN?$AAS?$AAc?$AAa?$AAl?$AAe?$AAr?$AAR?$AAe?$AAs?$AAe?$AAt?$AA?5?$AAD?$AAe?$AAv?$AAi?$AAc?$AAe?$AAI?$AAo?$AAC?$AAo?$AAn?$AAt?$AAr?$AAo?$AAl@ 000a7b50     DIAG_Tool.obj
 0002:00008c00       ??_C@_1HO@GPDDAPFC@?$AA?$FL?$AAE?$AAR?$AAR?$AA?$FN?$AAE?$AAE?$AAP?$AAR?$AAO?$AAM?$AAW?$AAr?$AAi?$AAt?$AAe?$AA?5?$AAF?$AAa?$AAi?$AAl?$AAe?$AAd?$AA?5?$AAt?$AAo?$AA?5?$AAc?$AAr?$AAe?$AAa?$AAt@ 000a7c00     DIAG_Tool.obj
 0002:00008c80       ??_C@_1IA@BMLHEIID@?$AA?$FL?$AAE?$AAR?$AAR?$AA?$FN?$AAE?$AAE?$AAP?$AAR?$AAO?$AAM?$AAW?$AAr?$AAi?$AAt?$AAe?$AA?5?$AAF?$AAa?$AAi?$AAl?$AAe?$AAd?$AA?5?$AAt?$AAo?$AA?5?$AAc?$AAr?$AAe?$AAa?$AAt@ 000a7c80     DIAG_Tool.obj
 0002:00008d00       ??_C@_1KK@NPPKAIMG@?$AA?$FL?$AAE?$AAR?$AAR?$AA?$FN?$AAE?$AAE?$AAP?$AAR?$AAO?$AAM?$AAW?$AAr?$AAi?$AAt?$AAe?$AA?5?$AAD?$AAe?$AAv?$AAi?$AAc?$AAe?$AAI?$AAo?$AAC?$AAo?$AAn?$AAt?$AAr?$AAo?$AAl@ 000a7d00     DIAG_Tool.obj
 0002:00008dac       ??_C@_1DE@IKDODGIE@?$AAD?$AAI?$AAA?$AAG?$AA?3?$AA?3?$AAA?$AAs?$AAt?$AAL?$AAo?$AAg?$AAS?$AAh?$AAu?$AAt?$AAd?$AAo?$AAw?$AAn?$AA?5?$AAN?$AAG?$AA?$AN?$AA?6?$AA?$AA@ 000a7dac     DIAG_Tool.obj
 0002:00008de0       ??_C@_1DE@DCFDEIPF@?$AAD?$AAI?$AAA?$AAG?$AA?3?$AA?3?$AAA?$AAs?$AAt?$AAL?$AAo?$AAg?$AAS?$AAh?$AAu?$AAt?$AAd?$AAo?$AAw?$AAn?$AA?5?$AAO?$AAK?$AA?$AN?$AA?6?$AA?$AA@ 000a7de0     DIAG_Tool.obj
 0002:00008e14       ??_C@_1CM@EEOKPCPG@?$AAD?$AAI?$AAA?$AAG?$AA?3?$AA?3?$AAS?$AAh?$AAu?$AAt?$AAd?$AAo?$AAw?$AAn?$AA?5?$AA?4?$AA?4?$AA?4?$AA1?$AA?$AN?$AA?6?$AA?$AA@ 000a7e14     DIAG_Tool.obj
 0002:00008e40       ??_C@_1CM@MKGFPFBF@?$AAD?$AAI?$AAA?$AAG?$AA?3?$AA?3?$AAS?$AAh?$AAu?$AAt?$AAd?$AAo?$AAw?$AAn?$AA?5?$AA?4?$AA?4?$AA?4?$AA2?$AA?$AN?$AA?6?$AA?$AA@ 000a7e40     DIAG_Tool.obj
 0002:00008e6c       ??_C@_1CI@JHOJBLNH@?$AAD?$AAI?$AAA?$AAG?$AA?3?$AA?3?$AAS?$AAh?$AAu?$AAt?$AAd?$AAo?$AAw?$AAn?$AA?5?$AAO?$AAK?$AA?$AN?$AA?6?$AA?$AA@ 000a7e6c     DIAG_Tool.obj
 0002:00008e94       ??_7DriverHandle@DIAG@@6B@ 000a7e94     DIAG_Tool.obj
 0002:00008e98       ??_C@_1GE@GGMDNDAK@?$AAN?$AAa?$AAn?$AAd?$AAD?$AAe?$AAv?$AAi?$AAc?$AAe?$AA?3?$AA?3?$AAO?$AAp?$AAe?$AAn?$AAD?$AAe?$AAv?$AAi?$AAc?$AAe?$AA?5?$AAI?$AAN?$AAV?$AAA?$AAL?$AAI?$AAD?$AA_?$AAH@ 000a7e98     NAND.obj
 0002:00008f00       ??_C@_1FG@MPGOJKKK@?$AAN?$AAa?$AAn?$AAd?$AAD?$AAe?$AAv?$AAi?$AAc?$AAe?$AA?3?$AA?3?$AAR?$AAe?$AAa?$AAd?$AA?5?$AAM?$AAe?$AAm?$AAo?$AAr?$AAy?$AA?5?$AAC?$AAr?$AAe?$AAa?$AAt?$AAe?$AA?5?$AAE@ 000a7f00     NAND.obj
 0002:00008f58       ??_C@_1GM@EEEHFLBP@?$AAR?$AAe?$AAa?$AAd?$AA?5?$AAA?$AAd?$AAd?$AAr?$AA?$DN?$AA0?$AAx?$AA?$CF?$AA0?$AA8?$AAX?$AA?5?$AA?$DO?$AA?$DO?$AA?5?$AAA?$AAd?$AAd?$AAr?$AA?$DN?$AA0?$AAx?$AA?$CF?$AA0?$AA8?$AAX?$AA?5@ 000a7f58     NAND.obj
 0002:00008fc8       ??_C@_1EO@FOKACEDA@?$AAN?$AAa?$AAn?$AAd?$AAD?$AAe?$AAv?$AAi?$AAc?$AAe?$AA?3?$AA?3?$AAR?$AAe?$AAa?$AAd?$AA?5?$AAI?$AAO?$AAC?$AAT?$AAL?$AA_?$AAD?$AAI?$AAS?$AAK?$AA_?$AAR?$AAE?$AAA?$AAD@ 000a7fc8     NAND.obj
 0002:00009018       ??_C@_1FG@LMFIKJHM@?$AAR?$AAe?$AAa?$AAd?$AA?5?$AAA?$AAd?$AAd?$AAr?$AA?$DN?$AA0?$AAx?$AA?$CF?$AA0?$AA8?$AAX?$AA?5?$AAS?$AAi?$AAz?$AAe?$AA?$DN?$AA0?$AAx?$AA?$CF?$AA0?$AA8?$AAX?$AA?$CI?$AAs?$AAe?$AAc@ 000a8018     NAND.obj
 0002:00009070       ??_C@_1EE@OJOEMCHH@?$AAN?$AAa?$AAn?$AAd?$AAD?$AAe?$AAv?$AAi?$AAc?$AAe?$AA?3?$AA?3?$AAR?$AAe?$AAa?$AAd?$AA?5?$AAc?$AAa?$AAl?$AAl?$AAb?$AAa?$AAc?$AAk?$AA?5?$AAF?$AAA?$AAL?$AAS?$AAE?$AA?$AN@ 000a8070     NAND.obj
 0002:000090b8       ??_C@_1FI@DDDOICM@?$AAN?$AAa?$AAn?$AAd?$AAD?$AAe?$AAv?$AAi?$AAc?$AAe?$AA?3?$AA?3?$AAW?$AAr?$AAi?$AAt?$AAe?$AA?5?$AAM?$AAe?$AAm?$AAo?$AAr?$AAy?$AA?5?$AAC?$AAr?$AAe?$AAa?$AAt?$AAe?$AA?5@ 000a80b8     NAND.obj
 0002:00009110       ??_C@_1GO@CDPBICMA@?$AAW?$AAr?$AAi?$AAt?$AAe?$AA?5?$AAA?$AAd?$AAd?$AAr?$AA?$DN?$AA0?$AAx?$AA?$CF?$AA0?$AA8?$AAX?$AA?5?$AA?$DO?$AA?$DO?$AA?5?$AAA?$AAd?$AAd?$AAr?$AA?$DN?$AA0?$AAx?$AA?$CF?$AA0?$AA8?$AAX@ 000a8110     NAND.obj
 0002:00009180       ??_C@_1EG@FIOHFIFL@?$AAN?$AAa?$AAn?$AAd?$AAD?$AAe?$AAv?$AAi?$AAc?$AAe?$AA?3?$AA?3?$AAW?$AAr?$AAi?$AAt?$AAe?$AA?5?$AAc?$AAa?$AAl?$AAl?$AAb?$AAa?$AAc?$AAk?$AA?5?$AAF?$AAA?$AAL?$AAS?$AAE@ 000a8180     NAND.obj
 0002:000091c8       ??_C@_1FC@KOGMKNFP@?$AAN?$AAa?$AAn?$AAd?$AAD?$AAe?$AAv?$AAi?$AAc?$AAe?$AA?3?$AA?3?$AAW?$AAr?$AAi?$AAt?$AAe?$AA?5?$AAI?$AAO?$AAC?$AAT?$AAL?$AA_?$AAD?$AAI?$AAS?$AAK?$AA_?$AAW?$AAR?$AAI@ 000a81c8     NAND.obj
 0002:00009220       ??_C@_1FA@OLCDLELG@?$AAW?$AAr?$AAi?$AAt?$AAe?$AA?5?$AAA?$AAd?$AAd?$AAr?$AA?$DN?$AA0?$AAx?$AA?$CF?$AA0?$AA8?$AAX?$AA?5?$AAS?$AAi?$AAz?$AAe?$AA?$DN?$AA?$CF?$AAd?$AA?$CI?$AAs?$AAe?$AAc?$AA?$DN?$AA0?$AAx@ 000a8220     NAND.obj
 0002:00009270       ??_C@_1DI@GENAMNEJ@?$AA?2?$AAM?$AAe?$AAd?$AAi?$AAa?$AAC?$AAa?$AAr?$AAd?$AA?2?$AAS?$AAn?$AAa?$AAp?$AAS?$AAh?$AAo?$AAt?$AAD?$AAu?$AAm?$AAp?$AA?4?$AAb?$AAi?$AAn?$AA?$AA@ 000a8270     SnapShotDump.obj
 0002:000092a8       ??_C@_1DA@NOOLPFKH@?$AA?2?$AAM?$AAe?$AAd?$AAi?$AAa?$AAC?$AAa?$AAr?$AAd?$AA?2?$AAS?$AAN?$AA_?$AAI?$AAm?$AAa?$AAg?$AAe?$AA?4?$AAd?$AAa?$AAt?$AA?$AA@ 000a82a8     SnapShotDump.obj
 0002:000092d8       ??_C@_1DA@EDKEIFC@?$AA?2?$AAM?$AAe?$AAd?$AAi?$AAa?$AAC?$AAa?$AAr?$AAd?$AA?2?$AAN?$AAK?$AA_?$AAI?$AAm?$AAa?$AAg?$AAe?$AA?4?$AAd?$AAa?$AAt?$AA?$AA@ 000a82d8     SnapShotDump.obj
 0002:00009308       ??_C@_1DE@EIFLLJFG@?$AA?2?$AAM?$AAe?$AAd?$AAi?$AAa?$AAC?$AAa?$AAr?$AAd?$AA?2?$AAC?$AAD?$AAD?$AAB?$AA_?$AAI?$AAm?$AAa?$AAg?$AAe?$AA?4?$AAd?$AAa?$AAt?$AA?$AA@ 000a8308     SnapShotDump.obj
 0002:0000933c       ??_C@_1DK@HKIBOKGH@?$AA?2?$AAM?$AAe?$AAd?$AAi?$AAa?$AAC?$AAa?$AAr?$AAd?$AA?2?$AAO?$AAp?$AAe?$AAn?$AAi?$AAn?$AAg?$AA_?$AAI?$AAm?$AAa?$AAg?$AAe?$AA?4?$AAd?$AAa?$AAt?$AA?$AA@ 000a833c     SnapShotDump.obj
 0002:00009378       ??_C@_1DE@OKAOMAM@?$AAR?$AAe?$AAa?$AAd?$AAF?$AAi?$AAl?$AAe?$AA?5?$AAe?$AAr?$AAr?$AAo?$AAr?$AA?$CI?$AA?$CF?$AAd?$AA?$CJ?$AA?5?$AA?$FL?$AA?$CF?$AAs?$AA?$FN?$AA?$AN?$AA?6?$AA?$AA@ 000a8378     SnapShotDump.obj
 0002:000093ac       ??_C@_1CE@FGJJJAE@?$AAD?$AAe?$AAf?$AAa?$AAu?$AAl?$AAt?$AA?5?$AAA?$AAd?$AAd?$AAr?$AAe?$AAs?$AAs?$AA?$AN?$AA?6?$AA?$AA@ 000a83ac     SnapShotDump.obj
 0002:000093d0       ??_C@_1EE@IEDILEGK@?$AAS?$AAn?$AAa?$AAp?$AAS?$AAh?$AAo?$AAt?$AA?5?$AAI?$AAm?$AAa?$AAg?$AAe?$AA?5?$AAA?$AAd?$AAd?$AAr?$AAe?$AAs?$AAs?$AA?3?$AA?$FL?$AA0?$AAx?$AA?$CF?$AA0?$AA8?$AAX?$AA?$FN?$AA?$AN@ 000a83d0     SnapShotDump.obj
 0002:00009418       ??_C@_1EE@HGMCPDHI@?$AAN?$AAK?$AA?5?$AA?5?$AA?5?$AA?5?$AA?5?$AA?5?$AA?5?$AAI?$AAm?$AAa?$AAg?$AAe?$AA?5?$AAA?$AAd?$AAd?$AAr?$AAe?$AAs?$AAs?$AA?3?$AA?$FL?$AA0?$AAx?$AA?$CF?$AA0?$AA8?$AAX?$AA?$FN?$AA?$AN@ 000a8418     SnapShotDump.obj
 0002:00009460       ??_C@_1GE@BNLLKIIJ@?$AAC?$AAD?$AAD?$AAB?$AA?5?$AA?5?$AA?5?$AA?5?$AA?5?$AAI?$AAm?$AAa?$AAg?$AAe?$AA?5?$AAA?$AAd?$AAd?$AAr?$AAe?$AAs?$AAs?$AA?3?$AA?$FL?$AA0?$AAx?$AA?$CF?$AA0?$AA8?$AAX?$AA?$FN?$AA?5@ 000a8460     SnapShotDump.obj
 0002:000094c8       ??_C@_1GE@NHDEFJIA@?$AAO?$AAp?$AAe?$AAn?$AAi?$AAn?$AAg?$AA?5?$AA?5?$AAI?$AAm?$AAa?$AAg?$AAe?$AA?5?$AAA?$AAd?$AAd?$AAr?$AAe?$AAs?$AAs?$AA?3?$AA?$FL?$AA0?$AAx?$AA?$CF?$AA0?$AA8?$AAX?$AA?$FN?$AA?5@ 000a84c8     SnapShotDump.obj
 0002:0000952c       ??_C@_1CK@CCIDAANG@?$AAS?$AAn?$AAa?$AAp?$AAS?$AAh?$AAo?$AAt?$AAD?$AAu?$AAm?$AAp?$AA?5?$AAS?$AAt?$AAa?$AAr?$AAt?$AA?$AN?$AA?6?$AA?$AA@ 000a852c     SnapShotDump.obj
 0002:00009558       ??_C@_19LAMBBDLP@?$AAD?$AAu?$AAm?$AAp?$AA?$AA@ 000a8558     SnapShotDump.obj
 0002:00009564       ??_C@_1CM@NFKHDLCH@0?$LJ0?J0?C0?W0?$LH0?g0?C0?H0?$KE0?a0?$PM0?$LI0?$JC0?$MA0?s0?W0W0?$HO0Y0K?$PP?$BP?$AA?$AA@ 000a8564     SnapShotDump.obj
 0002:00009590       ??_C@_1CK@JPLGJGBB@?$AAS?$AAN?$AA?5?$AAI?$AAm?$AAa?$AAg?$AAe?$AA?5?$AAF?$AAi?$AAl?$AAe?$AA?5?$AA?$FL?$AA?$CF?$AAs?$AA?$FN?$AA?$AN?$AA?6?$AA?$AA@ 000a8590     SnapShotDump.obj
 0002:000095bc       ??_C@_1CO@GBEGPNAF@?$AAC?$AAr?$AAe?$AAa?$AAt?$AAe?$AAF?$AAi?$AAl?$AAe?$AA?5?$AAe?$AAr?$AAr?$AAo?$AAr?$AA?$CI?$AA?$CF?$AAd?$AA?$CJ?$AA?$AN?$AA?6?$AA?$AA@ 000a85bc     SnapShotDump.obj
 0002:000095ec       ??_C@_1CA@JMLLBEP@?$AAR?$AAa?$AAm?$AAD?$AAu?$AAm?$AAp?$AA?5?$AAS?$AAt?$AAa?$AAr?$AAt?$AA?$AN?$AA?6?$AA?$AA@ 000a85ec     SnapShotDump.obj
 0002:0000960c       ??_C@_1BM@NAFLAIPC@?$AAR?$AAa?$AAm?$AAD?$AAu?$AAm?$AAp?$AA?5?$AAE?$AAn?$AAd?$AA?$AN?$AA?6?$AA?$AA@ 000a860c     SnapShotDump.obj
 0002:00009628       ??_C@_1DO@FBAONCKJ@?$AAS?$AAn?$AAa?$AAp?$AAS?$AAh?$AAo?$AAt?$AA?5?$AAI?$AAm?$AAa?$AAg?$AAe?$AA?5?$AAF?$AAi?$AAl?$AAe?$AA?5?$AA?$FL?$AA?$CF?$AAs?$AA?$FN?$AA?$FL?$AA?$CF?$AAd?$AA?$FN?$AA?$AN?$AA?6?$AA?$AA@ 000a8628     SnapShotDump.obj
 0002:00009668       ??_C@_1CA@NFOLBBHF@?$AAN?$AAK0?$KE0?a0?$PM0?$LI0?$JC0?$MA0?s0?W0W0?$HO0Y0K?$PP?$BP?$AA?$AA@ 000a8668     SnapShotDump.obj
 0002:00009688       ??_C@_1CK@LCJCIHMF@?$AAN?$AAK?$AA?5?$AAI?$AAm?$AAa?$AAg?$AAe?$AA?5?$AAF?$AAi?$AAl?$AAe?$AA?5?$AA?$FL?$AA?$CF?$AAs?$AA?$FN?$AA?$AN?$AA?6?$AA?$AA@ 000a8688     SnapShotDump.obj
 0002:000096b4       ??_C@_1BO@BPLDGANM@?$AAN?$AAK?$AAD?$AAu?$AAm?$AAp?$AA?5?$AAS?$AAt?$AAa?$AAr?$AAt?$AA?$AN?$AA?6?$AA?$AA@ 000a86b4     SnapShotDump.obj
 0002:000096d4       ??_C@_1BK@MGFIOHIC@?$AAN?$AAK?$AAD?$AAu?$AAm?$AAp?$AA?5?$AAE?$AAn?$AAd?$AA?$AN?$AA?6?$AA?$AA@ 000a86d4     SnapShotDump.obj
 0002:000096f0       ??_C@_1CE@CKEGOOBN@?$AAC?$AAD?$AAD?$AAB0?$KE0?a0?$PM0?$LI0?$JC0?$MA0?s0?W0W0?$HO0Y0K?$PP?$BP?$AA?$AA@ 000a86f0     SnapShotDump.obj
 0002:00009714       ??_C@_1CO@JKJDHHGH@?$AAC?$AAD?$AAD?$AAB?$AA?5?$AAI?$AAm?$AAa?$AAg?$AAe?$AA?5?$AAF?$AAi?$AAl?$AAe?$AA?5?$AA?$FL?$AA?$CF?$AAs?$AA?$FN?$AA?$AN?$AA?6?$AA?$AA@ 000a8714     SnapShotDump.obj
 0002:00009744       ??_C@_1CC@ONNKMLPP@?$AAC?$AAD?$AAD?$AAB?$AAD?$AAu?$AAm?$AAp?$AA?5?$AAS?$AAt?$AAa?$AAr?$AAt?$AA?$AN?$AA?6?$AA?$AA@ 000a8744     SnapShotDump.obj
 0002:00009768       ??_C@_1BO@ENDDDICK@?$AAC?$AAD?$AAD?$AAB?$AAD?$AAu?$AAm?$AAp?$AA?5?$AAE?$AAn?$AAd?$AA?$AN?$AA?6?$AA?$AA@ 000a8768     SnapShotDump.obj
 0002:00009788       ??_C@_1DG@IDMFGJFO@?$AAC?$AAD?$AAD?$AAB?$AA?5?$AAI?$AAm?$AAa?$AAg?$AAe?$AA?5?$AAF?$AAi?$AAl?$AAe?$AA?5?$AA?$FL?$AA?$CF?$AAs?$AA?$FN?$AA?$FL?$AA?$CF?$AAd?$AA?$FN?$AA?$AN?$AA?6?$AA?$AA@ 000a8788     SnapShotDump.obj
 0002:000097c0       ??_C@_1CE@EFDIDFGD@?$INwR?Uu?$DL?$JHb0?$KE0?a0?$PM0?$LI0?$JC0?$MA0?s0?W0W0?$HO0Y0K?$PP?$BP?$AA?$AA@ 000a87c0     SnapShotDump.obj
 0002:000097e4       ??_C@_1DE@CIOJIOFA@?$AAO?$AAp?$AAe?$AAn?$AAi?$AAn?$AAg?$AA?5?$AAI?$AAm?$AAa?$AAg?$AAe?$AA?5?$AAF?$AAi?$AAl?$AAe?$AA?5?$AA?$FL?$AA?$CF?$AAs?$AA?$FN?$AA?$AN?$AA?6?$AA?$AA@ 000a87e4     SnapShotDump.obj
 0002:00009818       ??_C@_1CI@FCHNKBLN@?$AAO?$AAp?$AAe?$AAn?$AAi?$AAn?$AAg?$AAD?$AAu?$AAm?$AAp?$AA?5?$AAS?$AAt?$AAa?$AAr?$AAt?$AA?$AN?$AA?6?$AA?$AA@ 000a8818     SnapShotDump.obj
 0002:00009840       ??_C@_1CE@POIPAOAM@?$AAO?$AAp?$AAe?$AAn?$AAi?$AAn?$AAg?$AAD?$AAu?$AAm?$AAp?$AA?5?$AAE?$AAn?$AAd?$AA?$AN?$AA?6?$AA?$AA@ 000a8840     SnapShotDump.obj
 0002:00009864       ??_C@_1DM@DNJFDJOD@?$AAO?$AAp?$AAe?$AAn?$AAi?$AAn?$AAg?$AA?5?$AAI?$AAm?$AAa?$AAg?$AAe?$AA?5?$AAF?$AAi?$AAl?$AAe?$AA?5?$AA?$FL?$AA?$CF?$AAs?$AA?$FN?$AA?$FL?$AA?$CF?$AAd?$AA?$FN?$AA?$AN?$AA?6?$AA?$AA@ 000a8864     SnapShotDump.obj
 0002:000098a0       ??_C@_1CG@PKAAIEDH@?$AAS?$AAn?$AAa?$AAp?$AAS?$AAh?$AAo?$AAt?$AAD?$AAu?$AAm?$AAp?$AA?5?$AAE?$AAn?$AAd?$AA?$AN?$AA?6?$AA?$AA@ 000a88a0     SnapShotDump.obj
 0002:000098c8       ??_C@_1EK@IMBECMKA@?$AAS?$AAn?$AAa?$AAp?$AAS?$AAh?$AAo?$AAt?$AAI?$AAn?$AAf?$AAo?$AAC?$AAa?$AAl?$AAl?$AAB?$AAa?$AAc?$AAk?$AA?5?$AAS?$AAi?$AAz?$AAe?$AA?5?$AAe?$AAr?$AAr?$AAo?$AAr?$AA?$DN@ 000a88c8     SnapShotDump.obj
 0002:00009918       ??_C@_1EC@KBLAIFMH@?$AAS?$AAn?$AAa?$AAp?$AAS?$AAh?$AAo?$AAt?$AA?5?$AAJ?$AAu?$AAm?$AAp?$AA?5?$AAA?$AAd?$AAd?$AAr?$AAe?$AAs?$AAs?$AA?7?$AA?$DN?$AA?5?$AA0?$AAx?$AA?$CF?$AA0?$AA8?$AAX?$AA?$AN?$AA?6@ 000a8918     SnapShotDump.obj
 0002:00009960       ??_C@_1EG@DFNIMCHO@?$AAS?$AAn?$AAa?$AAp?$AAS?$AAh?$AAo?$AAt?$AA?5?$AAI?$AAm?$AAa?$AAg?$AAe?$AA?5?$AAS?$AAi?$AAz?$AAe?$AA?7?$AA?$DN?$AA?5?$AA?$CF?$AAd?$AA?$CI?$AA0?$AAx?$AA?$CF?$AA0?$AA8?$AAX?$AA?$CJ@ 000a8960     SnapShotDump.obj
 0002:000099a8       ??_C@_1FG@IHFKNNJL@?$AAS?$AAn?$AAa?$AAp?$AAS?$AAh?$AAo?$AAt?$AAI?$AAn?$AAf?$AAo?$AAC?$AAa?$AAl?$AAl?$AAB?$AAa?$AAc?$AAk?$AA?5?$AAW?$AAr?$AAi?$AAt?$AAe?$AAF?$AAi?$AAl?$AAe?$AA?5?$AAe@ 000a89a8     SnapShotDump.obj
 0002:00009a00       ??_C@_1FG@MMDOOHFH@?$AAS?$AAn?$AAa?$AAp?$AAS?$AAh?$AAo?$AAt?$AAD?$AAu?$AAm?$AAp?$AAC?$AAa?$AAl?$AAl?$AAB?$AAa?$AAc?$AAk?$AA?5?$AAW?$AAr?$AAi?$AAt?$AAe?$AAF?$AAi?$AAl?$AAe?$AA?5?$AAe@ 000a8a00     SnapShotDump.obj
 0002:00009a58       ??_C@_1DO@EPIJKFN@?$AAN?$AAK?$AAI?$AAn?$AAf?$AAo?$AAC?$AAa?$AAl?$AAl?$AAB?$AAa?$AAc?$AAk?$AA?5?$AAS?$AAi?$AAz?$AAe?$AA?5?$AAe?$AAr?$AAr?$AAo?$AAr?$AA?$DN?$AA?$CF?$AAd?$AA?$AN?$AA?6?$AA?$AA@ 000a8a58     SnapShotDump.obj
 0002:00009a98       ??_C@_1DG@PIDMABDL@?$AAN?$AAK?$AA?5?$AAJ?$AAu?$AAm?$AAp?$AA?5?$AAA?$AAd?$AAd?$AAr?$AAe?$AAs?$AAs?$AA?7?$AA?$DN?$AA?5?$AA0?$AAx?$AA?$CF?$AA0?$AA8?$AAX?$AA?$AN?$AA?6?$AA?$AA@ 000a8a98     SnapShotDump.obj
 0002:00009ad0       ??_C@_1DM@CAAFPBF@?$AAN?$AAK?$AA?5?$AAI?$AAm?$AAa?$AAg?$AAe?$AA?5?$AAS?$AAi?$AAz?$AAe?$AA?7?$AA?7?$AA?$DN?$AA?5?$AA?$CF?$AAd?$AA?$CI?$AA0?$AAx?$AA?$CF?$AA0?$AA8?$AAX?$AA?$CJ?$AA?$AN?$AA?6?$AA?$AA@ 000a8ad0     SnapShotDump.obj
 0002:00009b10       ??_C@_1EK@BKBFMJAJ@?$AAN?$AAK?$AAI?$AAn?$AAf?$AAo?$AAC?$AAa?$AAl?$AAl?$AAB?$AAa?$AAc?$AAk?$AA?5?$AAW?$AAr?$AAi?$AAt?$AAe?$AAF?$AAi?$AAl?$AAe?$AA?5?$AAe?$AAr?$AAr?$AAo?$AAr?$AA?$FL?$AA?$CF@ 000a8b10     SnapShotDump.obj
 0002:00009b60       ??_C@_1EK@FBHBPDMF@?$AAN?$AAK?$AAD?$AAu?$AAm?$AAp?$AAC?$AAa?$AAl?$AAl?$AAB?$AAa?$AAc?$AAk?$AA?5?$AAW?$AAr?$AAi?$AAt?$AAe?$AAF?$AAi?$AAl?$AAe?$AA?5?$AAe?$AAr?$AAr?$AAo?$AAr?$AA?$FL?$AA?$CF@ 000a8b60     SnapShotDump.obj
 0002:00009bb0       ??_C@_1EO@FELLGJM@?$AAC?$AAD?$AAD?$AAB?$AAD?$AAu?$AAm?$AAp?$AAC?$AAa?$AAl?$AAl?$AAB?$AAa?$AAc?$AAk?$AA?5?$AAW?$AAr?$AAi?$AAt?$AAe?$AAF?$AAi?$AAl?$AAe?$AA?5?$AAe?$AAr?$AAr?$AAo?$AAr@ 000a8bb0     SnapShotDump.obj
 0002:00009c00       ??_C@_1FE@KJDAFFKK@?$AAO?$AAp?$AAe?$AAn?$AAi?$AAn?$AAg?$AAD?$AAu?$AAm?$AAp?$AAC?$AAa?$AAl?$AAl?$AAB?$AAa?$AAc?$AAk?$AA?5?$AAW?$AAr?$AAi?$AAt?$AAe?$AAF?$AAi?$AAl?$AAe?$AA?5?$AAe?$AAr@ 000a8c00     SnapShotDump.obj
 0002:00009c58       ??_C@_1IE@NNGPCKPJ@?$AA?$FL?$AAD?$AAi?$AAa?$AAg?$AA?4?$AAe?$AAx?$AAe?$AA?$FN?$AA?5?$AAd?$AAi?$AAs?$AAc?$AAa?$AAr?$AAd?$AA?3?$AA?5?$AAW?$AAM?$AA_?$AAK?$AAW?$AAP?$AA2?$AAD?$AAI?$AA_?$AAR?$AAE@ 000a8c58     DIAG_State.obj
 0002:00009ce0       ??_C@_1JC@CGFFDBKP@?$AA?$FL?$AAD?$AAi?$AAa?$AAg?$AA?4?$AAe?$AAx?$AAe?$AA?$FN?$AA?5?$AAd?$AAi?$AAs?$AAc?$AAa?$AAr?$AAd?$AA?3?$AA?5?$AAW?$AAM?$AA_?$AAK?$AAW?$AAP?$AA2?$AAD?$AAI?$AA_?$AAR?$AAE@ 000a8ce0     DIAG_State.obj
 0002:00009d78       ??_C@_1JM@PMBJBCCE@?$AA?$FL?$AAD?$AAi?$AAa?$AAg?$AA?4?$AAe?$AAx?$AAe?$AA?$FN?$AA?5?$AAd?$AAi?$AAs?$AAc?$AAa?$AAr?$AAd?$AA?3?$AA?5?$AAW?$AAM?$AA_?$AAS?$AAM?$AA_?$AAN?$AAO?$AAT?$AAI?$AAF?$AAY@ 000a8d78     DIAG_State.obj
 0002:00009e18       ??_C@_1IK@KHLNLFDP@?$AA?$FL?$AAD?$AAi?$AAa?$AAg?$AA?4?$AAe?$AAx?$AAe?$AA?$FN?$AA?5?$AAd?$AAi?$AAs?$AAc?$AAa?$AAr?$AAd?$AA?3?$AA?5?$AAW?$AAM?$AA_?$AAS?$AAM?$AA_?$AAR?$AAE?$AAS?$AA_?$AAS?$AAC@ 000a8e18     DIAG_State.obj
 0002:00009ea8       ??_C@_1JA@CPHALGFB@?$AA?$FL?$AAD?$AAi?$AAa?$AAg?$AA?4?$AAe?$AAx?$AAe?$AA?$FN?$AA?5?$AAd?$AAi?$AAs?$AAc?$AAa?$AAr?$AAd?$AA?3?$AA?5?$AAW?$AAM?$AA_?$AAS?$AAM?$AA_?$AAN?$AAO?$AAT?$AAI?$AAF?$AAY@ 000a8ea8     DIAG_State.obj
 0002:00009f38       ??_C@_1IO@LCDEPGDM@?$AA?$FL?$AAD?$AAi?$AAa?$AAg?$AA?4?$AAe?$AAx?$AAe?$AA?$FN?$AA?5?$AAd?$AAi?$AAs?$AAc?$AAa?$AAr?$AAd?$AA?3?$AA?5?$AAW?$AAM?$AA_?$AAD?$AAI?$AA_?$AAR?$AAE?$AAS?$AA_?$AAA?$AAU@ 000a8f38     DIAG_State.obj
 0002:00009fc8       ??_C@_1FE@GLHKNPBH@?$AAD?$AAI?$AAA?$AAG?$AA_?$AAS?$AAt?$AAa?$AAt?$AAe?$AA?3?$AA?3?$AAO?$AAn?$AAB?$AAn?$AAC?$AAl?$AAi?$AAc?$AAk?$AAe?$AAd?$AAB?$AAu?$AAt?$AAt?$AAo?$AAn?$AAB?$AAa?$AAc@ 000a8fc8     DIAG_State.obj
 0002:0000a020       ??_C@_1EO@OBNFHGDJ@?$AAD?$AAI?$AAA?$AAG?$AA_?$AAS?$AAt?$AAa?$AAt?$AAe?$AA?3?$AA?3?$AAO?$AAn?$AAB?$AAn?$AAC?$AAl?$AAi?$AAc?$AAk?$AAe?$AAd?$AAB?$AAu?$AAt?$AAt?$AAo?$AAn?$AAB?$AAa?$AAc@ 000a9020     DIAG_State.obj
 0002:0000a070       ??_C@_1FE@NHHBOOBN@?$AAD?$AAI?$AAA?$AAG?$AA_?$AAS?$AAt?$AAa?$AAt?$AAe?$AA?3?$AA?3?$AAO?$AAn?$AAB?$AAn?$AAC?$AAl?$AAi?$AAc?$AAk?$AAe?$AAd?$AAB?$AAu?$AAt?$AAt?$AAo?$AAn?$AAP?$AAr?$AAe@ 000a9070     DIAG_State.obj
 0002:0000a0c8       ??_C@_1FA@OMIDMNNG@?$AAD?$AAI?$AAA?$AAG?$AA_?$AAS?$AAt?$AAa?$AAt?$AAe?$AA?3?$AA?3?$AAO?$AAn?$AAB?$AAn?$AAC?$AAl?$AAi?$AAc?$AAk?$AAe?$AAd?$AAB?$AAu?$AAt?$AAt?$AAo?$AAn?$AAP?$AAr?$AAe@ 000a90c8     DIAG_State.obj
 0002:0000a118       ??_C@_1FE@MIFEOACP@?$AAD?$AAI?$AAA?$AAG?$AA_?$AAS?$AAt?$AAa?$AAt?$AAe?$AA?3?$AA?3?$AAO?$AAn?$AAB?$AAn?$AAC?$AAl?$AAi?$AAc?$AAk?$AAe?$AAd?$AAB?$AAu?$AAt?$AAt?$AAo?$AAn?$AAN?$AAe?$AAx@ 000a9118     DIAG_State.obj
 0002:0000a170       ??_C@_1FA@NFOMEADB@?$AAD?$AAI?$AAA?$AAG?$AA_?$AAS?$AAt?$AAa?$AAt?$AAe?$AA?3?$AA?3?$AAO?$AAn?$AAB?$AAn?$AAC?$AAl?$AAi?$AAc?$AAk?$AAe?$AAd?$AAB?$AAu?$AAt?$AAt?$AAo?$AAn?$AAN?$AAe?$AAx@ 000a9170     DIAG_State.obj
 0002:0000a1c0       ??_C@_1EO@PGDGHKJM@?$AAD?$AAI?$AAA?$AAG?$AA_?$AAS?$AAt?$AAa?$AAt?$AAe?$AA?3?$AA?3?$AAO?$AAn?$AAB?$AAn?$AAC?$AAl?$AAi?$AAc?$AAk?$AAe?$AAd?$AAB?$AAu?$AAt?$AAt?$AAo?$AAn?$AA1?$AA?5?$AAS@ 000a91c0     DIAG_State.obj
 0002:0000a210       ??_C@_1EK@MDLCLJFL@?$AAD?$AAI?$AAA?$AAG?$AA_?$AAS?$AAt?$AAa?$AAt?$AAe?$AA?3?$AA?3?$AAO?$AAn?$AAB?$AAn?$AAC?$AAl?$AAi?$AAc?$AAk?$AAe?$AAd?$AAB?$AAu?$AAt?$AAt?$AAo?$AAn?$AA1?$AA?5?$AAE@ 000a9210     DIAG_State.obj
 0002:0000a260       ??_C@_1EO@FJJPDHFG@?$AAD?$AAI?$AAA?$AAG?$AA_?$AAS?$AAt?$AAa?$AAt?$AAe?$AA?3?$AA?3?$AAO?$AAn?$AAB?$AAn?$AAC?$AAl?$AAi?$AAc?$AAk?$AAe?$AAd?$AAB?$AAu?$AAt?$AAt?$AAo?$AAn?$AA2?$AA?5?$AAS@ 000a9260     DIAG_State.obj
 0002:0000a2b0       ??_C@_1EK@OKHKANKJ@?$AAD?$AAI?$AAA?$AAG?$AA_?$AAS?$AAt?$AAa?$AAt?$AAe?$AA?3?$AA?3?$AAO?$AAn?$AAB?$AAn?$AAC?$AAl?$AAi?$AAc?$AAk?$AAe?$AAd?$AAB?$AAu?$AAt?$AAt?$AAo?$AAn?$AA2?$AA?5?$AAE@ 000a92b0     DIAG_State.obj
 0002:0000a300       ??_C@_1EO@DMPIAMBA@?$AAD?$AAI?$AAA?$AAG?$AA_?$AAS?$AAt?$AAa?$AAt?$AAe?$AA?3?$AA?3?$AAO?$AAn?$AAB?$AAn?$AAC?$AAl?$AAi?$AAc?$AAk?$AAe?$AAd?$AAB?$AAu?$AAt?$AAt?$AAo?$AAn?$AA3?$AA?5?$AAS@ 000a9300     DIAG_State.obj
 0002:0000a350       ??_C@_1EK@EEBCJMDI@?$AAD?$AAI?$AAA?$AAG?$AA_?$AAS?$AAt?$AAa?$AAt?$AAe?$AA?3?$AA?3?$AAO?$AAn?$AAB?$AAn?$AAC?$AAl?$AAi?$AAc?$AAk?$AAe?$AAd?$AAB?$AAu?$AAt?$AAt?$AAo?$AAn?$AA3?$AA?5?$AAE@ 000a9350     DIAG_State.obj
 0002:0000a3a0       ??_C@_1EO@NNLMKKID@?$AAD?$AAI?$AAA?$AAG?$AA_?$AAS?$AAt?$AAa?$AAt?$AAe?$AA?3?$AA?3?$AAO?$AAn?$AAB?$AAn?$AAC?$AAl?$AAi?$AAc?$AAk?$AAe?$AAd?$AAB?$AAu?$AAt?$AAt?$AAo?$AAn?$AA4?$AA?5?$AAS@ 000a93a0     DIAG_State.obj
 0002:0000a3f0       ??_C@_1EK@LJOLGEEN@?$AAD?$AAI?$AAA?$AAG?$AA_?$AAS?$AAt?$AAa?$AAt?$AAe?$AA?3?$AA?3?$AAO?$AAn?$AAB?$AAn?$AAC?$AAl?$AAi?$AAc?$AAk?$AAe?$AAd?$AAB?$AAu?$AAt?$AAt?$AAo?$AAn?$AA4?$AA?5?$AAE@ 000a93f0     DIAG_State.obj
 0002:0000a440       ??_C@_1EO@LINLJBMF@?$AAD?$AAI?$AAA?$AAG?$AA_?$AAS?$AAt?$AAa?$AAt?$AAe?$AA?3?$AA?3?$AAO?$AAn?$AAB?$AAn?$AAC?$AAl?$AAi?$AAc?$AAk?$AAe?$AAd?$AAB?$AAu?$AAt?$AAt?$AAo?$AAn?$AA5?$AA?5?$AAS@ 000a9440     DIAG_State.obj
 0002:0000a490       ??_C@_1EK@BHIDPFNM@?$AAD?$AAI?$AAA?$AAG?$AA_?$AAS?$AAt?$AAa?$AAt?$AAe?$AA?3?$AA?3?$AAO?$AAn?$AAB?$AAn?$AAC?$AAl?$AAi?$AAc?$AAk?$AAe?$AAd?$AAB?$AAu?$AAt?$AAt?$AAo?$AAn?$AA5?$AA?5?$AAE@ 000a9490     DIAG_State.obj
 0002:0000a4e0       ??_C@_1EO@BHHCNMAP@?$AAD?$AAI?$AAA?$AAG?$AA_?$AAS?$AAt?$AAa?$AAt?$AAe?$AA?3?$AA?3?$AAO?$AAn?$AAB?$AAn?$AAC?$AAl?$AAi?$AAc?$AAk?$AAe?$AAd?$AAB?$AAu?$AAt?$AAt?$AAo?$AAn?$AA6?$AA?5?$AAS@ 000a94e0     DIAG_State.obj
 0002:0000a530       ??_C@_1EK@DOELEBCO@?$AAD?$AAI?$AAA?$AAG?$AA_?$AAS?$AAt?$AAa?$AAt?$AAe?$AA?3?$AA?3?$AAO?$AAn?$AAB?$AAn?$AAC?$AAl?$AAi?$AAc?$AAk?$AAe?$AAd?$AAB?$AAu?$AAt?$AAt?$AAo?$AAn?$AA6?$AA?5?$AAE@ 000a9530     DIAG_State.obj
 0002:0000a580       ??_C@_1EO@HCBFOHEJ@?$AAD?$AAI?$AAA?$AAG?$AA_?$AAS?$AAt?$AAa?$AAt?$AAe?$AA?3?$AA?3?$AAO?$AAn?$AAB?$AAn?$AAC?$AAl?$AAi?$AAc?$AAk?$AAe?$AAd?$AAB?$AAu?$AAt?$AAt?$AAo?$AAn?$AA7?$AA?5?$AAS@ 000a9580     DIAG_State.obj
 0002:0000a5d0       ??_C@_1EK@JACDNALP@?$AAD?$AAI?$AAA?$AAG?$AA_?$AAS?$AAt?$AAa?$AAt?$AAe?$AA?3?$AA?3?$AAO?$AAn?$AAB?$AAn?$AAC?$AAl?$AAi?$AAc?$AAk?$AAe?$AAd?$AAB?$AAu?$AAt?$AAt?$AAo?$AAn?$AA7?$AA?5?$AAE@ 000a95d0     DIAG_State.obj
 0002:0000a620       ??_C@_1EC@KHLHADEM@?$AAD?$AAI?$AAA?$AAG?$AA_?$AAS?$AAt?$AAa?$AAt?$AAe?$AA?3?$AA?3?$AAO?$AAn?$AAR?$AAe?$AAq?$AAD?$AAi?$AAs?$AAp?$AAl?$AAa?$AAy?$AA?5?$AAS?$AAt?$AAa?$AAr?$AAt?$AA?$AN?$AA?6@ 000a9620     DIAG_State.obj
 0002:0000a664       ??_C@_1DO@BOCMGHCJ@?$AAD?$AAI?$AAA?$AAG?$AA_?$AAS?$AAt?$AAa?$AAt?$AAe?$AA?3?$AA?3?$AAO?$AAn?$AAR?$AAe?$AAq?$AAD?$AAi?$AAs?$AAp?$AAl?$AAa?$AAy?$AA?5?$AAE?$AAn?$AAd?$AA?$AN?$AA?6?$AA?$AA@ 000a9664     DIAG_State.obj
 0002:0000a6a8       ??_C@_1EG@LDIJILOC@?$AAD?$AAI?$AAA?$AAG?$AA_?$AAS?$AAt?$AAa?$AAt?$AAe?$AA?3?$AA?3?$AAO?$AAn?$AAR?$AAe?$AAq?$AAE?$AAn?$AAd?$AAD?$AAe?$AAm?$AAa?$AAn?$AAd?$AA?5?$AAS?$AAt?$AAa?$AAr?$AAt@ 000a96a8     DIAG_State.obj
 0002:0000a6f0       ??_C@_1EC@PDCFEKHH@?$AAD?$AAI?$AAA?$AAG?$AA_?$AAS?$AAt?$AAa?$AAt?$AAe?$AA?3?$AA?3?$AAO?$AAn?$AAR?$AAe?$AAq?$AAE?$AAn?$AAd?$AAD?$AAe?$AAm?$AAa?$AAn?$AAd?$AA?5?$AAE?$AAn?$AAd?$AA?$AN?$AA?6@ 000a96f0     DIAG_State.obj
 0002:0000a738       ??_C@_1EI@HLHMHDAJ@?$AAD?$AAI?$AAA?$AAG?$AA_?$AAS?$AAt?$AAa?$AAt?$AAe?$AA?3?$AA?3?$AAO?$AAn?$AAR?$AAe?$AAq?$AAN?$AAo?$AAn?$AAD?$AAi?$AAs?$AAp?$AAl?$AAa?$AAy?$AA?5?$AAS?$AAt?$AAa?$AAr@ 000a9738     DIAG_State.obj
 0002:0000a780       ??_C@_1EE@PJDDCFFM@?$AAD?$AAI?$AAA?$AAG?$AA_?$AAS?$AAt?$AAa?$AAt?$AAe?$AA?3?$AA?3?$AAO?$AAn?$AAR?$AAe?$AAq?$AAN?$AAo?$AAn?$AAD?$AAi?$AAs?$AAp?$AAl?$AAa?$AAy?$AA?5?$AAE?$AAn?$AAd?$AA?$AN@ 000a9780     DIAG_State.obj
 0002:0000a7c8       ??_C@_1GE@JNEDAIC@?$AAD?$AAI?$AAA?$AAG?$AA_?$AAS?$AAt?$AAa?$AAt?$AAe?$AA?3?$AA?3?$AAO?$AAn?$AAS?$AAm?$AAB?$AAu?$AAt?$AAt?$AAo?$AAn?$AAD?$AAo?$AAw?$AAn?$AA?5?$AAW?$AAP?$AAA?$AAR?$AAA@ 000a97c8     DIAG_State.obj
 0002:0000a830       ??_C@_1GA@KDNDIAFN@?$AAD?$AAI?$AAA?$AAG?$AA_?$AAS?$AAt?$AAa?$AAt?$AAe?$AA?3?$AA?3?$AAO?$AAn?$AAS?$AAm?$AAB?$AAu?$AAt?$AAt?$AAo?$AAn?$AAU?$AAp?$AA?5?$AAW?$AAP?$AAA?$AAR?$AAA?$AAM?$AA?$DN@ 000a9830     DIAG_State.obj
 0002:0000a890       ??_C@_1HG@ONLKOCK@?$AAD?$AAI?$AAA?$AAG?$AA_?$AAS?$AAt?$AAa?$AAt?$AAe?$AA?3?$AA?3?$AAO?$AAn?$AAS?$AAm?$AAN?$AAo?$AAt?$AAi?$AAf?$AAy?$AAI?$AAn?$AAi?$AAt?$AAi?$AAa?$AAl?$AAi?$AAz?$AAe@ 000a9890     DIAG_State.obj
 0002:0000a908       ??_C@_1HG@MBPJNLNG@?$AAD?$AAI?$AAA?$AAG?$AA_?$AAS?$AAt?$AAa?$AAt?$AAe?$AA?3?$AA?3?$AAO?$AAn?$AAH?$AAm?$AAi?$AAR?$AAe?$AAs?$AAA?$AAu?$AAd?$AAi?$AAo?$AAI?$AAn?$AAi?$AAt?$AAi?$AAa?$AAl@ 000a9908     DIAG_State.obj
 0002:0000a980       ??_C@_1GM@DBCPMHO@?$AAD?$AAI?$AAA?$AAG?$AA_?$AAS?$AAt?$AAa?$AAt?$AAe?$AA?3?$AA?3?$AAO?$AAn?$AAK?$AAW?$AAP?$AA2?$AAD?$AAI?$AAR?$AAe?$AAq?$AAC?$AAo?$AAm?$AAm?$AAa?$AAn?$AAd?$AA?5?$AAW@ 000a9980     DIAG_State.obj
 0002:0000a9ec       ??_C@_1DM@CACJHLOK@?$AAD?$AAI?$AAA?$AAG?$AA_?$AAS?$AAt?$AAa?$AAt?$AAe?$AA?3?$AA?3?$AAO?$AAn?$AAM?$AAe?$AAs?$AAs?$AAa?$AAg?$AAe?$AA?5?$AAS?$AAt?$AAa?$AAr?$AAt?$AA?$AN?$AA?6?$AA?$AA@ 000a99ec     DIAG_State.obj
 0002:0000aa28       ??_C@_1DI@DPPMLAIN@?$AAD?$AAI?$AAA?$AAG?$AA_?$AAS?$AAt?$AAa?$AAt?$AAe?$AA?3?$AA?3?$AAO?$AAn?$AAM?$AAe?$AAs?$AAs?$AAa?$AAg?$AAe?$AA?5?$AAE?$AAn?$AAd?$AA?$AN?$AA?6?$AA?$AA@ 000a9a28     DIAG_State.obj
 0002:0000aa60       ??_C@_1FC@KPCCNBC@?$AAD?$AAI?$AAA?$AAG?$AA_?$AAS?$AAt?$AAa?$AAt?$AAe?$AA?3?$AA?3?$AAO?$AAn?$AAB?$AAn?$AAC?$AAl?$AAi?$AAc?$AAk?$AAe?$AAd?$AAB?$AAu?$AAt?$AAt?$AAo?$AAn?$AAY?$AAe?$AAs@ 000a9a60     DIAG_State.obj
 0002:0000aab8       ??_C@_1EO@GJBIMCIF@?$AAD?$AAI?$AAA?$AAG?$AA_?$AAS?$AAt?$AAa?$AAt?$AAe?$AA?3?$AA?3?$AAO?$AAn?$AAB?$AAn?$AAC?$AAl?$AAi?$AAc?$AAk?$AAe?$AAd?$AAB?$AAu?$AAt?$AAt?$AAo?$AAn?$AAY?$AAe?$AAs@ 000a9ab8     DIAG_State.obj
 0002:0000ab08       ??_C@_1FA@IPPJBFDP@?$AAD?$AAI?$AAA?$AAG?$AA_?$AAS?$AAt?$AAa?$AAt?$AAe?$AA?3?$AA?3?$AAO?$AAn?$AAB?$AAn?$AAC?$AAl?$AAi?$AAc?$AAk?$AAe?$AAd?$AAB?$AAu?$AAt?$AAt?$AAo?$AAn?$AAN?$AAo?$AA?5@ 000a9b08     DIAG_State.obj
 0002:0000ab58       ??_C@_1EM@LPJCIINC@?$AAD?$AAI?$AAA?$AAG?$AA_?$AAS?$AAt?$AAa?$AAt?$AAe?$AA?3?$AA?3?$AAO?$AAn?$AAB?$AAn?$AAC?$AAl?$AAi?$AAc?$AAk?$AAe?$AAd?$AAB?$AAu?$AAt?$AAt?$AAo?$AAn?$AAN?$AAo?$AA?5@ 000a9b58     DIAG_State.obj
 0002:0000aba8       ??_C@_1HA@BIIEAKPO@?$AAD?$AAI?$AAA?$AAG?$AA_?$AAS?$AAt?$AAa?$AAt?$AAe?$AA?3?$AA?3?$AAO?$AAn?$AAS?$AAm?$AAR?$AAe?$AAs?$AAS?$AAc?$AAa?$AAl?$AAe?$AAr?$AAS?$AAe?$AAt?$AAt?$AAi?$AAn?$AAg@ 000a9ba8     DIAG_State.obj
 0002:0000ac18       ??_C@_1IM@NIPCOPHO@?$AAK?$AAw?$AAp?$AAC?$AAo?$AAm?$AAm?$AAa?$AAn?$AAd?$AAS?$AAt?$AAa?$AAt?$AAe?$AA?3?$AA?3?$AAK?$AAw?$AAp?$AAC?$AAo?$AAm?$AAm?$AAa?$AAn?$AAd?$AAS?$AAt?$AAa?$AAt?$AAe@ 000a9c18     DIAG_State.obj
 0002:0000aca8       ??_C@_1II@DODNLNAM@?$AAK?$AAw?$AAp?$AAC?$AAo?$AAm?$AAm?$AAa?$AAn?$AAd?$AAS?$AAt?$AAa?$AAt?$AAe?$AA?3?$AA?3?$AAK?$AAw?$AAp?$AAC?$AAo?$AAm?$AAm?$AAa?$AAn?$AAd?$AAS?$AAt?$AAa?$AAt?$AAe@ 000a9ca8     DIAG_State.obj
 0002:0000ad30       ??_C@_1IM@BHNNAFBO@?$AAK?$AAw?$AAp?$AAC?$AAo?$AAm?$AAm?$AAa?$AAn?$AAd?$AAS?$AAt?$AAa?$AAt?$AAe?$AA?3?$AA?3?$AAK?$AAw?$AAp?$AAC?$AAo?$AAm?$AAm?$AAa?$AAn?$AAd?$AAS?$AAt?$AAa?$AAt?$AAe@ 000a9d30     DIAG_State.obj
 0002:0000adc0       ??_C@_1II@FABEOJAA@?$AAK?$AAw?$AAp?$AAC?$AAo?$AAm?$AAm?$AAa?$AAn?$AAd?$AAS?$AAt?$AAa?$AAt?$AAe?$AA?3?$AA?3?$AAK?$AAw?$AAp?$AAC?$AAo?$AAm?$AAm?$AAa?$AAn?$AAd?$AAS?$AAt?$AAa?$AAt?$AAe@ 000a9dc0     DIAG_State.obj
 0002:0000ae48       ??_C@_1IC@JPDAIAOH@?$AAK?$AAw?$AAp?$AAC?$AAo?$AAm?$AAm?$AAa?$AAn?$AAd?$AAS?$AAt?$AAa?$AAt?$AAe?$AA?3?$AA?3?$AAK?$AAw?$AAp?$AAC?$AAo?$AAm?$AAm?$AAa?$AAn?$AAd?$AAS?$AAt?$AAa?$AAt?$AAe@ 000a9e48     DIAG_State.obj
 0002:0000aed0       ??_C@_1HO@PKGNBJKB@?$AAK?$AAw?$AAp?$AAC?$AAo?$AAm?$AAm?$AAa?$AAn?$AAd?$AAS?$AAt?$AAa?$AAt?$AAe?$AA?3?$AA?3?$AAK?$AAw?$AAp?$AAC?$AAo?$AAm?$AAm?$AAa?$AAn?$AAd?$AAS?$AAt?$AAa?$AAt?$AAe@ 000a9ed0     DIAG_State.obj
 0002:0000af50       ??_C@_1IG@OAEKNGKD@?$AAK?$AAw?$AAp?$AAC?$AAo?$AAm?$AAm?$AAa?$AAn?$AAd?$AAS?$AAt?$AAa?$AAt?$AAe?$AA?3?$AA?3?$AAK?$AAw?$AAp?$AAC?$AAo?$AAm?$AAm?$AAa?$AAn?$AAd?$AAS?$AAt?$AAa?$AAt?$AAe@ 000a9f50     DIAG_State.obj
 0002:0000afd8       ??_C@_1IC@JEBKAFIB@?$AAK?$AAw?$AAp?$AAC?$AAo?$AAm?$AAm?$AAa?$AAn?$AAd?$AAS?$AAt?$AAa?$AAt?$AAe?$AA?3?$AA?3?$AAK?$AAw?$AAp?$AAC?$AAo?$AAm?$AAm?$AAa?$AAn?$AAd?$AAS?$AAt?$AAa?$AAt?$AAe@ 000a9fd8     DIAG_State.obj
 0002:0000b060       ??_C@_1KA@HPJLNFLE@?$AAK?$AAw?$AAp?$AAC?$AAo?$AAm?$AAm?$AAa?$AAn?$AAd?$AAS?$AAt?$AAa?$AAt?$AAe?$AA?3?$AA?3?$AAK?$AAw?$AAp?$AAC?$AAo?$AAm?$AAm?$AAa?$AAn?$AAd?$AAS?$AAt?$AAa?$AAt?$AAe@ 000aa060     DIAG_State.obj
 0002:0000b100       ??_C@_1JM@JEDEJHBK@?$AAK?$AAw?$AAp?$AAC?$AAo?$AAm?$AAm?$AAa?$AAn?$AAd?$AAS?$AAt?$AAa?$AAt?$AAe?$AA?3?$AA?3?$AAK?$AAw?$AAp?$AAC?$AAo?$AAm?$AAm?$AAa?$AAn?$AAd?$AAS?$AAt?$AAa?$AAt?$AAe@ 000aa100     DIAG_State.obj
 0002:0000b1a0       ??_C@_1KA@LALEDPNE@?$AAK?$AAw?$AAp?$AAC?$AAo?$AAm?$AAm?$AAa?$AAn?$AAd?$AAS?$AAt?$AAa?$AAt?$AAe?$AA?3?$AA?3?$AAK?$AAw?$AAp?$AAC?$AAo?$AAm?$AAm?$AAa?$AAn?$AAd?$AAS?$AAt?$AAa?$AAt?$AAe@ 000aa1a0     DIAG_State.obj
 0002:0000b240       ??_C@_1JM@PKBNMDBG@?$AAK?$AAw?$AAp?$AAC?$AAo?$AAm?$AAm?$AAa?$AAn?$AAd?$AAS?$AAt?$AAa?$AAt?$AAe?$AA?3?$AA?3?$AAK?$AAw?$AAp?$AAC?$AAo?$AAm?$AAm?$AAa?$AAn?$AAd?$AAS?$AAt?$AAa?$AAt?$AAe@ 000aa240     DIAG_State.obj
 0002:0000b2e0       ??_C@_1JE@OEFCCEEI@?$AAK?$AAw?$AAp?$AAC?$AAo?$AAm?$AAm?$AAa?$AAn?$AAd?$AAS?$AAt?$AAa?$AAt?$AAe?$AA?3?$AA?3?$AAK?$AAw?$AAp?$AAC?$AAo?$AAm?$AAm?$AAa?$AAn?$AAd?$AAS?$AAt?$AAa?$AAt?$AAe@ 000aa2e0     DIAG_State.obj
 0002:0000b378       ??_C@_1JA@JPKDBMAO@?$AAK?$AAw?$AAp?$AAC?$AAo?$AAm?$AAm?$AAa?$AAn?$AAd?$AAS?$AAt?$AAa?$AAt?$AAe?$AA?3?$AA?3?$AAK?$AAw?$AAp?$AAC?$AAo?$AAm?$AAm?$AAa?$AAn?$AAd?$AAS?$AAt?$AAa?$AAt?$AAe@ 000aa378     DIAG_State.obj
 0002:0000b408       ??_C@_1HI@CFNJNJBG@?$AAD?$AAI?$AAA?$AAG?$AA_?$AAS?$AAt?$AAa?$AAt?$AAe?$AA?3?$AA?3?$AAO?$AAn?$AAK?$AAW?$AAP?$AA2?$AAD?$AAI?$AAR?$AAe?$AAq?$AAM?$AAe?$AAm?$AAC?$AAl?$AAe?$AAa?$AAr?$AAC@ 000aa408     DIAG_State.obj
 0002:0000b480       ??_C@_1IA@MJMLOFDF@?$AAD?$AAI?$AAA?$AAG?$AA_?$AAS?$AAt?$AAa?$AAt?$AAe?$AA?3?$AA?3?$AAO?$AAn?$AAS?$AAm?$AAN?$AAo?$AAt?$AAi?$AAf?$AAy?$AAI?$AAn?$AAi?$AAt?$AAi?$AAa?$AAl?$AAi?$AAz?$AAe@ 000aa480     DIAG_State.obj
 0002:0000b500       ??_C@_1IO@OEFIDJLK@?$AAK?$AAw?$AAp?$AAC?$AAo?$AAm?$AAm?$AAa?$AAn?$AAd?$AAS?$AAt?$AAa?$AAt?$AAe?$AA?3?$AA?3?$AAK?$AAw?$AAp?$AAC?$AAo?$AAm?$AAm?$AAa?$AAn?$AAd?$AAS?$AAt?$AAa?$AAt?$AAe@ 000aa500     DIAG_State.obj
 0002:0000b590       ??_C@_1LA@LAGAMFLB@?$AAK?$AAw?$AAp?$AAC?$AAo?$AAm?$AAm?$AAa?$AAn?$AAd?$AAS?$AAt?$AAa?$AAt?$AAe?$AA?3?$AA?3?$AAK?$AAw?$AAp?$AAC?$AAo?$AAm?$AAm?$AAa?$AAn?$AAd?$AAS?$AAt?$AAa?$AAt?$AAe@ 000aa590     DIAG_State.obj
 0002:0000b640       ??_C@_1IK@KGHPDDML@?$AAK?$AAw?$AAp?$AAC?$AAo?$AAm?$AAm?$AAa?$AAn?$AAd?$AAS?$AAt?$AAa?$AAt?$AAe?$AA?3?$AA?3?$AAK?$AAw?$AAp?$AAC?$AAo?$AAm?$AAm?$AAa?$AAn?$AAd?$AAS?$AAt?$AAa?$AAt?$AAe@ 000aa640     DIAG_State.obj
 0002:0000b6d0       ??_C@_1JG@MNHMMBCD@?$AAK?$AAw?$AAp?$AAC?$AAo?$AAm?$AAm?$AAa?$AAn?$AAd?$AAS?$AAt?$AAa?$AAt?$AAe?$AA?3?$AA?3?$AAK?$AAw?$AAp?$AAC?$AAo?$AAm?$AAm?$AAa?$AAn?$AAd?$AAS?$AAt?$AAa?$AAt?$AAe@ 000aa6d0     DIAG_State.obj
 0002:0000b768       ??_C@_1JC@DCIBIGOO@?$AAK?$AAw?$AAp?$AAC?$AAo?$AAm?$AAm?$AAa?$AAn?$AAd?$AAS?$AAt?$AAa?$AAt?$AAe?$AA?3?$AA?3?$AAK?$AAw?$AAp?$AAC?$AAo?$AAm?$AAm?$AAa?$AAn?$AAd?$AAS?$AAt?$AAa?$AAt?$AAe@ 000aa768     DIAG_State.obj
 0002:0000b800       ??_7DIAG_State@@6B@        000aa800     DIAG_State.obj
 0002:0000b860       ??_7KwpCommandStateInitializeWait@KwpCommandState@@6B@ 000aa860     DIAG_State.obj
 0002:0000b87c       ??_7KwpCommandStateSettingWait@KwpCommandState@@6B@ 000aa87c     DIAG_State.obj
 0002:0000b898       ??_7KwpCommandStateBase@KwpCommandState@@6B@ 000aa898     DIAG_State.obj
 0002:0000b898       ??_7KwpCommandStateNormal@KwpCommandState@@6B@ 000aa898     DIAG_State.obj
 0002:0000b8b8       ??_C@_1HC@HDNJCOMI@?$AAD?$AAI?$AAA?$AAG?$AA_?$AAS?$AAt?$AAa?$AAt?$AAe?$AA_?$AAA?$AAl?$AAl?$AAS?$AAc?$AAr?$AAe?$AAe?$AAn?$AA_?$AAB?$AAa?$AAc?$AAk?$AA?3?$AA?3?$AAO?$AAn?$AAB?$AAn?$AAC@ 000aa8b8     DIAG_State_AllScreen_Back.obj
 0002:0000b930       ??_C@_1GO@GIDKFLFM@?$AAD?$AAI?$AAA?$AAG?$AA_?$AAS?$AAt?$AAa?$AAt?$AAe?$AA_?$AAA?$AAl?$AAl?$AAS?$AAc?$AAr?$AAe?$AAe?$AAn?$AA_?$AAB?$AAa?$AAc?$AAk?$AA?3?$AA?3?$AAO?$AAn?$AAB?$AAn?$AAC@ 000aa930     DIAG_State_AllScreen_Back.obj
 0002:0000b9a0       ??_C@_1GA@BBBDDPNI@?$AAD?$AAI?$AAA?$AAG?$AA_?$AAS?$AAt?$AAa?$AAt?$AAe?$AA_?$AAA?$AAl?$AAl?$AAS?$AAc?$AAr?$AAe?$AAe?$AAn?$AA_?$AAB?$AAa?$AAc?$AAk?$AA?3?$AA?3?$AAO?$AAn?$AAR?$AAe?$AAq@ 000aa9a0     DIAG_State_AllScreen_Back.obj
 0002:0000ba00       ??_C@_1FM@FKPNEGNH@?$AAD?$AAI?$AAA?$AAG?$AA_?$AAS?$AAt?$AAa?$AAt?$AAe?$AA_?$AAA?$AAl?$AAl?$AAS?$AAc?$AAr?$AAe?$AAe?$AAn?$AA_?$AAB?$AAa?$AAc?$AAk?$AA?3?$AA?3?$AAO?$AAn?$AAR?$AAe?$AAq@ 000aaa00     DIAG_State_AllScreen_Back.obj
 0002:0000ba60       ??_C@_1GG@JKIAHOCL@?$AAD?$AAI?$AAA?$AAG?$AA_?$AAS?$AAt?$AAa?$AAt?$AAe?$AA_?$AAA?$AAl?$AAl?$AAS?$AAc?$AAr?$AAe?$AAe?$AAn?$AA_?$AAB?$AAa?$AAc?$AAk?$AA?3?$AA?3?$AAO?$AAn?$AAR?$AAe?$AAq@ 000aaa60     DIAG_State_AllScreen_Back.obj
 0002:0000bac8       ??_C@_1GC@MDHBKAGB@?$AAD?$AAI?$AAA?$AAG?$AA_?$AAS?$AAt?$AAa?$AAt?$AAe?$AA_?$AAA?$AAl?$AAl?$AAS?$AAc?$AAr?$AAe?$AAe?$AAn?$AA_?$AAB?$AAa?$AAc?$AAk?$AA?3?$AA?3?$AAO?$AAn?$AAR?$AAe?$AAq@ 000aaac8     DIAG_State_AllScreen_Back.obj
 0002:0000bb30       ??_7DIAG_State_AllScreen_Back@@6B@ 000aab30     DIAG_State_AllScreen_Back.obj
 0002:0000bb90       ??_C@_1HI@BAPLJLPD@?$AAD?$AAI?$AAA?$AAG?$AA_?$AAS?$AAt?$AAa?$AAt?$AAe?$AA_?$AAA?$AAl?$AAl?$AAS?$AAc?$AAr?$AAe?$AAe?$AAn?$AA_?$AAD?$AAe?$AAa?$AAl?$AAe?$AAr?$AA?3?$AA?3?$AAO?$AAn?$AAB@ 000aab90     DIAG_State_AllScreen_Dealer.obj
 0002:0000bc08       ??_C@_1HE@IOAFIGPF@?$AAD?$AAI?$AAA?$AAG?$AA_?$AAS?$AAt?$AAa?$AAt?$AAe?$AA_?$AAA?$AAl?$AAl?$AAS?$AAc?$AAr?$AAe?$AAe?$AAn?$AA_?$AAD?$AAe?$AAa?$AAl?$AAe?$AAr?$AA?3?$AA?3?$AAO?$AAn?$AAB@ 000aac08     DIAG_State_AllScreen_Dealer.obj
 0002:0000bc80       ??_C@_1GG@KDECLKHM@?$AAD?$AAI?$AAA?$AAG?$AA_?$AAS?$AAt?$AAa?$AAt?$AAe?$AA_?$AAA?$AAl?$AAl?$AAS?$AAc?$AAr?$AAe?$AAe?$AAn?$AA_?$AAD?$AAe?$AAa?$AAl?$AAe?$AAr?$AA?3?$AA?3?$AAO?$AAn?$AAR@ 000aac80     DIAG_State_AllScreen_Dealer.obj
 0002:0000bce8       ??_C@_1GC@PKOEBFIA@?$AAD?$AAI?$AAA?$AAG?$AA_?$AAS?$AAt?$AAa?$AAt?$AAe?$AA_?$AAA?$AAl?$AAl?$AAS?$AAc?$AAr?$AAe?$AAe?$AAn?$AA_?$AAD?$AAe?$AAa?$AAl?$AAe?$AAr?$AA?3?$AA?3?$AAO?$AAn?$AAR@ 000aace8     DIAG_State_AllScreen_Dealer.obj
 0002:0000bd50       ??_C@_1GM@EPGKEKNN@?$AAD?$AAI?$AAA?$AAG?$AA_?$AAS?$AAt?$AAa?$AAt?$AAe?$AA_?$AAA?$AAl?$AAl?$AAS?$AAc?$AAr?$AAe?$AAe?$AAn?$AA_?$AAD?$AAe?$AAa?$AAl?$AAe?$AAr?$AA?3?$AA?3?$AAO?$AAn?$AAR@ 000aad50     DIAG_State_AllScreen_Dealer.obj
 0002:0000bdc0       ??_C@_1GI@BMGAFNEN@?$AAD?$AAI?$AAA?$AAG?$AA_?$AAS?$AAt?$AAa?$AAt?$AAe?$AA_?$AAA?$AAl?$AAl?$AAS?$AAc?$AAr?$AAe?$AAe?$AAn?$AA_?$AAD?$AAe?$AAa?$AAl?$AAe?$AAr?$AA?3?$AA?3?$AAO?$AAn?$AAR@ 000aadc0     DIAG_State_AllScreen_Dealer.obj
 0002:0000be28       ??_7DIAG_State_AllScreen_Dealer@@6B@ 000aae28     DIAG_State_AllScreen_Dealer.obj
 0002:0000be88       ??_C@_1HI@OCBGKIMG@?$AAD?$AAI?$AAA?$AAG?$AA_?$AAS?$AAt?$AAa?$AAt?$AAe?$AA_?$AAA?$AAl?$AAl?$AAS?$AAc?$AAr?$AAe?$AAe?$AAn?$AA_?$AAD?$AAe?$AAv?$AAe?$AAl?$AAo?$AAp?$AA?3?$AA?3?$AAO?$AAn@ 000aae88     DIAG_State_AllScreen_Develop.obj
 0002:0000bf00       ??_C@_1HE@OFBPPBKN@?$AAD?$AAI?$AAA?$AAG?$AA_?$AAS?$AAt?$AAa?$AAt?$AAe?$AA_?$AAA?$AAl?$AAl?$AAS?$AAc?$AAr?$AAe?$AAe?$AAn?$AA_?$AAD?$AAe?$AAv?$AAe?$AAl?$AAo?$AAp?$AA?3?$AA?3?$AAO?$AAn@ 000aaf00     DIAG_State_AllScreen_Develop.obj
 0002:0000bf78       ??_C@_1GG@EMKAEFAM@?$AAD?$AAI?$AAA?$AAG?$AA_?$AAS?$AAt?$AAa?$AAt?$AAe?$AA_?$AAA?$AAl?$AAl?$AAS?$AAc?$AAr?$AAe?$AAe?$AAn?$AA_?$AAD?$AAe?$AAv?$AAe?$AAl?$AAo?$AAp?$AA?3?$AA?3?$AAO?$AAn@ 000aaf78     DIAG_State_AllScreen_Develop.obj
 0002:0000bfe0       ??_C@_1GC@KEAKJGJL@?$AAD?$AAI?$AAA?$AAG?$AA_?$AAS?$AAt?$AAa?$AAt?$AAe?$AA_?$AAA?$AAl?$AAl?$AAS?$AAc?$AAr?$AAe?$AAe?$AAn?$AA_?$AAD?$AAe?$AAv?$AAe?$AAl?$AAo?$AAp?$AA?3?$AA?3?$AAO?$AAn@ 000aafe0     DIAG_State_AllScreen_Develop.obj
 0002:0000c048       ??_C@_1GM@MLOOIEOL@?$AAD?$AAI?$AAA?$AAG?$AA_?$AAS?$AAt?$AAa?$AAt?$AAe?$AA_?$AAA?$AAl?$AAl?$AAS?$AAc?$AAr?$AAe?$AAe?$AAn?$AA_?$AAD?$AAe?$AAv?$AAe?$AAl?$AAo?$AAp?$AA?3?$AA?3?$AAO?$AAn@ 000ab048     DIAG_State_AllScreen_Develop.obj
 0002:0000c0b8       ??_C@_1GI@JGPFGFOL@?$AAD?$AAI?$AAA?$AAG?$AA_?$AAS?$AAt?$AAa?$AAt?$AAe?$AA_?$AAA?$AAl?$AAl?$AAS?$AAc?$AAr?$AAe?$AAe?$AAn?$AA_?$AAD?$AAe?$AAv?$AAe?$AAl?$AAo?$AAp?$AA?3?$AA?3?$AAO?$AAn@ 000ab0b8     DIAG_State_AllScreen_Develop.obj
 0002:0000c120       ??_7DIAG_State_AllScreen_Develop@@6B@ 000ab120     DIAG_State_AllScreen_Develop.obj
 0002:0000c180       ??_C@_1IE@HIMEPHIE@?$AAD?$AAI?$AAA?$AAG?$AA_?$AAS?$AAt?$AAa?$AAt?$AAe?$AA_?$AAA?$AAl?$AAl?$AAS?$AAc?$AAr?$AAe?$AAe?$AAn?$AA_?$AAD?$AAe?$AAv?$AAe?$AAl?$AAo?$AAp?$AAS?$AAi?$AAn?$AAg@ 000ab180     DIAG_State_AllScreen_DevelopSingle.obj
 0002:0000c208       ??_C@_1IA@LAJJOCKA@?$AAD?$AAI?$AAA?$AAG?$AA_?$AAS?$AAt?$AAa?$AAt?$AAe?$AA_?$AAA?$AAl?$AAl?$AAS?$AAc?$AAr?$AAe?$AAe?$AAn?$AA_?$AAD?$AAe?$AAv?$AAe?$AAl?$AAo?$AAp?$AAS?$AAi?$AAn?$AAg@ 000ab208     DIAG_State_AllScreen_DevelopSingle.obj
 0002:0000c288       ??_C@_1HC@CPGNMCHL@?$AAD?$AAI?$AAA?$AAG?$AA_?$AAS?$AAt?$AAa?$AAt?$AAe?$AA_?$AAA?$AAl?$AAl?$AAS?$AAc?$AAr?$AAe?$AAe?$AAn?$AA_?$AAD?$AAe?$AAv?$AAe?$AAl?$AAo?$AAp?$AAS?$AAi?$AAn?$AAg@ 000ab288     DIAG_State_AllScreen_DevelopSingle.obj
 0002:0000c300       ??_C@_1GO@PLJPCPND@?$AAD?$AAI?$AAA?$AAG?$AA_?$AAS?$AAt?$AAa?$AAt?$AAe?$AA_?$AAA?$AAl?$AAl?$AAS?$AAc?$AAr?$AAe?$AAe?$AAn?$AA_?$AAD?$AAe?$AAv?$AAe?$AAl?$AAo?$AAp?$AAS?$AAi?$AAn?$AAg@ 000ab300     DIAG_State_AllScreen_DevelopSingle.obj
 0002:0000c370       ??_C@_1HI@BALJJGLC@?$AAD?$AAI?$AAA?$AAG?$AA_?$AAS?$AAt?$AAa?$AAt?$AAe?$AA_?$AAA?$AAl?$AAl?$AAS?$AAc?$AAr?$AAe?$AAe?$AAn?$AA_?$AAD?$AAe?$AAv?$AAe?$AAl?$AAo?$AAp?$AAS?$AAi?$AAn?$AAg@ 000ab370     DIAG_State_AllScreen_DevelopSingle.obj
 0002:0000c3e8       ??_C@_1HE@IFFHPPJE@?$AAD?$AAI?$AAA?$AAG?$AA_?$AAS?$AAt?$AAa?$AAt?$AAe?$AA_?$AAA?$AAl?$AAl?$AAS?$AAc?$AAr?$AAe?$AAe?$AAn?$AA_?$AAD?$AAe?$AAv?$AAe?$AAl?$AAo?$AAp?$AAS?$AAi?$AAn?$AAg@ 000ab3e8     DIAG_State_AllScreen_DevelopSingle.obj
 0002:0000c460       ??_7DIAG_State_AllScreen_DevelopSingle@@6B@ 000ab460     DIAG_State_AllScreen_DevelopSingle.obj
 0002:0000c4c0       ??_C@_1GK@KAJDIDLK@?$AAD?$AAI?$AAA?$AAG?$AA_?$AAS?$AAt?$AAa?$AAt?$AAe?$AA_?$AAF?$AAi?$AAn?$AAi?$AAs?$AAh?$AA_?$AAC?$AAo?$AAn?$AAf?$AA?3?$AA?3?$AAO?$AAn?$AAB?$AAn?$AAC?$AAl?$AAi?$AAc@ 000ab4c0     DIAG_State_Finish_Conf.obj
 0002:0000c530       ??_C@_1GG@LCALMHEH@?$AAD?$AAI?$AAA?$AAG?$AA_?$AAS?$AAt?$AAa?$AAt?$AAe?$AA_?$AAF?$AAi?$AAn?$AAi?$AAs?$AAh?$AA_?$AAC?$AAo?$AAn?$AAf?$AA?3?$AA?3?$AAO?$AAn?$AAB?$AAn?$AAC?$AAl?$AAi?$AAc@ 000ab530     DIAG_State_Finish_Conf.obj
 0002:0000c598       ??_C@_1GI@GFPIPGP@?$AAD?$AAI?$AAA?$AAG?$AA_?$AAS?$AAt?$AAa?$AAt?$AAe?$AA_?$AAF?$AAi?$AAn?$AAi?$AAs?$AAh?$AA_?$AAC?$AAo?$AAn?$AAf?$AA?3?$AA?3?$AAO?$AAn?$AAB?$AAn?$AAC?$AAl?$AAi?$AAc@ 000ab598     DIAG_State_Finish_Conf.obj
 0002:0000c600       ??_C@_1GE@BEFJPHHP@?$AAD?$AAI?$AAA?$AAG?$AA_?$AAS?$AAt?$AAa?$AAt?$AAe?$AA_?$AAF?$AAi?$AAn?$AAi?$AAs?$AAh?$AA_?$AAC?$AAo?$AAn?$AAf?$AA?3?$AA?3?$AAO?$AAn?$AAB?$AAn?$AAC?$AAl?$AAi?$AAc@ 000ab600     DIAG_State_Finish_Conf.obj
 0002:0000c668       ??_C@_1FK@BHGDFBOF@?$AAD?$AAI?$AAA?$AAG?$AA_?$AAS?$AAt?$AAa?$AAt?$AAe?$AA_?$AAF?$AAi?$AAn?$AAi?$AAs?$AAh?$AA_?$AAC?$AAo?$AAn?$AAf?$AA?3?$AA?3?$AAO?$AAn?$AAR?$AAe?$AAq?$AAD?$AAi?$AAs@ 000ab668     DIAG_State_Finish_Conf.obj
 0002:0000c6c8       ??_C@_1FG@MGAPPMAC@?$AAD?$AAI?$AAA?$AAG?$AA_?$AAS?$AAt?$AAa?$AAt?$AAe?$AA_?$AAF?$AAi?$AAn?$AAi?$AAs?$AAh?$AA_?$AAC?$AAo?$AAn?$AAf?$AA?3?$AA?3?$AAO?$AAn?$AAR?$AAe?$AAq?$AAD?$AAi?$AAs@ 000ab6c8     DIAG_State_Finish_Conf.obj
 0002:0000c720       ??_C@_1GA@GLNEHPFK@?$AAD?$AAI?$AAA?$AAG?$AA_?$AAS?$AAt?$AAa?$AAt?$AAe?$AA_?$AAF?$AAi?$AAn?$AAi?$AAs?$AAh?$AA_?$AAC?$AAo?$AAn?$AAf?$AA?3?$AA?3?$AAO?$AAn?$AAR?$AAe?$AAq?$AAN?$AAo?$AAn@ 000ab720     DIAG_State_Finish_Conf.obj
 0002:0000c780       ??_C@_1FM@DJDKCPA@?$AAD?$AAI?$AAA?$AAG?$AA_?$AAS?$AAt?$AAa?$AAt?$AAe?$AA_?$AAF?$AAi?$AAn?$AAi?$AAs?$AAh?$AA_?$AAC?$AAo?$AAn?$AAf?$AA?3?$AA?3?$AAO?$AAn?$AAR?$AAe?$AAq?$AAN?$AAo?$AAn@ 000ab780     DIAG_State_Finish_Conf.obj
 0002:0000c7e0       ??_7DIAG_State_Finish_Conf@@6B@ 000ab7e0     DIAG_State_Finish_Conf.obj
 0002:0000c840       ??_C@_1GM@IDMPKOAE@?$AAD?$AAI?$AAA?$AAG?$AA_?$AAS?$AAt?$AAa?$AAt?$AAe?$AA_?$AAN?$AAo?$AAr?$AAm?$AAa?$AAl?$AA_?$AAB?$AAa?$AAc?$AAk?$AA?3?$AA?3?$AAO?$AAn?$AAB?$AAn?$AAC?$AAl?$AAi?$AAc@ 000ab840     DIAG_State_Normal_Back.obj
 0002:0000c8b0       ??_C@_1GI@DPCHPFDP@?$AAD?$AAI?$AAA?$AAG?$AA_?$AAS?$AAt?$AAa?$AAt?$AAe?$AA_?$AAN?$AAo?$AAr?$AAm?$AAa?$AAl?$AA_?$AAB?$AAa?$AAc?$AAk?$AA?3?$AA?3?$AAO?$AAn?$AAB?$AAn?$AAC?$AAl?$AAi?$AAc@ 000ab8b0     DIAG_State_Normal_Back.obj
 0002:0000c918       ??_C@_1GM@DPMEJPAO@?$AAD?$AAI?$AAA?$AAG?$AA_?$AAS?$AAt?$AAa?$AAt?$AAe?$AA_?$AAN?$AAo?$AAr?$AAm?$AAa?$AAl?$AA_?$AAB?$AAa?$AAc?$AAk?$AA?3?$AA?3?$AAO?$AAn?$AAB?$AAn?$AAC?$AAl?$AAi?$AAc@ 000ab918     DIAG_State_Normal_Back.obj
 0002:0000c988       ??_C@_1GI@BGPOFAFD@?$AAD?$AAI?$AAA?$AAG?$AA_?$AAS?$AAt?$AAa?$AAt?$AAe?$AA_?$AAN?$AAo?$AAr?$AAm?$AAa?$AAl?$AA_?$AAB?$AAa?$AAc?$AAk?$AA?3?$AA?3?$AAO?$AAn?$AAB?$AAn?$AAC?$AAl?$AAi?$AAc@ 000ab988     DIAG_State_Normal_Back.obj
 0002:0000c9f0       ??_C@_1GM@CAOBJBDM@?$AAD?$AAI?$AAA?$AAG?$AA_?$AAS?$AAt?$AAa?$AAt?$AAe?$AA_?$AAN?$AAo?$AAr?$AAm?$AAa?$AAl?$AA_?$AAB?$AAa?$AAc?$AAk?$AA?3?$AA?3?$AAO?$AAn?$AAB?$AAn?$AAC?$AAl?$AAi?$AAc@ 000ab9f0     DIAG_State_Normal_Back.obj
 0002:0000ca60       ??_C@_1GI@CPJBNNLE@?$AAD?$AAI?$AAA?$AAG?$AA_?$AAS?$AAt?$AAa?$AAt?$AAe?$AA_?$AAN?$AAo?$AAr?$AAm?$AAa?$AAl?$AA_?$AAB?$AAa?$AAc?$AAk?$AA?3?$AA?3?$AAO?$AAn?$AAB?$AAn?$AAC?$AAl?$AAi?$AAc@ 000aba60     DIAG_State_Normal_Back.obj
 0002:0000cac8       ??_C@_1GG@FBLHOBFK@?$AAD?$AAI?$AAA?$AAG?$AA_?$AAS?$AAt?$AAa?$AAt?$AAe?$AA_?$AAN?$AAo?$AAr?$AAm?$AAa?$AAl?$AA_?$AAB?$AAa?$AAc?$AAk?$AA?3?$AA?3?$AAO?$AAn?$AAB?$AAn?$AAC?$AAl?$AAi?$AAc@ 000abac8     DIAG_State_Normal_Back.obj
 0002:0000cb30       ??_C@_1GC@GHDDDCLB@?$AAD?$AAI?$AAA?$AAG?$AA_?$AAS?$AAt?$AAa?$AAt?$AAe?$AA_?$AAN?$AAo?$AAr?$AAm?$AAa?$AAl?$AA_?$AAB?$AAa?$AAc?$AAk?$AA?3?$AA?3?$AAO?$AAn?$AAB?$AAn?$AAC?$AAl?$AAi?$AAc@ 000abb30     DIAG_State_Normal_Back.obj
 0002:0000cb98       ??_C@_1GG@POBOKMJA@?$AAD?$AAI?$AAA?$AAG?$AA_?$AAS?$AAt?$AAa?$AAt?$AAe?$AA_?$AAN?$AAo?$AAr?$AAm?$AAa?$AAl?$AA_?$AAB?$AAa?$AAc?$AAk?$AA?3?$AA?3?$AAO?$AAn?$AAB?$AAn?$AAC?$AAl?$AAi?$AAc@ 000abb98     DIAG_State_Normal_Back.obj
 0002:0000cc00       ??_C@_1GC@EOPLIGED@?$AAD?$AAI?$AAA?$AAG?$AA_?$AAS?$AAt?$AAa?$AAt?$AAe?$AA_?$AAN?$AAo?$AAr?$AAm?$AAa?$AAl?$AA_?$AAB?$AAa?$AAc?$AAk?$AA?3?$AA?3?$AAO?$AAn?$AAB?$AAn?$AAC?$AAl?$AAi?$AAc@ 000abc00     DIAG_State_Normal_Back.obj
 0002:0000cc68       ??_C@_1GG@JLHJJHNG@?$AAD?$AAI?$AAA?$AAG?$AA_?$AAS?$AAt?$AAa?$AAt?$AAe?$AA_?$AAN?$AAo?$AAr?$AAm?$AAa?$AAl?$AA_?$AAB?$AAa?$AAc?$AAk?$AA?3?$AA?3?$AAO?$AAn?$AAB?$AAn?$AAC?$AAl?$AAi?$AAc@ 000abc68     DIAG_State_Normal_Back.obj
 0002:0000ccd0       ??_C@_1GC@OAJDBHNC@?$AAD?$AAI?$AAA?$AAG?$AA_?$AAS?$AAt?$AAa?$AAt?$AAe?$AA_?$AAN?$AAo?$AAr?$AAm?$AAa?$AAl?$AA_?$AAB?$AAa?$AAc?$AAk?$AA?3?$AA?3?$AAO?$AAn?$AAB?$AAn?$AAC?$AAl?$AAi?$AAc@ 000abcd0     DIAG_State_Normal_Back.obj
 0002:0000cd38       ??_C@_1GG@HKDNDBEF@?$AAD?$AAI?$AAA?$AAG?$AA_?$AAS?$AAt?$AAa?$AAt?$AAe?$AA_?$AAN?$AAo?$AAr?$AAm?$AAa?$AAl?$AA_?$AAB?$AAa?$AAc?$AAk?$AA?3?$AA?3?$AAO?$AAn?$AAB?$AAn?$AAC?$AAl?$AAi?$AAc@ 000abd38     DIAG_State_Normal_Back.obj
 0002:0000cda0       ??_C@_1GC@BNGKOPKH@?$AAD?$AAI?$AAA?$AAG?$AA_?$AAS?$AAt?$AAa?$AAt?$AAe?$AA_?$AAN?$AAo?$AAr?$AAm?$AAa?$AAl?$AA_?$AAB?$AAa?$AAc?$AAk?$AA?3?$AA?3?$AAO?$AAn?$AAB?$AAn?$AAC?$AAl?$AAi?$AAc@ 000abda0     DIAG_State_Normal_Back.obj
 0002:0000ce08       ??_C@_1GG@BPFKAKAD@?$AAD?$AAI?$AAA?$AAG?$AA_?$AAS?$AAt?$AAa?$AAt?$AAe?$AA_?$AAN?$AAo?$AAr?$AAm?$AAa?$AAl?$AA_?$AAB?$AAa?$AAc?$AAk?$AA?3?$AA?3?$AAO?$AAn?$AAB?$AAn?$AAC?$AAl?$AAi?$AAc@ 000abe08     DIAG_State_Normal_Back.obj
 0002:0000ce70       ??_C@_1GC@LDACHODG@?$AAD?$AAI?$AAA?$AAG?$AA_?$AAS?$AAt?$AAa?$AAt?$AAe?$AA_?$AAN?$AAo?$AAr?$AAm?$AAa?$AAl?$AA_?$AAB?$AAa?$AAc?$AAk?$AA?3?$AA?3?$AAO?$AAn?$AAB?$AAn?$AAC?$AAl?$AAi?$AAc@ 000abe70     DIAG_State_Normal_Back.obj
 0002:0000ced8       ??_C@_1GG@LAPDEHMJ@?$AAD?$AAI?$AAA?$AAG?$AA_?$AAS?$AAt?$AAa?$AAt?$AAe?$AA_?$AAN?$AAo?$AAr?$AAm?$AAa?$AAl?$AA_?$AAB?$AAa?$AAc?$AAk?$AA?3?$AA?3?$AAO?$AAn?$AAB?$AAn?$AAC?$AAl?$AAi?$AAc@ 000abed8     DIAG_State_Normal_Back.obj
 0002:0000cf40       ??_C@_1GC@JKMKMKME@?$AAD?$AAI?$AAA?$AAG?$AA_?$AAS?$AAt?$AAa?$AAt?$AAe?$AA_?$AAN?$AAo?$AAr?$AAm?$AAa?$AAl?$AA_?$AAB?$AAa?$AAc?$AAk?$AA?3?$AA?3?$AAO?$AAn?$AAB?$AAn?$AAC?$AAl?$AAi?$AAc@ 000abf40     DIAG_State_Normal_Back.obj
 0002:0000cfa8       ??_C@_1GG@NFJEHMIP@?$AAD?$AAI?$AAA?$AAG?$AA_?$AAS?$AAt?$AAa?$AAt?$AAe?$AA_?$AAN?$AAo?$AAr?$AAm?$AAa?$AAl?$AA_?$AAB?$AAa?$AAc?$AAk?$AA?3?$AA?3?$AAO?$AAn?$AAB?$AAn?$AAC?$AAl?$AAi?$AAc@ 000abfa8     DIAG_State_Normal_Back.obj
 0002:0000d010       ??_C@_1GC@DEKCFLFF@?$AAD?$AAI?$AAA?$AAG?$AA_?$AAS?$AAt?$AAa?$AAt?$AAe?$AA_?$AAN?$AAo?$AAr?$AAm?$AAa?$AAl?$AA_?$AAB?$AAa?$AAc?$AAk?$AA?3?$AA?3?$AAO?$AAn?$AAB?$AAn?$AAC?$AAl?$AAi?$AAc@ 000ac010     DIAG_State_Normal_Back.obj
 0002:0000d078       ??_C@_1FK@DCBBOHHM@?$AAD?$AAI?$AAA?$AAG?$AA_?$AAS?$AAt?$AAa?$AAt?$AAe?$AA_?$AAN?$AAo?$AAr?$AAm?$AAa?$AAl?$AA_?$AAB?$AAa?$AAc?$AAk?$AA?3?$AA?3?$AAO?$AAn?$AAR?$AAe?$AAq?$AAD?$AAi?$AAs@ 000ac078     DIAG_State_Normal_Back.obj
 0002:0000d0d8       ??_C@_1FG@OLIOOLNL@?$AAD?$AAI?$AAA?$AAG?$AA_?$AAS?$AAt?$AAa?$AAt?$AAe?$AA_?$AAN?$AAo?$AAr?$AAm?$AAa?$AAl?$AA_?$AAB?$AAa?$AAc?$AAk?$AA?3?$AA?3?$AAO?$AAn?$AAR?$AAe?$AAq?$AAD?$AAi?$AAs@ 000ac0d8     DIAG_State_Normal_Back.obj
 0002:0000d130       ??_C@_1GA@DBIKCJHJ@?$AAD?$AAI?$AAA?$AAG?$AA_?$AAS?$AAt?$AAa?$AAt?$AAe?$AA_?$AAN?$AAo?$AAr?$AAm?$AAa?$AAl?$AA_?$AAB?$AAa?$AAc?$AAk?$AA?3?$AA?3?$AAO?$AAn?$AAR?$AAe?$AAq?$AAN?$AAo?$AAn@ 000ac130     DIAG_State_Normal_Back.obj
 0002:0000d190       ??_C@_1FM@IBBCKAGI@?$AAD?$AAI?$AAA?$AAG?$AA_?$AAS?$AAt?$AAa?$AAt?$AAe?$AA_?$AAN?$AAo?$AAr?$AAm?$AAa?$AAl?$AA_?$AAB?$AAa?$AAc?$AAk?$AA?3?$AA?3?$AAO?$AAn?$AAR?$AAe?$AAq?$AAN?$AAo?$AAn@ 000ac190     DIAG_State_Normal_Back.obj
 0002:0000d1f0       ??_7DIAG_State_Normal_Back@@6B@ 000ac1f0     DIAG_State_Normal_Back.obj
 0002:0000d250       ??_C@_1HA@EOOOPCPC@?$AAD?$AAI?$AAA?$AAG?$AA_?$AAS?$AAt?$AAa?$AAt?$AAe?$AA_?$AAN?$AAo?$AAr?$AAm?$AAa?$AAl?$AA_?$AAD?$AAe?$AAa?$AAl?$AAe?$AAr?$AA?3?$AA?3?$AAO?$AAn?$AAB?$AAn?$AAC?$AAl@ 000ac250     DIAG_State_Normal_Dealer.obj
 0002:0000d2c0       ??_C@_1GM@PFGFMOEK@?$AAD?$AAI?$AAA?$AAG?$AA_?$AAS?$AAt?$AAa?$AAt?$AAe?$AA_?$AAN?$AAo?$AAr?$AAm?$AAa?$AAl?$AA_?$AAD?$AAe?$AAa?$AAl?$AAe?$AAr?$AA?3?$AA?3?$AAO?$AAn?$AAB?$AAn?$AAC?$AAl@ 000ac2c0     DIAG_State_Normal_Dealer.obj
 0002:0000d330       ??_C@_1HA@PCOFMDPI@?$AAD?$AAI?$AAA?$AAG?$AA_?$AAS?$AAt?$AAa?$AAt?$AAe?$AA_?$AAN?$AAo?$AAr?$AAm?$AAa?$AAl?$AA_?$AAD?$AAe?$AAa?$AAl?$AAe?$AAr?$AA?3?$AA?3?$AAO?$AAn?$AAB?$AAn?$AAC?$AAl@ 000ac330     DIAG_State_Normal_Dealer.obj
 0002:0000d3a0       ??_C@_1GM@NMLMGLCG@?$AAD?$AAI?$AAA?$AAG?$AA_?$AAS?$AAt?$AAa?$AAt?$AAe?$AA_?$AAN?$AAo?$AAr?$AAm?$AAa?$AAl?$AA_?$AAD?$AAe?$AAa?$AAl?$AAe?$AAr?$AA?3?$AA?3?$AAO?$AAn?$AAB?$AAn?$AAC?$AAl@ 000ac3a0     DIAG_State_Normal_Dealer.obj
 0002:0000d410       ??_C@_1HA@ONMAMNMK@?$AAD?$AAI?$AAA?$AAG?$AA_?$AAS?$AAt?$AAa?$AAt?$AAe?$AA_?$AAN?$AAo?$AAr?$AAm?$AAa?$AAl?$AA_?$AAD?$AAe?$AAa?$AAl?$AAe?$AAr?$AA?3?$AA?3?$AAO?$AAn?$AAB?$AAn?$AAC?$AAl@ 000ac410     DIAG_State_Normal_Dealer.obj
 0002:0000d480       ??_C@_1GM@OFNDOGMB@?$AAD?$AAI?$AAA?$AAG?$AA_?$AAS?$AAt?$AAa?$AAt?$AAe?$AA_?$AAN?$AAo?$AAr?$AAm?$AAa?$AAl?$AA_?$AAD?$AAe?$AAa?$AAl?$AAe?$AAr?$AA?3?$AA?3?$AAO?$AAn?$AAB?$AAn?$AAC?$AAl@ 000ac480     DIAG_State_Normal_Dealer.obj
 0002:0000d4f0       ??_C@_1GK@MKOGHJIH@?$AAD?$AAI?$AAA?$AAG?$AA_?$AAS?$AAt?$AAa?$AAt?$AAe?$AA_?$AAN?$AAo?$AAr?$AAm?$AAa?$AAl?$AA_?$AAD?$AAe?$AAa?$AAl?$AAe?$AAr?$AA?3?$AA?3?$AAO?$AAn?$AAB?$AAn?$AAC?$AAl@ 000ac4f0     DIAG_State_Normal_Dealer.obj
 0002:0000d560       ??_C@_1GG@JHELCLCL@?$AAD?$AAI?$AAA?$AAG?$AA_?$AAS?$AAt?$AAa?$AAt?$AAe?$AA_?$AAN?$AAo?$AAr?$AAm?$AAa?$AAl?$AA_?$AAD?$AAe?$AAa?$AAl?$AAe?$AAr?$AA?3?$AA?3?$AAO?$AAn?$AAB?$AAn?$AAC?$AAl@ 000ac560     DIAG_State_Normal_Dealer.obj
 0002:0000d5c8       ??_C@_1GK@GFEPDEEN@?$AAD?$AAI?$AAA?$AAG?$AA_?$AAS?$AAt?$AAa?$AAt?$AAe?$AA_?$AAN?$AAo?$AAr?$AAm?$AAa?$AAl?$AA_?$AAD?$AAe?$AAa?$AAl?$AAe?$AAr?$AA?3?$AA?3?$AAO?$AAn?$AAB?$AAn?$AAC?$AAl@ 000ac5c8     DIAG_State_Normal_Dealer.obj
 0002:0000d638       ??_C@_1GG@LOIDJPNJ@?$AAD?$AAI?$AAA?$AAG?$AA_?$AAS?$AAt?$AAa?$AAt?$AAe?$AA_?$AAN?$AAo?$AAr?$AAm?$AAa?$AAl?$AA_?$AAD?$AAe?$AAa?$AAl?$AAe?$AAr?$AA?3?$AA?3?$AAO?$AAn?$AAB?$AAn?$AAC?$AAl@ 000ac638     DIAG_State_Normal_Dealer.obj
 0002:0000d6a0       ??_C@_1GK@CIAPAL@?$AAD?$AAI?$AAA?$AAG?$AA_?$AAS?$AAt?$AAa?$AAt?$AAe?$AA_?$AAN?$AAo?$AAr?$AAm?$AAa?$AAl?$AA_?$AAD?$AAe?$AAa?$AAl?$AAe?$AAr?$AA?3?$AA?3?$AAO?$AAn?$AAB?$AAn?$AAC?$AAl@ 000ac6a0     DIAG_State_Normal_Dealer.obj
 0002:0000d710       ??_C@_1GG@BAOLAOEI@?$AAD?$AAI?$AAA?$AAG?$AA_?$AAS?$AAt?$AAa?$AAt?$AAe?$AA_?$AAN?$AAo?$AAr?$AAm?$AAa?$AAl?$AA_?$AAD?$AAe?$AAa?$AAl?$AAe?$AAr?$AA?3?$AA?3?$AAO?$AAn?$AAB?$AAn?$AAC?$AAl@ 000ac710     DIAG_State_Normal_Dealer.obj
 0002:0000d778       ??_C@_1GK@OBGMKJJI@?$AAD?$AAI?$AAA?$AAG?$AA_?$AAS?$AAt?$AAa?$AAt?$AAe?$AA_?$AAN?$AAo?$AAr?$AAm?$AAa?$AAl?$AA_?$AAD?$AAe?$AAa?$AAl?$AAe?$AAr?$AA?3?$AA?3?$AAO?$AAn?$AAB?$AAn?$AAC?$AAl@ 000ac778     DIAG_State_Normal_Dealer.obj
